
C:\Users\Henry\Desktop\Skripsie\Feedback-Control-of-Robotic-Gymnast-MCU\acrobat_v4\Release\acrobat_v4.elf:     file format elf32-littlearm

Sections:
Idx Name          Size      VMA       LMA       File off  Algn
  0 .isr_vector   000000c0  08000000  08000000  00010000  2**0
                  CONTENTS, ALLOC, LOAD, READONLY, DATA
  1 .text         00003cb0  080000c0  080000c0  000100c0  2**2
                  CONTENTS, ALLOC, LOAD, READONLY, CODE
  2 .rodata       00000140  08003d70  08003d70  00013d70  2**2
                  CONTENTS, ALLOC, LOAD, READONLY, DATA
  3 .init_array   00000004  08003eb0  08003eb0  00013eb0  2**2
                  CONTENTS, ALLOC, LOAD, DATA
  4 .fini_array   00000004  08003eb4  08003eb4  00013eb4  2**2
                  CONTENTS, ALLOC, LOAD, DATA
  5 .data         00000090  20000000  08003eb8  00020000  2**3
                  CONTENTS, ALLOC, LOAD, DATA
  6 .bss          000002d4  20000090  08003f48  00020090  2**3
                  ALLOC
  7 ._user_heap_stack 00000600  20000364  08003f48  00020364  2**0
                  ALLOC
  8 .ARM.attributes 00000028  00000000  00000000  00020090  2**0
                  CONTENTS, READONLY
  9 .comment      0000007c  00000000  00000000  000200b8  2**0
                  CONTENTS, READONLY
 10 .debug_frame  0000049c  00000000  00000000  00020134  2**2
                  CONTENTS, READONLY, DEBUGGING

Disassembly of section .text:

080000c0 <__do_global_dtors_aux>:
 80000c0:	b510      	push	{r4, lr}
 80000c2:	4c06      	ldr	r4, [pc, #24]	; (80000dc <__do_global_dtors_aux+0x1c>)
 80000c4:	7823      	ldrb	r3, [r4, #0]
 80000c6:	2b00      	cmp	r3, #0
 80000c8:	d107      	bne.n	80000da <__do_global_dtors_aux+0x1a>
 80000ca:	4b05      	ldr	r3, [pc, #20]	; (80000e0 <__do_global_dtors_aux+0x20>)
 80000cc:	2b00      	cmp	r3, #0
 80000ce:	d002      	beq.n	80000d6 <__do_global_dtors_aux+0x16>
 80000d0:	4804      	ldr	r0, [pc, #16]	; (80000e4 <__do_global_dtors_aux+0x24>)
 80000d2:	e000      	b.n	80000d6 <__do_global_dtors_aux+0x16>
 80000d4:	bf00      	nop
 80000d6:	2301      	movs	r3, #1
 80000d8:	7023      	strb	r3, [r4, #0]
 80000da:	bd10      	pop	{r4, pc}
 80000dc:	20000090 	.word	0x20000090
 80000e0:	00000000 	.word	0x00000000
 80000e4:	08003d58 	.word	0x08003d58

080000e8 <frame_dummy>:
 80000e8:	4b04      	ldr	r3, [pc, #16]	; (80000fc <frame_dummy+0x14>)
 80000ea:	b510      	push	{r4, lr}
 80000ec:	2b00      	cmp	r3, #0
 80000ee:	d003      	beq.n	80000f8 <frame_dummy+0x10>
 80000f0:	4903      	ldr	r1, [pc, #12]	; (8000100 <frame_dummy+0x18>)
 80000f2:	4804      	ldr	r0, [pc, #16]	; (8000104 <frame_dummy+0x1c>)
 80000f4:	e000      	b.n	80000f8 <frame_dummy+0x10>
 80000f6:	bf00      	nop
 80000f8:	bd10      	pop	{r4, pc}
 80000fa:	46c0      	nop			; (mov r8, r8)
 80000fc:	00000000 	.word	0x00000000
 8000100:	20000094 	.word	0x20000094
 8000104:	08003d58 	.word	0x08003d58

08000108 <strlen>:
 8000108:	2300      	movs	r3, #0
 800010a:	5cc2      	ldrb	r2, [r0, r3]
 800010c:	3301      	adds	r3, #1
 800010e:	2a00      	cmp	r2, #0
 8000110:	d1fb      	bne.n	800010a <strlen+0x2>
 8000112:	1e58      	subs	r0, r3, #1
 8000114:	4770      	bx	lr
	...

08000118 <__gnu_thumb1_case_uqi>:
 8000118:	b402      	push	{r1}
 800011a:	4671      	mov	r1, lr
 800011c:	0849      	lsrs	r1, r1, #1
 800011e:	0049      	lsls	r1, r1, #1
 8000120:	5c09      	ldrb	r1, [r1, r0]
 8000122:	0049      	lsls	r1, r1, #1
 8000124:	448e      	add	lr, r1
 8000126:	bc02      	pop	{r1}
 8000128:	4770      	bx	lr
 800012a:	46c0      	nop			; (mov r8, r8)

0800012c <__udivsi3>:
 800012c:	2200      	movs	r2, #0
 800012e:	0843      	lsrs	r3, r0, #1
 8000130:	428b      	cmp	r3, r1
 8000132:	d374      	bcc.n	800021e <__udivsi3+0xf2>
 8000134:	0903      	lsrs	r3, r0, #4
 8000136:	428b      	cmp	r3, r1
 8000138:	d35f      	bcc.n	80001fa <__udivsi3+0xce>
 800013a:	0a03      	lsrs	r3, r0, #8
 800013c:	428b      	cmp	r3, r1
 800013e:	d344      	bcc.n	80001ca <__udivsi3+0x9e>
 8000140:	0b03      	lsrs	r3, r0, #12
 8000142:	428b      	cmp	r3, r1
 8000144:	d328      	bcc.n	8000198 <__udivsi3+0x6c>
 8000146:	0c03      	lsrs	r3, r0, #16
 8000148:	428b      	cmp	r3, r1
 800014a:	d30d      	bcc.n	8000168 <__udivsi3+0x3c>
 800014c:	22ff      	movs	r2, #255	; 0xff
 800014e:	0209      	lsls	r1, r1, #8
 8000150:	ba12      	rev	r2, r2
 8000152:	0c03      	lsrs	r3, r0, #16
 8000154:	428b      	cmp	r3, r1
 8000156:	d302      	bcc.n	800015e <__udivsi3+0x32>
 8000158:	1212      	asrs	r2, r2, #8
 800015a:	0209      	lsls	r1, r1, #8
 800015c:	d065      	beq.n	800022a <__udivsi3+0xfe>
 800015e:	0b03      	lsrs	r3, r0, #12
 8000160:	428b      	cmp	r3, r1
 8000162:	d319      	bcc.n	8000198 <__udivsi3+0x6c>
 8000164:	e000      	b.n	8000168 <__udivsi3+0x3c>
 8000166:	0a09      	lsrs	r1, r1, #8
 8000168:	0bc3      	lsrs	r3, r0, #15
 800016a:	428b      	cmp	r3, r1
 800016c:	d301      	bcc.n	8000172 <__udivsi3+0x46>
 800016e:	03cb      	lsls	r3, r1, #15
 8000170:	1ac0      	subs	r0, r0, r3
 8000172:	4152      	adcs	r2, r2
 8000174:	0b83      	lsrs	r3, r0, #14
 8000176:	428b      	cmp	r3, r1
 8000178:	d301      	bcc.n	800017e <__udivsi3+0x52>
 800017a:	038b      	lsls	r3, r1, #14
 800017c:	1ac0      	subs	r0, r0, r3
 800017e:	4152      	adcs	r2, r2
 8000180:	0b43      	lsrs	r3, r0, #13
 8000182:	428b      	cmp	r3, r1
 8000184:	d301      	bcc.n	800018a <__udivsi3+0x5e>
 8000186:	034b      	lsls	r3, r1, #13
 8000188:	1ac0      	subs	r0, r0, r3
 800018a:	4152      	adcs	r2, r2
 800018c:	0b03      	lsrs	r3, r0, #12
 800018e:	428b      	cmp	r3, r1
 8000190:	d301      	bcc.n	8000196 <__udivsi3+0x6a>
 8000192:	030b      	lsls	r3, r1, #12
 8000194:	1ac0      	subs	r0, r0, r3
 8000196:	4152      	adcs	r2, r2
 8000198:	0ac3      	lsrs	r3, r0, #11
 800019a:	428b      	cmp	r3, r1
 800019c:	d301      	bcc.n	80001a2 <__udivsi3+0x76>
 800019e:	02cb      	lsls	r3, r1, #11
 80001a0:	1ac0      	subs	r0, r0, r3
 80001a2:	4152      	adcs	r2, r2
 80001a4:	0a83      	lsrs	r3, r0, #10
 80001a6:	428b      	cmp	r3, r1
 80001a8:	d301      	bcc.n	80001ae <__udivsi3+0x82>
 80001aa:	028b      	lsls	r3, r1, #10
 80001ac:	1ac0      	subs	r0, r0, r3
 80001ae:	4152      	adcs	r2, r2
 80001b0:	0a43      	lsrs	r3, r0, #9
 80001b2:	428b      	cmp	r3, r1
 80001b4:	d301      	bcc.n	80001ba <__udivsi3+0x8e>
 80001b6:	024b      	lsls	r3, r1, #9
 80001b8:	1ac0      	subs	r0, r0, r3
 80001ba:	4152      	adcs	r2, r2
 80001bc:	0a03      	lsrs	r3, r0, #8
 80001be:	428b      	cmp	r3, r1
 80001c0:	d301      	bcc.n	80001c6 <__udivsi3+0x9a>
 80001c2:	020b      	lsls	r3, r1, #8
 80001c4:	1ac0      	subs	r0, r0, r3
 80001c6:	4152      	adcs	r2, r2
 80001c8:	d2cd      	bcs.n	8000166 <__udivsi3+0x3a>
 80001ca:	09c3      	lsrs	r3, r0, #7
 80001cc:	428b      	cmp	r3, r1
 80001ce:	d301      	bcc.n	80001d4 <__udivsi3+0xa8>
 80001d0:	01cb      	lsls	r3, r1, #7
 80001d2:	1ac0      	subs	r0, r0, r3
 80001d4:	4152      	adcs	r2, r2
 80001d6:	0983      	lsrs	r3, r0, #6
 80001d8:	428b      	cmp	r3, r1
 80001da:	d301      	bcc.n	80001e0 <__udivsi3+0xb4>
 80001dc:	018b      	lsls	r3, r1, #6
 80001de:	1ac0      	subs	r0, r0, r3
 80001e0:	4152      	adcs	r2, r2
 80001e2:	0943      	lsrs	r3, r0, #5
 80001e4:	428b      	cmp	r3, r1
 80001e6:	d301      	bcc.n	80001ec <__udivsi3+0xc0>
 80001e8:	014b      	lsls	r3, r1, #5
 80001ea:	1ac0      	subs	r0, r0, r3
 80001ec:	4152      	adcs	r2, r2
 80001ee:	0903      	lsrs	r3, r0, #4
 80001f0:	428b      	cmp	r3, r1
 80001f2:	d301      	bcc.n	80001f8 <__udivsi3+0xcc>
 80001f4:	010b      	lsls	r3, r1, #4
 80001f6:	1ac0      	subs	r0, r0, r3
 80001f8:	4152      	adcs	r2, r2
 80001fa:	08c3      	lsrs	r3, r0, #3
 80001fc:	428b      	cmp	r3, r1
 80001fe:	d301      	bcc.n	8000204 <__udivsi3+0xd8>
 8000200:	00cb      	lsls	r3, r1, #3
 8000202:	1ac0      	subs	r0, r0, r3
 8000204:	4152      	adcs	r2, r2
 8000206:	0883      	lsrs	r3, r0, #2
 8000208:	428b      	cmp	r3, r1
 800020a:	d301      	bcc.n	8000210 <__udivsi3+0xe4>
 800020c:	008b      	lsls	r3, r1, #2
 800020e:	1ac0      	subs	r0, r0, r3
 8000210:	4152      	adcs	r2, r2
 8000212:	0843      	lsrs	r3, r0, #1
 8000214:	428b      	cmp	r3, r1
 8000216:	d301      	bcc.n	800021c <__udivsi3+0xf0>
 8000218:	004b      	lsls	r3, r1, #1
 800021a:	1ac0      	subs	r0, r0, r3
 800021c:	4152      	adcs	r2, r2
 800021e:	1a41      	subs	r1, r0, r1
 8000220:	d200      	bcs.n	8000224 <__udivsi3+0xf8>
 8000222:	4601      	mov	r1, r0
 8000224:	4152      	adcs	r2, r2
 8000226:	4610      	mov	r0, r2
 8000228:	4770      	bx	lr
 800022a:	e7ff      	b.n	800022c <__udivsi3+0x100>
 800022c:	b501      	push	{r0, lr}
 800022e:	2000      	movs	r0, #0
 8000230:	f000 f806 	bl	8000240 <__aeabi_idiv0>
 8000234:	bd02      	pop	{r1, pc}
 8000236:	46c0      	nop			; (mov r8, r8)

08000238 <__aeabi_uidivmod>:
 8000238:	2900      	cmp	r1, #0
 800023a:	d0f7      	beq.n	800022c <__udivsi3+0x100>
 800023c:	e776      	b.n	800012c <__udivsi3>
 800023e:	4770      	bx	lr

08000240 <__aeabi_idiv0>:
 8000240:	4770      	bx	lr
 8000242:	46c0      	nop			; (mov r8, r8)

08000244 <__aeabi_fmul>:
 8000244:	b5f8      	push	{r3, r4, r5, r6, r7, lr}
 8000246:	4657      	mov	r7, sl
 8000248:	464e      	mov	r6, r9
 800024a:	4645      	mov	r5, r8
 800024c:	46de      	mov	lr, fp
 800024e:	b5e0      	push	{r5, r6, r7, lr}
 8000250:	0247      	lsls	r7, r0, #9
 8000252:	0046      	lsls	r6, r0, #1
 8000254:	4688      	mov	r8, r1
 8000256:	0a7f      	lsrs	r7, r7, #9
 8000258:	0e36      	lsrs	r6, r6, #24
 800025a:	0fc4      	lsrs	r4, r0, #31
 800025c:	2e00      	cmp	r6, #0
 800025e:	d047      	beq.n	80002f0 <__aeabi_fmul+0xac>
 8000260:	2eff      	cmp	r6, #255	; 0xff
 8000262:	d024      	beq.n	80002ae <__aeabi_fmul+0x6a>
 8000264:	00fb      	lsls	r3, r7, #3
 8000266:	2780      	movs	r7, #128	; 0x80
 8000268:	04ff      	lsls	r7, r7, #19
 800026a:	431f      	orrs	r7, r3
 800026c:	2300      	movs	r3, #0
 800026e:	4699      	mov	r9, r3
 8000270:	469a      	mov	sl, r3
 8000272:	3e7f      	subs	r6, #127	; 0x7f
 8000274:	4643      	mov	r3, r8
 8000276:	025d      	lsls	r5, r3, #9
 8000278:	0058      	lsls	r0, r3, #1
 800027a:	0fdb      	lsrs	r3, r3, #31
 800027c:	0a6d      	lsrs	r5, r5, #9
 800027e:	0e00      	lsrs	r0, r0, #24
 8000280:	4698      	mov	r8, r3
 8000282:	d043      	beq.n	800030c <__aeabi_fmul+0xc8>
 8000284:	28ff      	cmp	r0, #255	; 0xff
 8000286:	d03b      	beq.n	8000300 <__aeabi_fmul+0xbc>
 8000288:	00eb      	lsls	r3, r5, #3
 800028a:	2580      	movs	r5, #128	; 0x80
 800028c:	2200      	movs	r2, #0
 800028e:	04ed      	lsls	r5, r5, #19
 8000290:	431d      	orrs	r5, r3
 8000292:	387f      	subs	r0, #127	; 0x7f
 8000294:	1836      	adds	r6, r6, r0
 8000296:	1c73      	adds	r3, r6, #1
 8000298:	4641      	mov	r1, r8
 800029a:	469b      	mov	fp, r3
 800029c:	464b      	mov	r3, r9
 800029e:	4061      	eors	r1, r4
 80002a0:	4313      	orrs	r3, r2
 80002a2:	2b0f      	cmp	r3, #15
 80002a4:	d864      	bhi.n	8000370 <__aeabi_fmul+0x12c>
 80002a6:	4875      	ldr	r0, [pc, #468]	; (800047c <__aeabi_fmul+0x238>)
 80002a8:	009b      	lsls	r3, r3, #2
 80002aa:	58c3      	ldr	r3, [r0, r3]
 80002ac:	469f      	mov	pc, r3
 80002ae:	2f00      	cmp	r7, #0
 80002b0:	d142      	bne.n	8000338 <__aeabi_fmul+0xf4>
 80002b2:	2308      	movs	r3, #8
 80002b4:	4699      	mov	r9, r3
 80002b6:	3b06      	subs	r3, #6
 80002b8:	26ff      	movs	r6, #255	; 0xff
 80002ba:	469a      	mov	sl, r3
 80002bc:	e7da      	b.n	8000274 <__aeabi_fmul+0x30>
 80002be:	4641      	mov	r1, r8
 80002c0:	2a02      	cmp	r2, #2
 80002c2:	d028      	beq.n	8000316 <__aeabi_fmul+0xd2>
 80002c4:	2a03      	cmp	r2, #3
 80002c6:	d100      	bne.n	80002ca <__aeabi_fmul+0x86>
 80002c8:	e0ce      	b.n	8000468 <__aeabi_fmul+0x224>
 80002ca:	2a01      	cmp	r2, #1
 80002cc:	d000      	beq.n	80002d0 <__aeabi_fmul+0x8c>
 80002ce:	e0ac      	b.n	800042a <__aeabi_fmul+0x1e6>
 80002d0:	4011      	ands	r1, r2
 80002d2:	2000      	movs	r0, #0
 80002d4:	2200      	movs	r2, #0
 80002d6:	b2cc      	uxtb	r4, r1
 80002d8:	0240      	lsls	r0, r0, #9
 80002da:	05d2      	lsls	r2, r2, #23
 80002dc:	0a40      	lsrs	r0, r0, #9
 80002de:	07e4      	lsls	r4, r4, #31
 80002e0:	4310      	orrs	r0, r2
 80002e2:	4320      	orrs	r0, r4
 80002e4:	bc3c      	pop	{r2, r3, r4, r5}
 80002e6:	4690      	mov	r8, r2
 80002e8:	4699      	mov	r9, r3
 80002ea:	46a2      	mov	sl, r4
 80002ec:	46ab      	mov	fp, r5
 80002ee:	bdf8      	pop	{r3, r4, r5, r6, r7, pc}
 80002f0:	2f00      	cmp	r7, #0
 80002f2:	d115      	bne.n	8000320 <__aeabi_fmul+0xdc>
 80002f4:	2304      	movs	r3, #4
 80002f6:	4699      	mov	r9, r3
 80002f8:	3b03      	subs	r3, #3
 80002fa:	2600      	movs	r6, #0
 80002fc:	469a      	mov	sl, r3
 80002fe:	e7b9      	b.n	8000274 <__aeabi_fmul+0x30>
 8000300:	20ff      	movs	r0, #255	; 0xff
 8000302:	2202      	movs	r2, #2
 8000304:	2d00      	cmp	r5, #0
 8000306:	d0c5      	beq.n	8000294 <__aeabi_fmul+0x50>
 8000308:	2203      	movs	r2, #3
 800030a:	e7c3      	b.n	8000294 <__aeabi_fmul+0x50>
 800030c:	2d00      	cmp	r5, #0
 800030e:	d119      	bne.n	8000344 <__aeabi_fmul+0x100>
 8000310:	2000      	movs	r0, #0
 8000312:	2201      	movs	r2, #1
 8000314:	e7be      	b.n	8000294 <__aeabi_fmul+0x50>
 8000316:	2401      	movs	r4, #1
 8000318:	22ff      	movs	r2, #255	; 0xff
 800031a:	400c      	ands	r4, r1
 800031c:	2000      	movs	r0, #0
 800031e:	e7db      	b.n	80002d8 <__aeabi_fmul+0x94>
 8000320:	0038      	movs	r0, r7
 8000322:	f000 fc13 	bl	8000b4c <__clzsi2>
 8000326:	2676      	movs	r6, #118	; 0x76
 8000328:	1f43      	subs	r3, r0, #5
 800032a:	409f      	lsls	r7, r3
 800032c:	2300      	movs	r3, #0
 800032e:	4276      	negs	r6, r6
 8000330:	1a36      	subs	r6, r6, r0
 8000332:	4699      	mov	r9, r3
 8000334:	469a      	mov	sl, r3
 8000336:	e79d      	b.n	8000274 <__aeabi_fmul+0x30>
 8000338:	230c      	movs	r3, #12
 800033a:	4699      	mov	r9, r3
 800033c:	3b09      	subs	r3, #9
 800033e:	26ff      	movs	r6, #255	; 0xff
 8000340:	469a      	mov	sl, r3
 8000342:	e797      	b.n	8000274 <__aeabi_fmul+0x30>
 8000344:	0028      	movs	r0, r5
 8000346:	f000 fc01 	bl	8000b4c <__clzsi2>
 800034a:	1f43      	subs	r3, r0, #5
 800034c:	409d      	lsls	r5, r3
 800034e:	2376      	movs	r3, #118	; 0x76
 8000350:	425b      	negs	r3, r3
 8000352:	1a18      	subs	r0, r3, r0
 8000354:	2200      	movs	r2, #0
 8000356:	e79d      	b.n	8000294 <__aeabi_fmul+0x50>
 8000358:	2080      	movs	r0, #128	; 0x80
 800035a:	2400      	movs	r4, #0
 800035c:	03c0      	lsls	r0, r0, #15
 800035e:	22ff      	movs	r2, #255	; 0xff
 8000360:	e7ba      	b.n	80002d8 <__aeabi_fmul+0x94>
 8000362:	003d      	movs	r5, r7
 8000364:	4652      	mov	r2, sl
 8000366:	e7ab      	b.n	80002c0 <__aeabi_fmul+0x7c>
 8000368:	003d      	movs	r5, r7
 800036a:	0021      	movs	r1, r4
 800036c:	4652      	mov	r2, sl
 800036e:	e7a7      	b.n	80002c0 <__aeabi_fmul+0x7c>
 8000370:	0c3b      	lsrs	r3, r7, #16
 8000372:	469c      	mov	ip, r3
 8000374:	042a      	lsls	r2, r5, #16
 8000376:	0c12      	lsrs	r2, r2, #16
 8000378:	0c2b      	lsrs	r3, r5, #16
 800037a:	0014      	movs	r4, r2
 800037c:	4660      	mov	r0, ip
 800037e:	4665      	mov	r5, ip
 8000380:	043f      	lsls	r7, r7, #16
 8000382:	0c3f      	lsrs	r7, r7, #16
 8000384:	437c      	muls	r4, r7
 8000386:	4342      	muls	r2, r0
 8000388:	435d      	muls	r5, r3
 800038a:	437b      	muls	r3, r7
 800038c:	0c27      	lsrs	r7, r4, #16
 800038e:	189b      	adds	r3, r3, r2
 8000390:	18ff      	adds	r7, r7, r3
 8000392:	42ba      	cmp	r2, r7
 8000394:	d903      	bls.n	800039e <__aeabi_fmul+0x15a>
 8000396:	2380      	movs	r3, #128	; 0x80
 8000398:	025b      	lsls	r3, r3, #9
 800039a:	469c      	mov	ip, r3
 800039c:	4465      	add	r5, ip
 800039e:	0424      	lsls	r4, r4, #16
 80003a0:	043a      	lsls	r2, r7, #16
 80003a2:	0c24      	lsrs	r4, r4, #16
 80003a4:	1912      	adds	r2, r2, r4
 80003a6:	0193      	lsls	r3, r2, #6
 80003a8:	1e5c      	subs	r4, r3, #1
 80003aa:	41a3      	sbcs	r3, r4
 80003ac:	0c3f      	lsrs	r7, r7, #16
 80003ae:	0e92      	lsrs	r2, r2, #26
 80003b0:	197d      	adds	r5, r7, r5
 80003b2:	431a      	orrs	r2, r3
 80003b4:	01ad      	lsls	r5, r5, #6
 80003b6:	4315      	orrs	r5, r2
 80003b8:	012b      	lsls	r3, r5, #4
 80003ba:	d504      	bpl.n	80003c6 <__aeabi_fmul+0x182>
 80003bc:	2301      	movs	r3, #1
 80003be:	465e      	mov	r6, fp
 80003c0:	086a      	lsrs	r2, r5, #1
 80003c2:	401d      	ands	r5, r3
 80003c4:	4315      	orrs	r5, r2
 80003c6:	0032      	movs	r2, r6
 80003c8:	327f      	adds	r2, #127	; 0x7f
 80003ca:	2a00      	cmp	r2, #0
 80003cc:	dd25      	ble.n	800041a <__aeabi_fmul+0x1d6>
 80003ce:	076b      	lsls	r3, r5, #29
 80003d0:	d004      	beq.n	80003dc <__aeabi_fmul+0x198>
 80003d2:	230f      	movs	r3, #15
 80003d4:	402b      	ands	r3, r5
 80003d6:	2b04      	cmp	r3, #4
 80003d8:	d000      	beq.n	80003dc <__aeabi_fmul+0x198>
 80003da:	3504      	adds	r5, #4
 80003dc:	012b      	lsls	r3, r5, #4
 80003de:	d503      	bpl.n	80003e8 <__aeabi_fmul+0x1a4>
 80003e0:	0032      	movs	r2, r6
 80003e2:	4b27      	ldr	r3, [pc, #156]	; (8000480 <__aeabi_fmul+0x23c>)
 80003e4:	3280      	adds	r2, #128	; 0x80
 80003e6:	401d      	ands	r5, r3
 80003e8:	2afe      	cmp	r2, #254	; 0xfe
 80003ea:	dc94      	bgt.n	8000316 <__aeabi_fmul+0xd2>
 80003ec:	2401      	movs	r4, #1
 80003ee:	01a8      	lsls	r0, r5, #6
 80003f0:	0a40      	lsrs	r0, r0, #9
 80003f2:	b2d2      	uxtb	r2, r2
 80003f4:	400c      	ands	r4, r1
 80003f6:	e76f      	b.n	80002d8 <__aeabi_fmul+0x94>
 80003f8:	2080      	movs	r0, #128	; 0x80
 80003fa:	03c0      	lsls	r0, r0, #15
 80003fc:	4207      	tst	r7, r0
 80003fe:	d007      	beq.n	8000410 <__aeabi_fmul+0x1cc>
 8000400:	4205      	tst	r5, r0
 8000402:	d105      	bne.n	8000410 <__aeabi_fmul+0x1cc>
 8000404:	4328      	orrs	r0, r5
 8000406:	0240      	lsls	r0, r0, #9
 8000408:	0a40      	lsrs	r0, r0, #9
 800040a:	4644      	mov	r4, r8
 800040c:	22ff      	movs	r2, #255	; 0xff
 800040e:	e763      	b.n	80002d8 <__aeabi_fmul+0x94>
 8000410:	4338      	orrs	r0, r7
 8000412:	0240      	lsls	r0, r0, #9
 8000414:	0a40      	lsrs	r0, r0, #9
 8000416:	22ff      	movs	r2, #255	; 0xff
 8000418:	e75e      	b.n	80002d8 <__aeabi_fmul+0x94>
 800041a:	2401      	movs	r4, #1
 800041c:	1aa3      	subs	r3, r4, r2
 800041e:	2b1b      	cmp	r3, #27
 8000420:	dd05      	ble.n	800042e <__aeabi_fmul+0x1ea>
 8000422:	400c      	ands	r4, r1
 8000424:	2200      	movs	r2, #0
 8000426:	2000      	movs	r0, #0
 8000428:	e756      	b.n	80002d8 <__aeabi_fmul+0x94>
 800042a:	465e      	mov	r6, fp
 800042c:	e7cb      	b.n	80003c6 <__aeabi_fmul+0x182>
 800042e:	002a      	movs	r2, r5
 8000430:	2020      	movs	r0, #32
 8000432:	40da      	lsrs	r2, r3
 8000434:	1ac3      	subs	r3, r0, r3
 8000436:	409d      	lsls	r5, r3
 8000438:	002b      	movs	r3, r5
 800043a:	1e5d      	subs	r5, r3, #1
 800043c:	41ab      	sbcs	r3, r5
 800043e:	4313      	orrs	r3, r2
 8000440:	075a      	lsls	r2, r3, #29
 8000442:	d004      	beq.n	800044e <__aeabi_fmul+0x20a>
 8000444:	220f      	movs	r2, #15
 8000446:	401a      	ands	r2, r3
 8000448:	2a04      	cmp	r2, #4
 800044a:	d000      	beq.n	800044e <__aeabi_fmul+0x20a>
 800044c:	3304      	adds	r3, #4
 800044e:	015a      	lsls	r2, r3, #5
 8000450:	d504      	bpl.n	800045c <__aeabi_fmul+0x218>
 8000452:	2401      	movs	r4, #1
 8000454:	2201      	movs	r2, #1
 8000456:	400c      	ands	r4, r1
 8000458:	2000      	movs	r0, #0
 800045a:	e73d      	b.n	80002d8 <__aeabi_fmul+0x94>
 800045c:	2401      	movs	r4, #1
 800045e:	019b      	lsls	r3, r3, #6
 8000460:	0a58      	lsrs	r0, r3, #9
 8000462:	400c      	ands	r4, r1
 8000464:	2200      	movs	r2, #0
 8000466:	e737      	b.n	80002d8 <__aeabi_fmul+0x94>
 8000468:	2080      	movs	r0, #128	; 0x80
 800046a:	2401      	movs	r4, #1
 800046c:	03c0      	lsls	r0, r0, #15
 800046e:	4328      	orrs	r0, r5
 8000470:	0240      	lsls	r0, r0, #9
 8000472:	0a40      	lsrs	r0, r0, #9
 8000474:	400c      	ands	r4, r1
 8000476:	22ff      	movs	r2, #255	; 0xff
 8000478:	e72e      	b.n	80002d8 <__aeabi_fmul+0x94>
 800047a:	46c0      	nop			; (mov r8, r8)
 800047c:	08003d90 	.word	0x08003d90
 8000480:	f7ffffff 	.word	0xf7ffffff

08000484 <__aeabi_i2f>:
 8000484:	b570      	push	{r4, r5, r6, lr}
 8000486:	2800      	cmp	r0, #0
 8000488:	d030      	beq.n	80004ec <__aeabi_i2f+0x68>
 800048a:	17c3      	asrs	r3, r0, #31
 800048c:	18c4      	adds	r4, r0, r3
 800048e:	405c      	eors	r4, r3
 8000490:	0fc5      	lsrs	r5, r0, #31
 8000492:	0020      	movs	r0, r4
 8000494:	f000 fb5a 	bl	8000b4c <__clzsi2>
 8000498:	239e      	movs	r3, #158	; 0x9e
 800049a:	1a1b      	subs	r3, r3, r0
 800049c:	2b96      	cmp	r3, #150	; 0x96
 800049e:	dc0d      	bgt.n	80004bc <__aeabi_i2f+0x38>
 80004a0:	2296      	movs	r2, #150	; 0x96
 80004a2:	1ad2      	subs	r2, r2, r3
 80004a4:	4094      	lsls	r4, r2
 80004a6:	002a      	movs	r2, r5
 80004a8:	0264      	lsls	r4, r4, #9
 80004aa:	0a64      	lsrs	r4, r4, #9
 80004ac:	b2db      	uxtb	r3, r3
 80004ae:	0264      	lsls	r4, r4, #9
 80004b0:	05db      	lsls	r3, r3, #23
 80004b2:	0a60      	lsrs	r0, r4, #9
 80004b4:	07d2      	lsls	r2, r2, #31
 80004b6:	4318      	orrs	r0, r3
 80004b8:	4310      	orrs	r0, r2
 80004ba:	bd70      	pop	{r4, r5, r6, pc}
 80004bc:	2b99      	cmp	r3, #153	; 0x99
 80004be:	dc19      	bgt.n	80004f4 <__aeabi_i2f+0x70>
 80004c0:	2299      	movs	r2, #153	; 0x99
 80004c2:	1ad2      	subs	r2, r2, r3
 80004c4:	2a00      	cmp	r2, #0
 80004c6:	dd29      	ble.n	800051c <__aeabi_i2f+0x98>
 80004c8:	4094      	lsls	r4, r2
 80004ca:	0022      	movs	r2, r4
 80004cc:	4c14      	ldr	r4, [pc, #80]	; (8000520 <__aeabi_i2f+0x9c>)
 80004ce:	4014      	ands	r4, r2
 80004d0:	0751      	lsls	r1, r2, #29
 80004d2:	d004      	beq.n	80004de <__aeabi_i2f+0x5a>
 80004d4:	210f      	movs	r1, #15
 80004d6:	400a      	ands	r2, r1
 80004d8:	2a04      	cmp	r2, #4
 80004da:	d000      	beq.n	80004de <__aeabi_i2f+0x5a>
 80004dc:	3404      	adds	r4, #4
 80004de:	0162      	lsls	r2, r4, #5
 80004e0:	d413      	bmi.n	800050a <__aeabi_i2f+0x86>
 80004e2:	01a4      	lsls	r4, r4, #6
 80004e4:	0a64      	lsrs	r4, r4, #9
 80004e6:	b2db      	uxtb	r3, r3
 80004e8:	002a      	movs	r2, r5
 80004ea:	e7e0      	b.n	80004ae <__aeabi_i2f+0x2a>
 80004ec:	2200      	movs	r2, #0
 80004ee:	2300      	movs	r3, #0
 80004f0:	2400      	movs	r4, #0
 80004f2:	e7dc      	b.n	80004ae <__aeabi_i2f+0x2a>
 80004f4:	2205      	movs	r2, #5
 80004f6:	0021      	movs	r1, r4
 80004f8:	1a12      	subs	r2, r2, r0
 80004fa:	40d1      	lsrs	r1, r2
 80004fc:	22b9      	movs	r2, #185	; 0xb9
 80004fe:	1ad2      	subs	r2, r2, r3
 8000500:	4094      	lsls	r4, r2
 8000502:	1e62      	subs	r2, r4, #1
 8000504:	4194      	sbcs	r4, r2
 8000506:	430c      	orrs	r4, r1
 8000508:	e7da      	b.n	80004c0 <__aeabi_i2f+0x3c>
 800050a:	4b05      	ldr	r3, [pc, #20]	; (8000520 <__aeabi_i2f+0x9c>)
 800050c:	002a      	movs	r2, r5
 800050e:	401c      	ands	r4, r3
 8000510:	239f      	movs	r3, #159	; 0x9f
 8000512:	01a4      	lsls	r4, r4, #6
 8000514:	1a1b      	subs	r3, r3, r0
 8000516:	0a64      	lsrs	r4, r4, #9
 8000518:	b2db      	uxtb	r3, r3
 800051a:	e7c8      	b.n	80004ae <__aeabi_i2f+0x2a>
 800051c:	0022      	movs	r2, r4
 800051e:	e7d5      	b.n	80004cc <__aeabi_i2f+0x48>
 8000520:	fbffffff 	.word	0xfbffffff

08000524 <__aeabi_dmul>:
 8000524:	b5f0      	push	{r4, r5, r6, r7, lr}
 8000526:	4657      	mov	r7, sl
 8000528:	4645      	mov	r5, r8
 800052a:	46de      	mov	lr, fp
 800052c:	464e      	mov	r6, r9
 800052e:	b5e0      	push	{r5, r6, r7, lr}
 8000530:	030c      	lsls	r4, r1, #12
 8000532:	4698      	mov	r8, r3
 8000534:	004e      	lsls	r6, r1, #1
 8000536:	0b23      	lsrs	r3, r4, #12
 8000538:	b087      	sub	sp, #28
 800053a:	0007      	movs	r7, r0
 800053c:	4692      	mov	sl, r2
 800053e:	469b      	mov	fp, r3
 8000540:	0d76      	lsrs	r6, r6, #21
 8000542:	0fcd      	lsrs	r5, r1, #31
 8000544:	2e00      	cmp	r6, #0
 8000546:	d06b      	beq.n	8000620 <__aeabi_dmul+0xfc>
 8000548:	4b6d      	ldr	r3, [pc, #436]	; (8000700 <__aeabi_dmul+0x1dc>)
 800054a:	429e      	cmp	r6, r3
 800054c:	d035      	beq.n	80005ba <__aeabi_dmul+0x96>
 800054e:	2480      	movs	r4, #128	; 0x80
 8000550:	465b      	mov	r3, fp
 8000552:	0f42      	lsrs	r2, r0, #29
 8000554:	0424      	lsls	r4, r4, #16
 8000556:	00db      	lsls	r3, r3, #3
 8000558:	4314      	orrs	r4, r2
 800055a:	431c      	orrs	r4, r3
 800055c:	00c3      	lsls	r3, r0, #3
 800055e:	4699      	mov	r9, r3
 8000560:	4b68      	ldr	r3, [pc, #416]	; (8000704 <__aeabi_dmul+0x1e0>)
 8000562:	46a3      	mov	fp, r4
 8000564:	469c      	mov	ip, r3
 8000566:	2300      	movs	r3, #0
 8000568:	2700      	movs	r7, #0
 800056a:	4466      	add	r6, ip
 800056c:	9302      	str	r3, [sp, #8]
 800056e:	4643      	mov	r3, r8
 8000570:	031c      	lsls	r4, r3, #12
 8000572:	005a      	lsls	r2, r3, #1
 8000574:	0fdb      	lsrs	r3, r3, #31
 8000576:	4650      	mov	r0, sl
 8000578:	0b24      	lsrs	r4, r4, #12
 800057a:	0d52      	lsrs	r2, r2, #21
 800057c:	4698      	mov	r8, r3
 800057e:	d100      	bne.n	8000582 <__aeabi_dmul+0x5e>
 8000580:	e076      	b.n	8000670 <__aeabi_dmul+0x14c>
 8000582:	4b5f      	ldr	r3, [pc, #380]	; (8000700 <__aeabi_dmul+0x1dc>)
 8000584:	429a      	cmp	r2, r3
 8000586:	d06d      	beq.n	8000664 <__aeabi_dmul+0x140>
 8000588:	2380      	movs	r3, #128	; 0x80
 800058a:	0f41      	lsrs	r1, r0, #29
 800058c:	041b      	lsls	r3, r3, #16
 800058e:	430b      	orrs	r3, r1
 8000590:	495c      	ldr	r1, [pc, #368]	; (8000704 <__aeabi_dmul+0x1e0>)
 8000592:	00e4      	lsls	r4, r4, #3
 8000594:	468c      	mov	ip, r1
 8000596:	431c      	orrs	r4, r3
 8000598:	00c3      	lsls	r3, r0, #3
 800059a:	2000      	movs	r0, #0
 800059c:	4462      	add	r2, ip
 800059e:	4641      	mov	r1, r8
 80005a0:	18b6      	adds	r6, r6, r2
 80005a2:	4069      	eors	r1, r5
 80005a4:	1c72      	adds	r2, r6, #1
 80005a6:	9101      	str	r1, [sp, #4]
 80005a8:	4694      	mov	ip, r2
 80005aa:	4307      	orrs	r7, r0
 80005ac:	2f0f      	cmp	r7, #15
 80005ae:	d900      	bls.n	80005b2 <__aeabi_dmul+0x8e>
 80005b0:	e0b0      	b.n	8000714 <__aeabi_dmul+0x1f0>
 80005b2:	4a55      	ldr	r2, [pc, #340]	; (8000708 <__aeabi_dmul+0x1e4>)
 80005b4:	00bf      	lsls	r7, r7, #2
 80005b6:	59d2      	ldr	r2, [r2, r7]
 80005b8:	4697      	mov	pc, r2
 80005ba:	465b      	mov	r3, fp
 80005bc:	4303      	orrs	r3, r0
 80005be:	4699      	mov	r9, r3
 80005c0:	d000      	beq.n	80005c4 <__aeabi_dmul+0xa0>
 80005c2:	e087      	b.n	80006d4 <__aeabi_dmul+0x1b0>
 80005c4:	2300      	movs	r3, #0
 80005c6:	469b      	mov	fp, r3
 80005c8:	3302      	adds	r3, #2
 80005ca:	2708      	movs	r7, #8
 80005cc:	9302      	str	r3, [sp, #8]
 80005ce:	e7ce      	b.n	800056e <__aeabi_dmul+0x4a>
 80005d0:	4642      	mov	r2, r8
 80005d2:	9201      	str	r2, [sp, #4]
 80005d4:	2802      	cmp	r0, #2
 80005d6:	d067      	beq.n	80006a8 <__aeabi_dmul+0x184>
 80005d8:	2803      	cmp	r0, #3
 80005da:	d100      	bne.n	80005de <__aeabi_dmul+0xba>
 80005dc:	e20e      	b.n	80009fc <__aeabi_dmul+0x4d8>
 80005de:	2801      	cmp	r0, #1
 80005e0:	d000      	beq.n	80005e4 <__aeabi_dmul+0xc0>
 80005e2:	e162      	b.n	80008aa <__aeabi_dmul+0x386>
 80005e4:	2300      	movs	r3, #0
 80005e6:	2400      	movs	r4, #0
 80005e8:	2200      	movs	r2, #0
 80005ea:	4699      	mov	r9, r3
 80005ec:	9901      	ldr	r1, [sp, #4]
 80005ee:	4001      	ands	r1, r0
 80005f0:	b2cd      	uxtb	r5, r1
 80005f2:	2100      	movs	r1, #0
 80005f4:	0312      	lsls	r2, r2, #12
 80005f6:	0d0b      	lsrs	r3, r1, #20
 80005f8:	0b12      	lsrs	r2, r2, #12
 80005fa:	051b      	lsls	r3, r3, #20
 80005fc:	4313      	orrs	r3, r2
 80005fe:	4a43      	ldr	r2, [pc, #268]	; (800070c <__aeabi_dmul+0x1e8>)
 8000600:	0524      	lsls	r4, r4, #20
 8000602:	4013      	ands	r3, r2
 8000604:	431c      	orrs	r4, r3
 8000606:	0064      	lsls	r4, r4, #1
 8000608:	07ed      	lsls	r5, r5, #31
 800060a:	0864      	lsrs	r4, r4, #1
 800060c:	432c      	orrs	r4, r5
 800060e:	4648      	mov	r0, r9
 8000610:	0021      	movs	r1, r4
 8000612:	b007      	add	sp, #28
 8000614:	bc3c      	pop	{r2, r3, r4, r5}
 8000616:	4690      	mov	r8, r2
 8000618:	4699      	mov	r9, r3
 800061a:	46a2      	mov	sl, r4
 800061c:	46ab      	mov	fp, r5
 800061e:	bdf0      	pop	{r4, r5, r6, r7, pc}
 8000620:	4303      	orrs	r3, r0
 8000622:	4699      	mov	r9, r3
 8000624:	d04f      	beq.n	80006c6 <__aeabi_dmul+0x1a2>
 8000626:	465b      	mov	r3, fp
 8000628:	2b00      	cmp	r3, #0
 800062a:	d100      	bne.n	800062e <__aeabi_dmul+0x10a>
 800062c:	e189      	b.n	8000942 <__aeabi_dmul+0x41e>
 800062e:	4658      	mov	r0, fp
 8000630:	f000 fa8c 	bl	8000b4c <__clzsi2>
 8000634:	0003      	movs	r3, r0
 8000636:	3b0b      	subs	r3, #11
 8000638:	2b1c      	cmp	r3, #28
 800063a:	dd00      	ble.n	800063e <__aeabi_dmul+0x11a>
 800063c:	e17a      	b.n	8000934 <__aeabi_dmul+0x410>
 800063e:	221d      	movs	r2, #29
 8000640:	1ad3      	subs	r3, r2, r3
 8000642:	003a      	movs	r2, r7
 8000644:	0001      	movs	r1, r0
 8000646:	465c      	mov	r4, fp
 8000648:	40da      	lsrs	r2, r3
 800064a:	3908      	subs	r1, #8
 800064c:	408c      	lsls	r4, r1
 800064e:	0013      	movs	r3, r2
 8000650:	408f      	lsls	r7, r1
 8000652:	4323      	orrs	r3, r4
 8000654:	469b      	mov	fp, r3
 8000656:	46b9      	mov	r9, r7
 8000658:	2300      	movs	r3, #0
 800065a:	4e2d      	ldr	r6, [pc, #180]	; (8000710 <__aeabi_dmul+0x1ec>)
 800065c:	2700      	movs	r7, #0
 800065e:	1a36      	subs	r6, r6, r0
 8000660:	9302      	str	r3, [sp, #8]
 8000662:	e784      	b.n	800056e <__aeabi_dmul+0x4a>
 8000664:	4653      	mov	r3, sl
 8000666:	4323      	orrs	r3, r4
 8000668:	d12a      	bne.n	80006c0 <__aeabi_dmul+0x19c>
 800066a:	2400      	movs	r4, #0
 800066c:	2002      	movs	r0, #2
 800066e:	e796      	b.n	800059e <__aeabi_dmul+0x7a>
 8000670:	4653      	mov	r3, sl
 8000672:	4323      	orrs	r3, r4
 8000674:	d020      	beq.n	80006b8 <__aeabi_dmul+0x194>
 8000676:	2c00      	cmp	r4, #0
 8000678:	d100      	bne.n	800067c <__aeabi_dmul+0x158>
 800067a:	e157      	b.n	800092c <__aeabi_dmul+0x408>
 800067c:	0020      	movs	r0, r4
 800067e:	f000 fa65 	bl	8000b4c <__clzsi2>
 8000682:	0003      	movs	r3, r0
 8000684:	3b0b      	subs	r3, #11
 8000686:	2b1c      	cmp	r3, #28
 8000688:	dd00      	ble.n	800068c <__aeabi_dmul+0x168>
 800068a:	e149      	b.n	8000920 <__aeabi_dmul+0x3fc>
 800068c:	211d      	movs	r1, #29
 800068e:	1acb      	subs	r3, r1, r3
 8000690:	4651      	mov	r1, sl
 8000692:	0002      	movs	r2, r0
 8000694:	40d9      	lsrs	r1, r3
 8000696:	4653      	mov	r3, sl
 8000698:	3a08      	subs	r2, #8
 800069a:	4094      	lsls	r4, r2
 800069c:	4093      	lsls	r3, r2
 800069e:	430c      	orrs	r4, r1
 80006a0:	4a1b      	ldr	r2, [pc, #108]	; (8000710 <__aeabi_dmul+0x1ec>)
 80006a2:	1a12      	subs	r2, r2, r0
 80006a4:	2000      	movs	r0, #0
 80006a6:	e77a      	b.n	800059e <__aeabi_dmul+0x7a>
 80006a8:	2501      	movs	r5, #1
 80006aa:	9b01      	ldr	r3, [sp, #4]
 80006ac:	4c14      	ldr	r4, [pc, #80]	; (8000700 <__aeabi_dmul+0x1dc>)
 80006ae:	401d      	ands	r5, r3
 80006b0:	2300      	movs	r3, #0
 80006b2:	2200      	movs	r2, #0
 80006b4:	4699      	mov	r9, r3
 80006b6:	e79c      	b.n	80005f2 <__aeabi_dmul+0xce>
 80006b8:	2400      	movs	r4, #0
 80006ba:	2200      	movs	r2, #0
 80006bc:	2001      	movs	r0, #1
 80006be:	e76e      	b.n	800059e <__aeabi_dmul+0x7a>
 80006c0:	4653      	mov	r3, sl
 80006c2:	2003      	movs	r0, #3
 80006c4:	e76b      	b.n	800059e <__aeabi_dmul+0x7a>
 80006c6:	2300      	movs	r3, #0
 80006c8:	469b      	mov	fp, r3
 80006ca:	3301      	adds	r3, #1
 80006cc:	2704      	movs	r7, #4
 80006ce:	2600      	movs	r6, #0
 80006d0:	9302      	str	r3, [sp, #8]
 80006d2:	e74c      	b.n	800056e <__aeabi_dmul+0x4a>
 80006d4:	2303      	movs	r3, #3
 80006d6:	4681      	mov	r9, r0
 80006d8:	270c      	movs	r7, #12
 80006da:	9302      	str	r3, [sp, #8]
 80006dc:	e747      	b.n	800056e <__aeabi_dmul+0x4a>
 80006de:	2280      	movs	r2, #128	; 0x80
 80006e0:	2300      	movs	r3, #0
 80006e2:	2500      	movs	r5, #0
 80006e4:	0312      	lsls	r2, r2, #12
 80006e6:	4699      	mov	r9, r3
 80006e8:	4c05      	ldr	r4, [pc, #20]	; (8000700 <__aeabi_dmul+0x1dc>)
 80006ea:	e782      	b.n	80005f2 <__aeabi_dmul+0xce>
 80006ec:	465c      	mov	r4, fp
 80006ee:	464b      	mov	r3, r9
 80006f0:	9802      	ldr	r0, [sp, #8]
 80006f2:	e76f      	b.n	80005d4 <__aeabi_dmul+0xb0>
 80006f4:	465c      	mov	r4, fp
 80006f6:	464b      	mov	r3, r9
 80006f8:	9501      	str	r5, [sp, #4]
 80006fa:	9802      	ldr	r0, [sp, #8]
 80006fc:	e76a      	b.n	80005d4 <__aeabi_dmul+0xb0>
 80006fe:	46c0      	nop			; (mov r8, r8)
 8000700:	000007ff 	.word	0x000007ff
 8000704:	fffffc01 	.word	0xfffffc01
 8000708:	08003dd0 	.word	0x08003dd0
 800070c:	800fffff 	.word	0x800fffff
 8000710:	fffffc0d 	.word	0xfffffc0d
 8000714:	464a      	mov	r2, r9
 8000716:	4649      	mov	r1, r9
 8000718:	0c17      	lsrs	r7, r2, #16
 800071a:	0c1a      	lsrs	r2, r3, #16
 800071c:	041b      	lsls	r3, r3, #16
 800071e:	0c1b      	lsrs	r3, r3, #16
 8000720:	0408      	lsls	r0, r1, #16
 8000722:	0019      	movs	r1, r3
 8000724:	0c00      	lsrs	r0, r0, #16
 8000726:	4341      	muls	r1, r0
 8000728:	0015      	movs	r5, r2
 800072a:	4688      	mov	r8, r1
 800072c:	0019      	movs	r1, r3
 800072e:	437d      	muls	r5, r7
 8000730:	4379      	muls	r1, r7
 8000732:	9503      	str	r5, [sp, #12]
 8000734:	4689      	mov	r9, r1
 8000736:	0029      	movs	r1, r5
 8000738:	0015      	movs	r5, r2
 800073a:	4345      	muls	r5, r0
 800073c:	444d      	add	r5, r9
 800073e:	9502      	str	r5, [sp, #8]
 8000740:	4645      	mov	r5, r8
 8000742:	0c2d      	lsrs	r5, r5, #16
 8000744:	46aa      	mov	sl, r5
 8000746:	9d02      	ldr	r5, [sp, #8]
 8000748:	4455      	add	r5, sl
 800074a:	45a9      	cmp	r9, r5
 800074c:	d906      	bls.n	800075c <__aeabi_dmul+0x238>
 800074e:	468a      	mov	sl, r1
 8000750:	2180      	movs	r1, #128	; 0x80
 8000752:	0249      	lsls	r1, r1, #9
 8000754:	4689      	mov	r9, r1
 8000756:	44ca      	add	sl, r9
 8000758:	4651      	mov	r1, sl
 800075a:	9103      	str	r1, [sp, #12]
 800075c:	0c29      	lsrs	r1, r5, #16
 800075e:	9104      	str	r1, [sp, #16]
 8000760:	4641      	mov	r1, r8
 8000762:	0409      	lsls	r1, r1, #16
 8000764:	042d      	lsls	r5, r5, #16
 8000766:	0c09      	lsrs	r1, r1, #16
 8000768:	4688      	mov	r8, r1
 800076a:	0029      	movs	r1, r5
 800076c:	0c25      	lsrs	r5, r4, #16
 800076e:	0424      	lsls	r4, r4, #16
 8000770:	4441      	add	r1, r8
 8000772:	0c24      	lsrs	r4, r4, #16
 8000774:	9105      	str	r1, [sp, #20]
 8000776:	0021      	movs	r1, r4
 8000778:	4341      	muls	r1, r0
 800077a:	4688      	mov	r8, r1
 800077c:	0021      	movs	r1, r4
 800077e:	4379      	muls	r1, r7
 8000780:	468a      	mov	sl, r1
 8000782:	4368      	muls	r0, r5
 8000784:	4641      	mov	r1, r8
 8000786:	4450      	add	r0, sl
 8000788:	4681      	mov	r9, r0
 800078a:	0c08      	lsrs	r0, r1, #16
 800078c:	4448      	add	r0, r9
 800078e:	436f      	muls	r7, r5
 8000790:	4582      	cmp	sl, r0
 8000792:	d903      	bls.n	800079c <__aeabi_dmul+0x278>
 8000794:	2180      	movs	r1, #128	; 0x80
 8000796:	0249      	lsls	r1, r1, #9
 8000798:	4689      	mov	r9, r1
 800079a:	444f      	add	r7, r9
 800079c:	0c01      	lsrs	r1, r0, #16
 800079e:	4689      	mov	r9, r1
 80007a0:	0039      	movs	r1, r7
 80007a2:	4449      	add	r1, r9
 80007a4:	9102      	str	r1, [sp, #8]
 80007a6:	4641      	mov	r1, r8
 80007a8:	040f      	lsls	r7, r1, #16
 80007aa:	9904      	ldr	r1, [sp, #16]
 80007ac:	0c3f      	lsrs	r7, r7, #16
 80007ae:	4688      	mov	r8, r1
 80007b0:	0400      	lsls	r0, r0, #16
 80007b2:	19c0      	adds	r0, r0, r7
 80007b4:	4480      	add	r8, r0
 80007b6:	4641      	mov	r1, r8
 80007b8:	9104      	str	r1, [sp, #16]
 80007ba:	4659      	mov	r1, fp
 80007bc:	0c0f      	lsrs	r7, r1, #16
 80007be:	0409      	lsls	r1, r1, #16
 80007c0:	0c09      	lsrs	r1, r1, #16
 80007c2:	4688      	mov	r8, r1
 80007c4:	4359      	muls	r1, r3
 80007c6:	468a      	mov	sl, r1
 80007c8:	0039      	movs	r1, r7
 80007ca:	4351      	muls	r1, r2
 80007cc:	4689      	mov	r9, r1
 80007ce:	4641      	mov	r1, r8
 80007d0:	434a      	muls	r2, r1
 80007d2:	4651      	mov	r1, sl
 80007d4:	0c09      	lsrs	r1, r1, #16
 80007d6:	468b      	mov	fp, r1
 80007d8:	437b      	muls	r3, r7
 80007da:	18d2      	adds	r2, r2, r3
 80007dc:	445a      	add	r2, fp
 80007de:	4293      	cmp	r3, r2
 80007e0:	d903      	bls.n	80007ea <__aeabi_dmul+0x2c6>
 80007e2:	2380      	movs	r3, #128	; 0x80
 80007e4:	025b      	lsls	r3, r3, #9
 80007e6:	469b      	mov	fp, r3
 80007e8:	44d9      	add	r9, fp
 80007ea:	4651      	mov	r1, sl
 80007ec:	0409      	lsls	r1, r1, #16
 80007ee:	0c09      	lsrs	r1, r1, #16
 80007f0:	468a      	mov	sl, r1
 80007f2:	4641      	mov	r1, r8
 80007f4:	4361      	muls	r1, r4
 80007f6:	437c      	muls	r4, r7
 80007f8:	0c13      	lsrs	r3, r2, #16
 80007fa:	0412      	lsls	r2, r2, #16
 80007fc:	444b      	add	r3, r9
 80007fe:	4452      	add	r2, sl
 8000800:	46a1      	mov	r9, r4
 8000802:	468a      	mov	sl, r1
 8000804:	003c      	movs	r4, r7
 8000806:	4641      	mov	r1, r8
 8000808:	436c      	muls	r4, r5
 800080a:	434d      	muls	r5, r1
 800080c:	4651      	mov	r1, sl
 800080e:	444d      	add	r5, r9
 8000810:	0c0f      	lsrs	r7, r1, #16
 8000812:	197d      	adds	r5, r7, r5
 8000814:	45a9      	cmp	r9, r5
 8000816:	d903      	bls.n	8000820 <__aeabi_dmul+0x2fc>
 8000818:	2180      	movs	r1, #128	; 0x80
 800081a:	0249      	lsls	r1, r1, #9
 800081c:	4688      	mov	r8, r1
 800081e:	4444      	add	r4, r8
 8000820:	9f04      	ldr	r7, [sp, #16]
 8000822:	9903      	ldr	r1, [sp, #12]
 8000824:	46b8      	mov	r8, r7
 8000826:	4441      	add	r1, r8
 8000828:	468b      	mov	fp, r1
 800082a:	4583      	cmp	fp, r0
 800082c:	4180      	sbcs	r0, r0
 800082e:	4241      	negs	r1, r0
 8000830:	4688      	mov	r8, r1
 8000832:	4651      	mov	r1, sl
 8000834:	0408      	lsls	r0, r1, #16
 8000836:	042f      	lsls	r7, r5, #16
 8000838:	0c00      	lsrs	r0, r0, #16
 800083a:	183f      	adds	r7, r7, r0
 800083c:	4658      	mov	r0, fp
 800083e:	9902      	ldr	r1, [sp, #8]
 8000840:	1810      	adds	r0, r2, r0
 8000842:	4689      	mov	r9, r1
 8000844:	4290      	cmp	r0, r2
 8000846:	4192      	sbcs	r2, r2
 8000848:	444f      	add	r7, r9
 800084a:	46ba      	mov	sl, r7
 800084c:	4252      	negs	r2, r2
 800084e:	4699      	mov	r9, r3
 8000850:	4693      	mov	fp, r2
 8000852:	44c2      	add	sl, r8
 8000854:	44d1      	add	r9, sl
 8000856:	44cb      	add	fp, r9
 8000858:	428f      	cmp	r7, r1
 800085a:	41bf      	sbcs	r7, r7
 800085c:	45c2      	cmp	sl, r8
 800085e:	4189      	sbcs	r1, r1
 8000860:	4599      	cmp	r9, r3
 8000862:	419b      	sbcs	r3, r3
 8000864:	4593      	cmp	fp, r2
 8000866:	4192      	sbcs	r2, r2
 8000868:	427f      	negs	r7, r7
 800086a:	4249      	negs	r1, r1
 800086c:	0c2d      	lsrs	r5, r5, #16
 800086e:	4252      	negs	r2, r2
 8000870:	430f      	orrs	r7, r1
 8000872:	425b      	negs	r3, r3
 8000874:	4313      	orrs	r3, r2
 8000876:	197f      	adds	r7, r7, r5
 8000878:	18ff      	adds	r7, r7, r3
 800087a:	465b      	mov	r3, fp
 800087c:	193c      	adds	r4, r7, r4
 800087e:	0ddb      	lsrs	r3, r3, #23
 8000880:	9a05      	ldr	r2, [sp, #20]
 8000882:	0264      	lsls	r4, r4, #9
 8000884:	431c      	orrs	r4, r3
 8000886:	0243      	lsls	r3, r0, #9
 8000888:	4313      	orrs	r3, r2
 800088a:	1e5d      	subs	r5, r3, #1
 800088c:	41ab      	sbcs	r3, r5
 800088e:	465a      	mov	r2, fp
 8000890:	0dc0      	lsrs	r0, r0, #23
 8000892:	4303      	orrs	r3, r0
 8000894:	0252      	lsls	r2, r2, #9
 8000896:	4313      	orrs	r3, r2
 8000898:	01e2      	lsls	r2, r4, #7
 800089a:	d556      	bpl.n	800094a <__aeabi_dmul+0x426>
 800089c:	2001      	movs	r0, #1
 800089e:	085a      	lsrs	r2, r3, #1
 80008a0:	4003      	ands	r3, r0
 80008a2:	4313      	orrs	r3, r2
 80008a4:	07e2      	lsls	r2, r4, #31
 80008a6:	4313      	orrs	r3, r2
 80008a8:	0864      	lsrs	r4, r4, #1
 80008aa:	485a      	ldr	r0, [pc, #360]	; (8000a14 <__aeabi_dmul+0x4f0>)
 80008ac:	4460      	add	r0, ip
 80008ae:	2800      	cmp	r0, #0
 80008b0:	dd4d      	ble.n	800094e <__aeabi_dmul+0x42a>
 80008b2:	075a      	lsls	r2, r3, #29
 80008b4:	d009      	beq.n	80008ca <__aeabi_dmul+0x3a6>
 80008b6:	220f      	movs	r2, #15
 80008b8:	401a      	ands	r2, r3
 80008ba:	2a04      	cmp	r2, #4
 80008bc:	d005      	beq.n	80008ca <__aeabi_dmul+0x3a6>
 80008be:	1d1a      	adds	r2, r3, #4
 80008c0:	429a      	cmp	r2, r3
 80008c2:	419b      	sbcs	r3, r3
 80008c4:	425b      	negs	r3, r3
 80008c6:	18e4      	adds	r4, r4, r3
 80008c8:	0013      	movs	r3, r2
 80008ca:	01e2      	lsls	r2, r4, #7
 80008cc:	d504      	bpl.n	80008d8 <__aeabi_dmul+0x3b4>
 80008ce:	2080      	movs	r0, #128	; 0x80
 80008d0:	4a51      	ldr	r2, [pc, #324]	; (8000a18 <__aeabi_dmul+0x4f4>)
 80008d2:	00c0      	lsls	r0, r0, #3
 80008d4:	4014      	ands	r4, r2
 80008d6:	4460      	add	r0, ip
 80008d8:	4a50      	ldr	r2, [pc, #320]	; (8000a1c <__aeabi_dmul+0x4f8>)
 80008da:	4290      	cmp	r0, r2
 80008dc:	dd00      	ble.n	80008e0 <__aeabi_dmul+0x3bc>
 80008de:	e6e3      	b.n	80006a8 <__aeabi_dmul+0x184>
 80008e0:	2501      	movs	r5, #1
 80008e2:	08db      	lsrs	r3, r3, #3
 80008e4:	0762      	lsls	r2, r4, #29
 80008e6:	431a      	orrs	r2, r3
 80008e8:	0264      	lsls	r4, r4, #9
 80008ea:	9b01      	ldr	r3, [sp, #4]
 80008ec:	4691      	mov	r9, r2
 80008ee:	0b22      	lsrs	r2, r4, #12
 80008f0:	0544      	lsls	r4, r0, #21
 80008f2:	0d64      	lsrs	r4, r4, #21
 80008f4:	401d      	ands	r5, r3
 80008f6:	e67c      	b.n	80005f2 <__aeabi_dmul+0xce>
 80008f8:	2280      	movs	r2, #128	; 0x80
 80008fa:	4659      	mov	r1, fp
 80008fc:	0312      	lsls	r2, r2, #12
 80008fe:	4211      	tst	r1, r2
 8000900:	d008      	beq.n	8000914 <__aeabi_dmul+0x3f0>
 8000902:	4214      	tst	r4, r2
 8000904:	d106      	bne.n	8000914 <__aeabi_dmul+0x3f0>
 8000906:	4322      	orrs	r2, r4
 8000908:	0312      	lsls	r2, r2, #12
 800090a:	0b12      	lsrs	r2, r2, #12
 800090c:	4645      	mov	r5, r8
 800090e:	4699      	mov	r9, r3
 8000910:	4c43      	ldr	r4, [pc, #268]	; (8000a20 <__aeabi_dmul+0x4fc>)
 8000912:	e66e      	b.n	80005f2 <__aeabi_dmul+0xce>
 8000914:	465b      	mov	r3, fp
 8000916:	431a      	orrs	r2, r3
 8000918:	0312      	lsls	r2, r2, #12
 800091a:	0b12      	lsrs	r2, r2, #12
 800091c:	4c40      	ldr	r4, [pc, #256]	; (8000a20 <__aeabi_dmul+0x4fc>)
 800091e:	e668      	b.n	80005f2 <__aeabi_dmul+0xce>
 8000920:	0003      	movs	r3, r0
 8000922:	4654      	mov	r4, sl
 8000924:	3b28      	subs	r3, #40	; 0x28
 8000926:	409c      	lsls	r4, r3
 8000928:	2300      	movs	r3, #0
 800092a:	e6b9      	b.n	80006a0 <__aeabi_dmul+0x17c>
 800092c:	f000 f90e 	bl	8000b4c <__clzsi2>
 8000930:	3020      	adds	r0, #32
 8000932:	e6a6      	b.n	8000682 <__aeabi_dmul+0x15e>
 8000934:	0003      	movs	r3, r0
 8000936:	3b28      	subs	r3, #40	; 0x28
 8000938:	409f      	lsls	r7, r3
 800093a:	2300      	movs	r3, #0
 800093c:	46bb      	mov	fp, r7
 800093e:	4699      	mov	r9, r3
 8000940:	e68a      	b.n	8000658 <__aeabi_dmul+0x134>
 8000942:	f000 f903 	bl	8000b4c <__clzsi2>
 8000946:	3020      	adds	r0, #32
 8000948:	e674      	b.n	8000634 <__aeabi_dmul+0x110>
 800094a:	46b4      	mov	ip, r6
 800094c:	e7ad      	b.n	80008aa <__aeabi_dmul+0x386>
 800094e:	2501      	movs	r5, #1
 8000950:	1a2a      	subs	r2, r5, r0
 8000952:	2a38      	cmp	r2, #56	; 0x38
 8000954:	dd06      	ble.n	8000964 <__aeabi_dmul+0x440>
 8000956:	9b01      	ldr	r3, [sp, #4]
 8000958:	2400      	movs	r4, #0
 800095a:	401d      	ands	r5, r3
 800095c:	2300      	movs	r3, #0
 800095e:	2200      	movs	r2, #0
 8000960:	4699      	mov	r9, r3
 8000962:	e646      	b.n	80005f2 <__aeabi_dmul+0xce>
 8000964:	2a1f      	cmp	r2, #31
 8000966:	dc21      	bgt.n	80009ac <__aeabi_dmul+0x488>
 8000968:	2520      	movs	r5, #32
 800096a:	0020      	movs	r0, r4
 800096c:	1aad      	subs	r5, r5, r2
 800096e:	001e      	movs	r6, r3
 8000970:	40ab      	lsls	r3, r5
 8000972:	40a8      	lsls	r0, r5
 8000974:	40d6      	lsrs	r6, r2
 8000976:	1e5d      	subs	r5, r3, #1
 8000978:	41ab      	sbcs	r3, r5
 800097a:	4330      	orrs	r0, r6
 800097c:	4318      	orrs	r0, r3
 800097e:	40d4      	lsrs	r4, r2
 8000980:	0743      	lsls	r3, r0, #29
 8000982:	d009      	beq.n	8000998 <__aeabi_dmul+0x474>
 8000984:	230f      	movs	r3, #15
 8000986:	4003      	ands	r3, r0
 8000988:	2b04      	cmp	r3, #4
 800098a:	d005      	beq.n	8000998 <__aeabi_dmul+0x474>
 800098c:	0003      	movs	r3, r0
 800098e:	1d18      	adds	r0, r3, #4
 8000990:	4298      	cmp	r0, r3
 8000992:	419b      	sbcs	r3, r3
 8000994:	425b      	negs	r3, r3
 8000996:	18e4      	adds	r4, r4, r3
 8000998:	0223      	lsls	r3, r4, #8
 800099a:	d521      	bpl.n	80009e0 <__aeabi_dmul+0x4bc>
 800099c:	2501      	movs	r5, #1
 800099e:	9b01      	ldr	r3, [sp, #4]
 80009a0:	2401      	movs	r4, #1
 80009a2:	401d      	ands	r5, r3
 80009a4:	2300      	movs	r3, #0
 80009a6:	2200      	movs	r2, #0
 80009a8:	4699      	mov	r9, r3
 80009aa:	e622      	b.n	80005f2 <__aeabi_dmul+0xce>
 80009ac:	251f      	movs	r5, #31
 80009ae:	0021      	movs	r1, r4
 80009b0:	426d      	negs	r5, r5
 80009b2:	1a28      	subs	r0, r5, r0
 80009b4:	40c1      	lsrs	r1, r0
 80009b6:	0008      	movs	r0, r1
 80009b8:	2a20      	cmp	r2, #32
 80009ba:	d01d      	beq.n	80009f8 <__aeabi_dmul+0x4d4>
 80009bc:	355f      	adds	r5, #95	; 0x5f
 80009be:	1aaa      	subs	r2, r5, r2
 80009c0:	4094      	lsls	r4, r2
 80009c2:	4323      	orrs	r3, r4
 80009c4:	1e5c      	subs	r4, r3, #1
 80009c6:	41a3      	sbcs	r3, r4
 80009c8:	2507      	movs	r5, #7
 80009ca:	4303      	orrs	r3, r0
 80009cc:	401d      	ands	r5, r3
 80009ce:	2200      	movs	r2, #0
 80009d0:	2d00      	cmp	r5, #0
 80009d2:	d009      	beq.n	80009e8 <__aeabi_dmul+0x4c4>
 80009d4:	220f      	movs	r2, #15
 80009d6:	2400      	movs	r4, #0
 80009d8:	401a      	ands	r2, r3
 80009da:	0018      	movs	r0, r3
 80009dc:	2a04      	cmp	r2, #4
 80009de:	d1d6      	bne.n	800098e <__aeabi_dmul+0x46a>
 80009e0:	0003      	movs	r3, r0
 80009e2:	0765      	lsls	r5, r4, #29
 80009e4:	0264      	lsls	r4, r4, #9
 80009e6:	0b22      	lsrs	r2, r4, #12
 80009e8:	08db      	lsrs	r3, r3, #3
 80009ea:	432b      	orrs	r3, r5
 80009ec:	2501      	movs	r5, #1
 80009ee:	4699      	mov	r9, r3
 80009f0:	9b01      	ldr	r3, [sp, #4]
 80009f2:	2400      	movs	r4, #0
 80009f4:	401d      	ands	r5, r3
 80009f6:	e5fc      	b.n	80005f2 <__aeabi_dmul+0xce>
 80009f8:	2400      	movs	r4, #0
 80009fa:	e7e2      	b.n	80009c2 <__aeabi_dmul+0x49e>
 80009fc:	2280      	movs	r2, #128	; 0x80
 80009fe:	2501      	movs	r5, #1
 8000a00:	0312      	lsls	r2, r2, #12
 8000a02:	4322      	orrs	r2, r4
 8000a04:	9901      	ldr	r1, [sp, #4]
 8000a06:	0312      	lsls	r2, r2, #12
 8000a08:	0b12      	lsrs	r2, r2, #12
 8000a0a:	400d      	ands	r5, r1
 8000a0c:	4699      	mov	r9, r3
 8000a0e:	4c04      	ldr	r4, [pc, #16]	; (8000a20 <__aeabi_dmul+0x4fc>)
 8000a10:	e5ef      	b.n	80005f2 <__aeabi_dmul+0xce>
 8000a12:	46c0      	nop			; (mov r8, r8)
 8000a14:	000003ff 	.word	0x000003ff
 8000a18:	feffffff 	.word	0xfeffffff
 8000a1c:	000007fe 	.word	0x000007fe
 8000a20:	000007ff 	.word	0x000007ff

08000a24 <__aeabi_i2d>:
 8000a24:	b570      	push	{r4, r5, r6, lr}
 8000a26:	2800      	cmp	r0, #0
 8000a28:	d030      	beq.n	8000a8c <__aeabi_i2d+0x68>
 8000a2a:	17c3      	asrs	r3, r0, #31
 8000a2c:	18c4      	adds	r4, r0, r3
 8000a2e:	405c      	eors	r4, r3
 8000a30:	0fc5      	lsrs	r5, r0, #31
 8000a32:	0020      	movs	r0, r4
 8000a34:	f000 f88a 	bl	8000b4c <__clzsi2>
 8000a38:	4b17      	ldr	r3, [pc, #92]	; (8000a98 <__aeabi_i2d+0x74>)
 8000a3a:	4a18      	ldr	r2, [pc, #96]	; (8000a9c <__aeabi_i2d+0x78>)
 8000a3c:	1a1b      	subs	r3, r3, r0
 8000a3e:	1ad2      	subs	r2, r2, r3
 8000a40:	2a1f      	cmp	r2, #31
 8000a42:	dd18      	ble.n	8000a76 <__aeabi_i2d+0x52>
 8000a44:	4a16      	ldr	r2, [pc, #88]	; (8000aa0 <__aeabi_i2d+0x7c>)
 8000a46:	1ad2      	subs	r2, r2, r3
 8000a48:	4094      	lsls	r4, r2
 8000a4a:	2200      	movs	r2, #0
 8000a4c:	0324      	lsls	r4, r4, #12
 8000a4e:	055b      	lsls	r3, r3, #21
 8000a50:	0b24      	lsrs	r4, r4, #12
 8000a52:	0d5b      	lsrs	r3, r3, #21
 8000a54:	2100      	movs	r1, #0
 8000a56:	0010      	movs	r0, r2
 8000a58:	0324      	lsls	r4, r4, #12
 8000a5a:	0d0a      	lsrs	r2, r1, #20
 8000a5c:	0b24      	lsrs	r4, r4, #12
 8000a5e:	0512      	lsls	r2, r2, #20
 8000a60:	4322      	orrs	r2, r4
 8000a62:	4c10      	ldr	r4, [pc, #64]	; (8000aa4 <__aeabi_i2d+0x80>)
 8000a64:	051b      	lsls	r3, r3, #20
 8000a66:	4022      	ands	r2, r4
 8000a68:	4313      	orrs	r3, r2
 8000a6a:	005b      	lsls	r3, r3, #1
 8000a6c:	07ed      	lsls	r5, r5, #31
 8000a6e:	085b      	lsrs	r3, r3, #1
 8000a70:	432b      	orrs	r3, r5
 8000a72:	0019      	movs	r1, r3
 8000a74:	bd70      	pop	{r4, r5, r6, pc}
 8000a76:	0021      	movs	r1, r4
 8000a78:	4091      	lsls	r1, r2
 8000a7a:	000a      	movs	r2, r1
 8000a7c:	210b      	movs	r1, #11
 8000a7e:	1a08      	subs	r0, r1, r0
 8000a80:	40c4      	lsrs	r4, r0
 8000a82:	055b      	lsls	r3, r3, #21
 8000a84:	0324      	lsls	r4, r4, #12
 8000a86:	0b24      	lsrs	r4, r4, #12
 8000a88:	0d5b      	lsrs	r3, r3, #21
 8000a8a:	e7e3      	b.n	8000a54 <__aeabi_i2d+0x30>
 8000a8c:	2500      	movs	r5, #0
 8000a8e:	2300      	movs	r3, #0
 8000a90:	2400      	movs	r4, #0
 8000a92:	2200      	movs	r2, #0
 8000a94:	e7de      	b.n	8000a54 <__aeabi_i2d+0x30>
 8000a96:	46c0      	nop			; (mov r8, r8)
 8000a98:	0000041e 	.word	0x0000041e
 8000a9c:	00000433 	.word	0x00000433
 8000aa0:	00000413 	.word	0x00000413
 8000aa4:	800fffff 	.word	0x800fffff

08000aa8 <__aeabi_f2d>:
 8000aa8:	0041      	lsls	r1, r0, #1
 8000aaa:	0e09      	lsrs	r1, r1, #24
 8000aac:	1c4b      	adds	r3, r1, #1
 8000aae:	b570      	push	{r4, r5, r6, lr}
 8000ab0:	b2db      	uxtb	r3, r3
 8000ab2:	0246      	lsls	r6, r0, #9
 8000ab4:	0a75      	lsrs	r5, r6, #9
 8000ab6:	0fc4      	lsrs	r4, r0, #31
 8000ab8:	2b01      	cmp	r3, #1
 8000aba:	dd14      	ble.n	8000ae6 <__aeabi_f2d+0x3e>
 8000abc:	23e0      	movs	r3, #224	; 0xe0
 8000abe:	009b      	lsls	r3, r3, #2
 8000ac0:	076d      	lsls	r5, r5, #29
 8000ac2:	0b36      	lsrs	r6, r6, #12
 8000ac4:	18cb      	adds	r3, r1, r3
 8000ac6:	2100      	movs	r1, #0
 8000ac8:	0d0a      	lsrs	r2, r1, #20
 8000aca:	0028      	movs	r0, r5
 8000acc:	0512      	lsls	r2, r2, #20
 8000ace:	4d1c      	ldr	r5, [pc, #112]	; (8000b40 <__aeabi_f2d+0x98>)
 8000ad0:	4332      	orrs	r2, r6
 8000ad2:	055b      	lsls	r3, r3, #21
 8000ad4:	402a      	ands	r2, r5
 8000ad6:	085b      	lsrs	r3, r3, #1
 8000ad8:	4313      	orrs	r3, r2
 8000ada:	005b      	lsls	r3, r3, #1
 8000adc:	07e4      	lsls	r4, r4, #31
 8000ade:	085b      	lsrs	r3, r3, #1
 8000ae0:	4323      	orrs	r3, r4
 8000ae2:	0019      	movs	r1, r3
 8000ae4:	bd70      	pop	{r4, r5, r6, pc}
 8000ae6:	2900      	cmp	r1, #0
 8000ae8:	d114      	bne.n	8000b14 <__aeabi_f2d+0x6c>
 8000aea:	2d00      	cmp	r5, #0
 8000aec:	d01e      	beq.n	8000b2c <__aeabi_f2d+0x84>
 8000aee:	0028      	movs	r0, r5
 8000af0:	f000 f82c 	bl	8000b4c <__clzsi2>
 8000af4:	280a      	cmp	r0, #10
 8000af6:	dc1c      	bgt.n	8000b32 <__aeabi_f2d+0x8a>
 8000af8:	230b      	movs	r3, #11
 8000afa:	002a      	movs	r2, r5
 8000afc:	1a1b      	subs	r3, r3, r0
 8000afe:	40da      	lsrs	r2, r3
 8000b00:	0003      	movs	r3, r0
 8000b02:	3315      	adds	r3, #21
 8000b04:	409d      	lsls	r5, r3
 8000b06:	4b0f      	ldr	r3, [pc, #60]	; (8000b44 <__aeabi_f2d+0x9c>)
 8000b08:	0312      	lsls	r2, r2, #12
 8000b0a:	1a1b      	subs	r3, r3, r0
 8000b0c:	055b      	lsls	r3, r3, #21
 8000b0e:	0b16      	lsrs	r6, r2, #12
 8000b10:	0d5b      	lsrs	r3, r3, #21
 8000b12:	e7d8      	b.n	8000ac6 <__aeabi_f2d+0x1e>
 8000b14:	2d00      	cmp	r5, #0
 8000b16:	d006      	beq.n	8000b26 <__aeabi_f2d+0x7e>
 8000b18:	0b32      	lsrs	r2, r6, #12
 8000b1a:	2680      	movs	r6, #128	; 0x80
 8000b1c:	0336      	lsls	r6, r6, #12
 8000b1e:	076d      	lsls	r5, r5, #29
 8000b20:	4316      	orrs	r6, r2
 8000b22:	4b09      	ldr	r3, [pc, #36]	; (8000b48 <__aeabi_f2d+0xa0>)
 8000b24:	e7cf      	b.n	8000ac6 <__aeabi_f2d+0x1e>
 8000b26:	4b08      	ldr	r3, [pc, #32]	; (8000b48 <__aeabi_f2d+0xa0>)
 8000b28:	2600      	movs	r6, #0
 8000b2a:	e7cc      	b.n	8000ac6 <__aeabi_f2d+0x1e>
 8000b2c:	2300      	movs	r3, #0
 8000b2e:	2600      	movs	r6, #0
 8000b30:	e7c9      	b.n	8000ac6 <__aeabi_f2d+0x1e>
 8000b32:	0003      	movs	r3, r0
 8000b34:	002a      	movs	r2, r5
 8000b36:	3b0b      	subs	r3, #11
 8000b38:	409a      	lsls	r2, r3
 8000b3a:	2500      	movs	r5, #0
 8000b3c:	e7e3      	b.n	8000b06 <__aeabi_f2d+0x5e>
 8000b3e:	46c0      	nop			; (mov r8, r8)
 8000b40:	800fffff 	.word	0x800fffff
 8000b44:	00000389 	.word	0x00000389
 8000b48:	000007ff 	.word	0x000007ff

08000b4c <__clzsi2>:
 8000b4c:	211c      	movs	r1, #28
 8000b4e:	2301      	movs	r3, #1
 8000b50:	041b      	lsls	r3, r3, #16
 8000b52:	4298      	cmp	r0, r3
 8000b54:	d301      	bcc.n	8000b5a <__clzsi2+0xe>
 8000b56:	0c00      	lsrs	r0, r0, #16
 8000b58:	3910      	subs	r1, #16
 8000b5a:	0a1b      	lsrs	r3, r3, #8
 8000b5c:	4298      	cmp	r0, r3
 8000b5e:	d301      	bcc.n	8000b64 <__clzsi2+0x18>
 8000b60:	0a00      	lsrs	r0, r0, #8
 8000b62:	3908      	subs	r1, #8
 8000b64:	091b      	lsrs	r3, r3, #4
 8000b66:	4298      	cmp	r0, r3
 8000b68:	d301      	bcc.n	8000b6e <__clzsi2+0x22>
 8000b6a:	0900      	lsrs	r0, r0, #4
 8000b6c:	3904      	subs	r1, #4
 8000b6e:	a202      	add	r2, pc, #8	; (adr r2, 8000b78 <__clzsi2+0x2c>)
 8000b70:	5c10      	ldrb	r0, [r2, r0]
 8000b72:	1840      	adds	r0, r0, r1
 8000b74:	4770      	bx	lr
 8000b76:	46c0      	nop			; (mov r8, r8)
 8000b78:	02020304 	.word	0x02020304
 8000b7c:	01010101 	.word	0x01010101
	...

08000b88 <HAL_InitTick>:
 8000b88:	b510      	push	{r4, lr}
 8000b8a:	0004      	movs	r4, r0
 8000b8c:	f000 ff38 	bl	8001a00 <HAL_RCC_GetHCLKFreq>
 8000b90:	21fa      	movs	r1, #250	; 0xfa
 8000b92:	0089      	lsls	r1, r1, #2
 8000b94:	f7ff faca 	bl	800012c <__udivsi3>
 8000b98:	f000 fab4 	bl	8001104 <HAL_SYSTICK_Config>
 8000b9c:	2001      	movs	r0, #1
 8000b9e:	2200      	movs	r2, #0
 8000ba0:	0021      	movs	r1, r4
 8000ba2:	4240      	negs	r0, r0
 8000ba4:	f000 fa74 	bl	8001090 <HAL_NVIC_SetPriority>
 8000ba8:	2000      	movs	r0, #0
 8000baa:	bd10      	pop	{r4, pc}

08000bac <HAL_Init>:
 8000bac:	2310      	movs	r3, #16
 8000bae:	4a06      	ldr	r2, [pc, #24]	; (8000bc8 <HAL_Init+0x1c>)
 8000bb0:	b510      	push	{r4, lr}
 8000bb2:	6811      	ldr	r1, [r2, #0]
 8000bb4:	2000      	movs	r0, #0
 8000bb6:	430b      	orrs	r3, r1
 8000bb8:	6013      	str	r3, [r2, #0]
 8000bba:	f7ff ffe5 	bl	8000b88 <HAL_InitTick>
 8000bbe:	f002 f8ef 	bl	8002da0 <HAL_MspInit>
 8000bc2:	2000      	movs	r0, #0
 8000bc4:	bd10      	pop	{r4, pc}
 8000bc6:	46c0      	nop			; (mov r8, r8)
 8000bc8:	40022000 	.word	0x40022000

08000bcc <HAL_IncTick>:
 8000bcc:	4a02      	ldr	r2, [pc, #8]	; (8000bd8 <HAL_IncTick+0xc>)
 8000bce:	6813      	ldr	r3, [r2, #0]
 8000bd0:	3301      	adds	r3, #1
 8000bd2:	6013      	str	r3, [r2, #0]
 8000bd4:	4770      	bx	lr
 8000bd6:	46c0      	nop			; (mov r8, r8)
 8000bd8:	20000158 	.word	0x20000158

08000bdc <HAL_GetTick>:
 8000bdc:	4b01      	ldr	r3, [pc, #4]	; (8000be4 <HAL_GetTick+0x8>)
 8000bde:	6818      	ldr	r0, [r3, #0]
 8000be0:	4770      	bx	lr
 8000be2:	46c0      	nop			; (mov r8, r8)
 8000be4:	20000158 	.word	0x20000158

08000be8 <ADC_Enable>:
 8000be8:	2300      	movs	r3, #0
 8000bea:	b573      	push	{r0, r1, r4, r5, r6, lr}
 8000bec:	2103      	movs	r1, #3
 8000bee:	9301      	str	r3, [sp, #4]
 8000bf0:	6803      	ldr	r3, [r0, #0]
 8000bf2:	0004      	movs	r4, r0
 8000bf4:	689a      	ldr	r2, [r3, #8]
 8000bf6:	400a      	ands	r2, r1
 8000bf8:	2a01      	cmp	r2, #1
 8000bfa:	d107      	bne.n	8000c0c <ADC_Enable+0x24>
 8000bfc:	6819      	ldr	r1, [r3, #0]
 8000bfe:	4211      	tst	r1, r2
 8000c00:	d001      	beq.n	8000c06 <ADC_Enable+0x1e>
 8000c02:	2000      	movs	r0, #0
 8000c04:	bd76      	pop	{r1, r2, r4, r5, r6, pc}
 8000c06:	68da      	ldr	r2, [r3, #12]
 8000c08:	0412      	lsls	r2, r2, #16
 8000c0a:	d4fa      	bmi.n	8000c02 <ADC_Enable+0x1a>
 8000c0c:	6899      	ldr	r1, [r3, #8]
 8000c0e:	4a19      	ldr	r2, [pc, #100]	; (8000c74 <ADC_Enable+0x8c>)
 8000c10:	4211      	tst	r1, r2
 8000c12:	d008      	beq.n	8000c26 <ADC_Enable+0x3e>
 8000c14:	2310      	movs	r3, #16
 8000c16:	2001      	movs	r0, #1
 8000c18:	6c62      	ldr	r2, [r4, #68]	; 0x44
 8000c1a:	4313      	orrs	r3, r2
 8000c1c:	6463      	str	r3, [r4, #68]	; 0x44
 8000c1e:	6ca3      	ldr	r3, [r4, #72]	; 0x48
 8000c20:	4303      	orrs	r3, r0
 8000c22:	64a3      	str	r3, [r4, #72]	; 0x48
 8000c24:	e7ee      	b.n	8000c04 <ADC_Enable+0x1c>
 8000c26:	2201      	movs	r2, #1
 8000c28:	6899      	ldr	r1, [r3, #8]
 8000c2a:	430a      	orrs	r2, r1
 8000c2c:	609a      	str	r2, [r3, #8]
 8000c2e:	4b12      	ldr	r3, [pc, #72]	; (8000c78 <ADC_Enable+0x90>)
 8000c30:	4912      	ldr	r1, [pc, #72]	; (8000c7c <ADC_Enable+0x94>)
 8000c32:	6818      	ldr	r0, [r3, #0]
 8000c34:	f7ff fa7a 	bl	800012c <__udivsi3>
 8000c38:	9001      	str	r0, [sp, #4]
 8000c3a:	9b01      	ldr	r3, [sp, #4]
 8000c3c:	2b00      	cmp	r3, #0
 8000c3e:	d115      	bne.n	8000c6c <ADC_Enable+0x84>
 8000c40:	f7ff ffcc 	bl	8000bdc <HAL_GetTick>
 8000c44:	2501      	movs	r5, #1
 8000c46:	0006      	movs	r6, r0
 8000c48:	6823      	ldr	r3, [r4, #0]
 8000c4a:	681b      	ldr	r3, [r3, #0]
 8000c4c:	422b      	tst	r3, r5
 8000c4e:	d1d8      	bne.n	8000c02 <ADC_Enable+0x1a>
 8000c50:	f7ff ffc4 	bl	8000bdc <HAL_GetTick>
 8000c54:	1b80      	subs	r0, r0, r6
 8000c56:	2802      	cmp	r0, #2
 8000c58:	d9f6      	bls.n	8000c48 <ADC_Enable+0x60>
 8000c5a:	2310      	movs	r3, #16
 8000c5c:	6c62      	ldr	r2, [r4, #68]	; 0x44
 8000c5e:	2001      	movs	r0, #1
 8000c60:	4313      	orrs	r3, r2
 8000c62:	6463      	str	r3, [r4, #68]	; 0x44
 8000c64:	6ca3      	ldr	r3, [r4, #72]	; 0x48
 8000c66:	432b      	orrs	r3, r5
 8000c68:	64a3      	str	r3, [r4, #72]	; 0x48
 8000c6a:	e7cb      	b.n	8000c04 <ADC_Enable+0x1c>
 8000c6c:	9b01      	ldr	r3, [sp, #4]
 8000c6e:	3b01      	subs	r3, #1
 8000c70:	9301      	str	r3, [sp, #4]
 8000c72:	e7e2      	b.n	8000c3a <ADC_Enable+0x52>
 8000c74:	80000017 	.word	0x80000017
 8000c78:	20000000 	.word	0x20000000
 8000c7c:	000f4240 	.word	0x000f4240

08000c80 <HAL_ADC_Init>:
 8000c80:	b5f8      	push	{r3, r4, r5, r6, r7, lr}
 8000c82:	0004      	movs	r4, r0
 8000c84:	2001      	movs	r0, #1
 8000c86:	2c00      	cmp	r4, #0
 8000c88:	d072      	beq.n	8000d70 <HAL_ADC_Init+0xf0>
 8000c8a:	6c63      	ldr	r3, [r4, #68]	; 0x44
 8000c8c:	2b00      	cmp	r3, #0
 8000c8e:	d106      	bne.n	8000c9e <HAL_ADC_Init+0x1e>
 8000c90:	0022      	movs	r2, r4
 8000c92:	3240      	adds	r2, #64	; 0x40
 8000c94:	64a3      	str	r3, [r4, #72]	; 0x48
 8000c96:	0020      	movs	r0, r4
 8000c98:	7013      	strb	r3, [r2, #0]
 8000c9a:	f002 f89f 	bl	8002ddc <HAL_ADC_MspInit>
 8000c9e:	6c63      	ldr	r3, [r4, #68]	; 0x44
 8000ca0:	06db      	lsls	r3, r3, #27
 8000ca2:	d500      	bpl.n	8000ca6 <HAL_ADC_Init+0x26>
 8000ca4:	e079      	b.n	8000d9a <HAL_ADC_Init+0x11a>
 8000ca6:	2204      	movs	r2, #4
 8000ca8:	6823      	ldr	r3, [r4, #0]
 8000caa:	6898      	ldr	r0, [r3, #8]
 8000cac:	4010      	ands	r0, r2
 8000cae:	d000      	beq.n	8000cb2 <HAL_ADC_Init+0x32>
 8000cb0:	e073      	b.n	8000d9a <HAL_ADC_Init+0x11a>
 8000cb2:	6c62      	ldr	r2, [r4, #68]	; 0x44
 8000cb4:	4942      	ldr	r1, [pc, #264]	; (8000dc0 <HAL_ADC_Init+0x140>)
 8000cb6:	4011      	ands	r1, r2
 8000cb8:	2202      	movs	r2, #2
 8000cba:	430a      	orrs	r2, r1
 8000cbc:	2103      	movs	r1, #3
 8000cbe:	6462      	str	r2, [r4, #68]	; 0x44
 8000cc0:	689a      	ldr	r2, [r3, #8]
 8000cc2:	400a      	ands	r2, r1
 8000cc4:	2a01      	cmp	r2, #1
 8000cc6:	d000      	beq.n	8000cca <HAL_ADC_Init+0x4a>
 8000cc8:	e06d      	b.n	8000da6 <HAL_ADC_Init+0x126>
 8000cca:	6819      	ldr	r1, [r3, #0]
 8000ccc:	4211      	tst	r1, r2
 8000cce:	d102      	bne.n	8000cd6 <HAL_ADC_Init+0x56>
 8000cd0:	68da      	ldr	r2, [r3, #12]
 8000cd2:	0412      	lsls	r2, r2, #16
 8000cd4:	d567      	bpl.n	8000da6 <HAL_ADC_Init+0x126>
 8000cd6:	68da      	ldr	r2, [r3, #12]
 8000cd8:	493a      	ldr	r1, [pc, #232]	; (8000dc4 <HAL_ADC_Init+0x144>)
 8000cda:	6a25      	ldr	r5, [r4, #32]
 8000cdc:	400a      	ands	r2, r1
 8000cde:	60da      	str	r2, [r3, #12]
 8000ce0:	69a2      	ldr	r2, [r4, #24]
 8000ce2:	036f      	lsls	r7, r5, #13
 8000ce4:	0391      	lsls	r1, r2, #14
 8000ce6:	69e2      	ldr	r2, [r4, #28]
 8000ce8:	03d2      	lsls	r2, r2, #15
 8000cea:	4311      	orrs	r1, r2
 8000cec:	6b62      	ldr	r2, [r4, #52]	; 0x34
 8000cee:	3a01      	subs	r2, #1
 8000cf0:	1e56      	subs	r6, r2, #1
 8000cf2:	41b2      	sbcs	r2, r6
 8000cf4:	0316      	lsls	r6, r2, #12
 8000cf6:	68e2      	ldr	r2, [r4, #12]
 8000cf8:	4311      	orrs	r1, r2
 8000cfa:	6922      	ldr	r2, [r4, #16]
 8000cfc:	430f      	orrs	r7, r1
 8000cfe:	2a02      	cmp	r2, #2
 8000d00:	d100      	bne.n	8000d04 <HAL_ADC_Init+0x84>
 8000d02:	2004      	movs	r0, #4
 8000d04:	6b22      	ldr	r2, [r4, #48]	; 0x30
 8000d06:	6a61      	ldr	r1, [r4, #36]	; 0x24
 8000d08:	0052      	lsls	r2, r2, #1
 8000d0a:	433a      	orrs	r2, r7
 8000d0c:	4332      	orrs	r2, r6
 8000d0e:	4302      	orrs	r2, r0
 8000d10:	2901      	cmp	r1, #1
 8000d12:	d104      	bne.n	8000d1e <HAL_ADC_Init+0x9e>
 8000d14:	2d00      	cmp	r5, #0
 8000d16:	d12c      	bne.n	8000d72 <HAL_ADC_Init+0xf2>
 8000d18:	2180      	movs	r1, #128	; 0x80
 8000d1a:	0249      	lsls	r1, r1, #9
 8000d1c:	430a      	orrs	r2, r1
 8000d1e:	20c2      	movs	r0, #194	; 0xc2
 8000d20:	6aa1      	ldr	r1, [r4, #40]	; 0x28
 8000d22:	30ff      	adds	r0, #255	; 0xff
 8000d24:	4281      	cmp	r1, r0
 8000d26:	d002      	beq.n	8000d2e <HAL_ADC_Init+0xae>
 8000d28:	6ae0      	ldr	r0, [r4, #44]	; 0x2c
 8000d2a:	4301      	orrs	r1, r0
 8000d2c:	430a      	orrs	r2, r1
 8000d2e:	2080      	movs	r0, #128	; 0x80
 8000d30:	68d9      	ldr	r1, [r3, #12]
 8000d32:	0540      	lsls	r0, r0, #21
 8000d34:	4311      	orrs	r1, r2
 8000d36:	60d9      	str	r1, [r3, #12]
 8000d38:	6ba1      	ldr	r1, [r4, #56]	; 0x38
 8000d3a:	4281      	cmp	r1, r0
 8000d3c:	d002      	beq.n	8000d44 <HAL_ADC_Init+0xc4>
 8000d3e:	1e48      	subs	r0, r1, #1
 8000d40:	2806      	cmp	r0, #6
 8000d42:	d807      	bhi.n	8000d54 <HAL_ADC_Init+0xd4>
 8000d44:	2507      	movs	r5, #7
 8000d46:	6958      	ldr	r0, [r3, #20]
 8000d48:	4029      	ands	r1, r5
 8000d4a:	43a8      	bics	r0, r5
 8000d4c:	6158      	str	r0, [r3, #20]
 8000d4e:	6958      	ldr	r0, [r3, #20]
 8000d50:	4301      	orrs	r1, r0
 8000d52:	6159      	str	r1, [r3, #20]
 8000d54:	68db      	ldr	r3, [r3, #12]
 8000d56:	491c      	ldr	r1, [pc, #112]	; (8000dc8 <HAL_ADC_Init+0x148>)
 8000d58:	400b      	ands	r3, r1
 8000d5a:	429a      	cmp	r2, r3
 8000d5c:	d111      	bne.n	8000d82 <HAL_ADC_Init+0x102>
 8000d5e:	2000      	movs	r0, #0
 8000d60:	2203      	movs	r2, #3
 8000d62:	64a0      	str	r0, [r4, #72]	; 0x48
 8000d64:	6c63      	ldr	r3, [r4, #68]	; 0x44
 8000d66:	4393      	bics	r3, r2
 8000d68:	001a      	movs	r2, r3
 8000d6a:	2301      	movs	r3, #1
 8000d6c:	4313      	orrs	r3, r2
 8000d6e:	6463      	str	r3, [r4, #68]	; 0x44
 8000d70:	bdf8      	pop	{r3, r4, r5, r6, r7, pc}
 8000d72:	2020      	movs	r0, #32
 8000d74:	6c65      	ldr	r5, [r4, #68]	; 0x44
 8000d76:	4328      	orrs	r0, r5
 8000d78:	6460      	str	r0, [r4, #68]	; 0x44
 8000d7a:	6ca0      	ldr	r0, [r4, #72]	; 0x48
 8000d7c:	4301      	orrs	r1, r0
 8000d7e:	64a1      	str	r1, [r4, #72]	; 0x48
 8000d80:	e7cd      	b.n	8000d1e <HAL_ADC_Init+0x9e>
 8000d82:	2212      	movs	r2, #18
 8000d84:	6c63      	ldr	r3, [r4, #68]	; 0x44
 8000d86:	2001      	movs	r0, #1
 8000d88:	4393      	bics	r3, r2
 8000d8a:	001a      	movs	r2, r3
 8000d8c:	2310      	movs	r3, #16
 8000d8e:	4313      	orrs	r3, r2
 8000d90:	6463      	str	r3, [r4, #68]	; 0x44
 8000d92:	6ca3      	ldr	r3, [r4, #72]	; 0x48
 8000d94:	4303      	orrs	r3, r0
 8000d96:	64a3      	str	r3, [r4, #72]	; 0x48
 8000d98:	e7ea      	b.n	8000d70 <HAL_ADC_Init+0xf0>
 8000d9a:	2310      	movs	r3, #16
 8000d9c:	6c62      	ldr	r2, [r4, #68]	; 0x44
 8000d9e:	2001      	movs	r0, #1
 8000da0:	4313      	orrs	r3, r2
 8000da2:	6463      	str	r3, [r4, #68]	; 0x44
 8000da4:	e7e4      	b.n	8000d70 <HAL_ADC_Init+0xf0>
 8000da6:	2118      	movs	r1, #24
 8000da8:	68da      	ldr	r2, [r3, #12]
 8000daa:	438a      	bics	r2, r1
 8000dac:	68a1      	ldr	r1, [r4, #8]
 8000dae:	430a      	orrs	r2, r1
 8000db0:	60da      	str	r2, [r3, #12]
 8000db2:	6919      	ldr	r1, [r3, #16]
 8000db4:	6862      	ldr	r2, [r4, #4]
 8000db6:	0089      	lsls	r1, r1, #2
 8000db8:	0889      	lsrs	r1, r1, #2
 8000dba:	4311      	orrs	r1, r2
 8000dbc:	6119      	str	r1, [r3, #16]
 8000dbe:	e78a      	b.n	8000cd6 <HAL_ADC_Init+0x56>
 8000dc0:	fffffefd 	.word	0xfffffefd
 8000dc4:	fffe0219 	.word	0xfffe0219
 8000dc8:	833fffe7 	.word	0x833fffe7

08000dcc <HAL_ADC_Start_DMA>:
 8000dcc:	b5f7      	push	{r0, r1, r2, r4, r5, r6, r7, lr}
 8000dce:	6803      	ldr	r3, [r0, #0]
 8000dd0:	0004      	movs	r4, r0
 8000dd2:	689b      	ldr	r3, [r3, #8]
 8000dd4:	000f      	movs	r7, r1
 8000dd6:	9201      	str	r2, [sp, #4]
 8000dd8:	2002      	movs	r0, #2
 8000dda:	075b      	lsls	r3, r3, #29
 8000ddc:	d430      	bmi.n	8000e40 <HAL_ADC_Start_DMA+0x74>
 8000dde:	0026      	movs	r6, r4
 8000de0:	3640      	adds	r6, #64	; 0x40
 8000de2:	7833      	ldrb	r3, [r6, #0]
 8000de4:	2b01      	cmp	r3, #1
 8000de6:	d02b      	beq.n	8000e40 <HAL_ADC_Start_DMA+0x74>
 8000de8:	2301      	movs	r3, #1
 8000dea:	7033      	strb	r3, [r6, #0]
 8000dec:	69e3      	ldr	r3, [r4, #28]
 8000dee:	2b01      	cmp	r3, #1
 8000df0:	d127      	bne.n	8000e42 <HAL_ADC_Start_DMA+0x76>
 8000df2:	6c63      	ldr	r3, [r4, #68]	; 0x44
 8000df4:	4a16      	ldr	r2, [pc, #88]	; (8000e50 <HAL_ADC_Start_DMA+0x84>)
 8000df6:	2500      	movs	r5, #0
 8000df8:	401a      	ands	r2, r3
 8000dfa:	2380      	movs	r3, #128	; 0x80
 8000dfc:	005b      	lsls	r3, r3, #1
 8000dfe:	4313      	orrs	r3, r2
 8000e00:	6463      	str	r3, [r4, #68]	; 0x44
 8000e02:	6be0      	ldr	r0, [r4, #60]	; 0x3c
 8000e04:	4b13      	ldr	r3, [pc, #76]	; (8000e54 <HAL_ADC_Start_DMA+0x88>)
 8000e06:	64a5      	str	r5, [r4, #72]	; 0x48
 8000e08:	7035      	strb	r5, [r6, #0]
 8000e0a:	6283      	str	r3, [r0, #40]	; 0x28
 8000e0c:	4b12      	ldr	r3, [pc, #72]	; (8000e58 <HAL_ADC_Start_DMA+0x8c>)
 8000e0e:	6821      	ldr	r1, [r4, #0]
 8000e10:	62c3      	str	r3, [r0, #44]	; 0x2c
 8000e12:	4b12      	ldr	r3, [pc, #72]	; (8000e5c <HAL_ADC_Start_DMA+0x90>)
 8000e14:	6303      	str	r3, [r0, #48]	; 0x30
 8000e16:	231c      	movs	r3, #28
 8000e18:	600b      	str	r3, [r1, #0]
 8000e1a:	684a      	ldr	r2, [r1, #4]
 8000e1c:	3b0c      	subs	r3, #12
 8000e1e:	4313      	orrs	r3, r2
 8000e20:	604b      	str	r3, [r1, #4]
 8000e22:	2301      	movs	r3, #1
 8000e24:	68ca      	ldr	r2, [r1, #12]
 8000e26:	4313      	orrs	r3, r2
 8000e28:	60cb      	str	r3, [r1, #12]
 8000e2a:	003a      	movs	r2, r7
 8000e2c:	3140      	adds	r1, #64	; 0x40
 8000e2e:	9b01      	ldr	r3, [sp, #4]
 8000e30:	f000 f9cc 	bl	80011cc <HAL_DMA_Start_IT>
 8000e34:	2304      	movs	r3, #4
 8000e36:	0028      	movs	r0, r5
 8000e38:	6822      	ldr	r2, [r4, #0]
 8000e3a:	6891      	ldr	r1, [r2, #8]
 8000e3c:	430b      	orrs	r3, r1
 8000e3e:	6093      	str	r3, [r2, #8]
 8000e40:	bdfe      	pop	{r1, r2, r3, r4, r5, r6, r7, pc}
 8000e42:	0020      	movs	r0, r4
 8000e44:	f7ff fed0 	bl	8000be8 <ADC_Enable>
 8000e48:	2800      	cmp	r0, #0
 8000e4a:	d1f9      	bne.n	8000e40 <HAL_ADC_Start_DMA+0x74>
 8000e4c:	e7d1      	b.n	8000df2 <HAL_ADC_Start_DMA+0x26>
 8000e4e:	46c0      	nop			; (mov r8, r8)
 8000e50:	fffff0fe 	.word	0xfffff0fe
 8000e54:	08000e65 	.word	0x08000e65
 8000e58:	08000ed7 	.word	0x08000ed7
 8000e5c:	08000ee3 	.word	0x08000ee3

08000e60 <HAL_ADC_ConvCpltCallback>:
 8000e60:	4770      	bx	lr
	...

08000e64 <ADC_DMAConvCplt>:
 8000e64:	2250      	movs	r2, #80	; 0x50
 8000e66:	6a43      	ldr	r3, [r0, #36]	; 0x24
 8000e68:	b510      	push	{r4, lr}
 8000e6a:	6c59      	ldr	r1, [r3, #68]	; 0x44
 8000e6c:	4211      	tst	r1, r2
 8000e6e:	d12a      	bne.n	8000ec6 <ADC_DMAConvCplt+0x62>
 8000e70:	6c59      	ldr	r1, [r3, #68]	; 0x44
 8000e72:	32b1      	adds	r2, #177	; 0xb1
 8000e74:	32ff      	adds	r2, #255	; 0xff
 8000e76:	430a      	orrs	r2, r1
 8000e78:	21c0      	movs	r1, #192	; 0xc0
 8000e7a:	645a      	str	r2, [r3, #68]	; 0x44
 8000e7c:	681a      	ldr	r2, [r3, #0]
 8000e7e:	0109      	lsls	r1, r1, #4
 8000e80:	68d0      	ldr	r0, [r2, #12]
 8000e82:	4208      	tst	r0, r1
 8000e84:	d112      	bne.n	8000eac <ADC_DMAConvCplt+0x48>
 8000e86:	6a19      	ldr	r1, [r3, #32]
 8000e88:	2900      	cmp	r1, #0
 8000e8a:	d10f      	bne.n	8000eac <ADC_DMAConvCplt+0x48>
 8000e8c:	6811      	ldr	r1, [r2, #0]
 8000e8e:	0709      	lsls	r1, r1, #28
 8000e90:	d50c      	bpl.n	8000eac <ADC_DMAConvCplt+0x48>
 8000e92:	6891      	ldr	r1, [r2, #8]
 8000e94:	0749      	lsls	r1, r1, #29
 8000e96:	d40d      	bmi.n	8000eb4 <ADC_DMAConvCplt+0x50>
 8000e98:	200c      	movs	r0, #12
 8000e9a:	6851      	ldr	r1, [r2, #4]
 8000e9c:	4381      	bics	r1, r0
 8000e9e:	6051      	str	r1, [r2, #4]
 8000ea0:	6c5a      	ldr	r2, [r3, #68]	; 0x44
 8000ea2:	490b      	ldr	r1, [pc, #44]	; (8000ed0 <ADC_DMAConvCplt+0x6c>)
 8000ea4:	4011      	ands	r1, r2
 8000ea6:	2201      	movs	r2, #1
 8000ea8:	430a      	orrs	r2, r1
 8000eaa:	645a      	str	r2, [r3, #68]	; 0x44
 8000eac:	0018      	movs	r0, r3
 8000eae:	f7ff ffd7 	bl	8000e60 <HAL_ADC_ConvCpltCallback>
 8000eb2:	bd10      	pop	{r4, pc}
 8000eb4:	2220      	movs	r2, #32
 8000eb6:	6c59      	ldr	r1, [r3, #68]	; 0x44
 8000eb8:	430a      	orrs	r2, r1
 8000eba:	645a      	str	r2, [r3, #68]	; 0x44
 8000ebc:	2201      	movs	r2, #1
 8000ebe:	6c99      	ldr	r1, [r3, #72]	; 0x48
 8000ec0:	430a      	orrs	r2, r1
 8000ec2:	649a      	str	r2, [r3, #72]	; 0x48
 8000ec4:	e7f2      	b.n	8000eac <ADC_DMAConvCplt+0x48>
 8000ec6:	6bdb      	ldr	r3, [r3, #60]	; 0x3c
 8000ec8:	6b1b      	ldr	r3, [r3, #48]	; 0x30
 8000eca:	4798      	blx	r3
 8000ecc:	e7f1      	b.n	8000eb2 <ADC_DMAConvCplt+0x4e>
 8000ece:	46c0      	nop			; (mov r8, r8)
 8000ed0:	fffffefe 	.word	0xfffffefe

08000ed4 <HAL_ADC_ConvHalfCpltCallback>:
 8000ed4:	4770      	bx	lr

08000ed6 <ADC_DMAHalfConvCplt>:
 8000ed6:	b510      	push	{r4, lr}
 8000ed8:	6a40      	ldr	r0, [r0, #36]	; 0x24
 8000eda:	f7ff fffb 	bl	8000ed4 <HAL_ADC_ConvHalfCpltCallback>
 8000ede:	bd10      	pop	{r4, pc}

08000ee0 <HAL_ADC_ErrorCallback>:
 8000ee0:	4770      	bx	lr

08000ee2 <ADC_DMAError>:
 8000ee2:	2340      	movs	r3, #64	; 0x40
 8000ee4:	6a40      	ldr	r0, [r0, #36]	; 0x24
 8000ee6:	b510      	push	{r4, lr}
 8000ee8:	6c42      	ldr	r2, [r0, #68]	; 0x44
 8000eea:	4313      	orrs	r3, r2
 8000eec:	6443      	str	r3, [r0, #68]	; 0x44
 8000eee:	2304      	movs	r3, #4
 8000ef0:	6c82      	ldr	r2, [r0, #72]	; 0x48
 8000ef2:	4313      	orrs	r3, r2
 8000ef4:	6483      	str	r3, [r0, #72]	; 0x48
 8000ef6:	f7ff fff3 	bl	8000ee0 <HAL_ADC_ErrorCallback>
 8000efa:	bd10      	pop	{r4, pc}

08000efc <HAL_ADC_ConfigChannel>:
 8000efc:	b5f7      	push	{r0, r1, r2, r4, r5, r6, r7, lr}
 8000efe:	2300      	movs	r3, #0
 8000f00:	0004      	movs	r4, r0
 8000f02:	9301      	str	r3, [sp, #4]
 8000f04:	3440      	adds	r4, #64	; 0x40
 8000f06:	7823      	ldrb	r3, [r4, #0]
 8000f08:	0005      	movs	r5, r0
 8000f0a:	2002      	movs	r0, #2
 8000f0c:	2b01      	cmp	r3, #1
 8000f0e:	d02b      	beq.n	8000f68 <HAL_ADC_ConfigChannel+0x6c>
 8000f10:	2301      	movs	r3, #1
 8000f12:	682a      	ldr	r2, [r5, #0]
 8000f14:	6bae      	ldr	r6, [r5, #56]	; 0x38
 8000f16:	6890      	ldr	r0, [r2, #8]
 8000f18:	7023      	strb	r3, [r4, #0]
 8000f1a:	0740      	lsls	r0, r0, #29
 8000f1c:	d452      	bmi.n	8000fc4 <HAL_ADC_ConfigChannel+0xc8>
 8000f1e:	482c      	ldr	r0, [pc, #176]	; (8000fd0 <HAL_ADC_ConfigChannel+0xd4>)
 8000f20:	684f      	ldr	r7, [r1, #4]
 8000f22:	680d      	ldr	r5, [r1, #0]
 8000f24:	4287      	cmp	r7, r0
 8000f26:	d03b      	beq.n	8000fa0 <HAL_ADC_ConfigChannel+0xa4>
 8000f28:	40ab      	lsls	r3, r5
 8000f2a:	0018      	movs	r0, r3
 8000f2c:	2380      	movs	r3, #128	; 0x80
 8000f2e:	6a97      	ldr	r7, [r2, #40]	; 0x28
 8000f30:	055b      	lsls	r3, r3, #21
 8000f32:	4338      	orrs	r0, r7
 8000f34:	6290      	str	r0, [r2, #40]	; 0x28
 8000f36:	429e      	cmp	r6, r3
 8000f38:	d00f      	beq.n	8000f5a <HAL_ADC_ConfigChannel+0x5e>
 8000f3a:	3e01      	subs	r6, #1
 8000f3c:	2e06      	cmp	r6, #6
 8000f3e:	d90c      	bls.n	8000f5a <HAL_ADC_ConfigChannel+0x5e>
 8000f40:	688b      	ldr	r3, [r1, #8]
 8000f42:	2107      	movs	r1, #7
 8000f44:	6950      	ldr	r0, [r2, #20]
 8000f46:	4008      	ands	r0, r1
 8000f48:	4283      	cmp	r3, r0
 8000f4a:	d006      	beq.n	8000f5a <HAL_ADC_ConfigChannel+0x5e>
 8000f4c:	6950      	ldr	r0, [r2, #20]
 8000f4e:	400b      	ands	r3, r1
 8000f50:	4388      	bics	r0, r1
 8000f52:	6150      	str	r0, [r2, #20]
 8000f54:	6950      	ldr	r0, [r2, #20]
 8000f56:	4303      	orrs	r3, r0
 8000f58:	6153      	str	r3, [r2, #20]
 8000f5a:	002b      	movs	r3, r5
 8000f5c:	3b10      	subs	r3, #16
 8000f5e:	2b01      	cmp	r3, #1
 8000f60:	d903      	bls.n	8000f6a <HAL_ADC_ConfigChannel+0x6e>
 8000f62:	2000      	movs	r0, #0
 8000f64:	2300      	movs	r3, #0
 8000f66:	7023      	strb	r3, [r4, #0]
 8000f68:	bdfe      	pop	{r1, r2, r3, r4, r5, r6, r7, pc}
 8000f6a:	4b1a      	ldr	r3, [pc, #104]	; (8000fd4 <HAL_ADC_ConfigChannel+0xd8>)
 8000f6c:	2280      	movs	r2, #128	; 0x80
 8000f6e:	6819      	ldr	r1, [r3, #0]
 8000f70:	2d10      	cmp	r5, #16
 8000f72:	d013      	beq.n	8000f9c <HAL_ADC_ConfigChannel+0xa0>
 8000f74:	03d2      	lsls	r2, r2, #15
 8000f76:	430a      	orrs	r2, r1
 8000f78:	601a      	str	r2, [r3, #0]
 8000f7a:	2d10      	cmp	r5, #16
 8000f7c:	d1f1      	bne.n	8000f62 <HAL_ADC_ConfigChannel+0x66>
 8000f7e:	4b16      	ldr	r3, [pc, #88]	; (8000fd8 <HAL_ADC_ConfigChannel+0xdc>)
 8000f80:	4916      	ldr	r1, [pc, #88]	; (8000fdc <HAL_ADC_ConfigChannel+0xe0>)
 8000f82:	6818      	ldr	r0, [r3, #0]
 8000f84:	f7ff f8d2 	bl	800012c <__udivsi3>
 8000f88:	230a      	movs	r3, #10
 8000f8a:	4358      	muls	r0, r3
 8000f8c:	9001      	str	r0, [sp, #4]
 8000f8e:	9b01      	ldr	r3, [sp, #4]
 8000f90:	2b00      	cmp	r3, #0
 8000f92:	d0e6      	beq.n	8000f62 <HAL_ADC_ConfigChannel+0x66>
 8000f94:	9b01      	ldr	r3, [sp, #4]
 8000f96:	3b01      	subs	r3, #1
 8000f98:	9301      	str	r3, [sp, #4]
 8000f9a:	e7f8      	b.n	8000f8e <HAL_ADC_ConfigChannel+0x92>
 8000f9c:	0412      	lsls	r2, r2, #16
 8000f9e:	e7ea      	b.n	8000f76 <HAL_ADC_ConfigChannel+0x7a>
 8000fa0:	40ab      	lsls	r3, r5
 8000fa2:	6a91      	ldr	r1, [r2, #40]	; 0x28
 8000fa4:	4399      	bics	r1, r3
 8000fa6:	002b      	movs	r3, r5
 8000fa8:	3b10      	subs	r3, #16
 8000faa:	6291      	str	r1, [r2, #40]	; 0x28
 8000fac:	2b01      	cmp	r3, #1
 8000fae:	d8d8      	bhi.n	8000f62 <HAL_ADC_ConfigChannel+0x66>
 8000fb0:	4b08      	ldr	r3, [pc, #32]	; (8000fd4 <HAL_ADC_ConfigChannel+0xd8>)
 8000fb2:	681a      	ldr	r2, [r3, #0]
 8000fb4:	2d10      	cmp	r5, #16
 8000fb6:	d003      	beq.n	8000fc0 <HAL_ADC_ConfigChannel+0xc4>
 8000fb8:	4909      	ldr	r1, [pc, #36]	; (8000fe0 <HAL_ADC_ConfigChannel+0xe4>)
 8000fba:	400a      	ands	r2, r1
 8000fbc:	601a      	str	r2, [r3, #0]
 8000fbe:	e7d0      	b.n	8000f62 <HAL_ADC_ConfigChannel+0x66>
 8000fc0:	4908      	ldr	r1, [pc, #32]	; (8000fe4 <HAL_ADC_ConfigChannel+0xe8>)
 8000fc2:	e7fa      	b.n	8000fba <HAL_ADC_ConfigChannel+0xbe>
 8000fc4:	2220      	movs	r2, #32
 8000fc6:	6c69      	ldr	r1, [r5, #68]	; 0x44
 8000fc8:	0018      	movs	r0, r3
 8000fca:	430a      	orrs	r2, r1
 8000fcc:	646a      	str	r2, [r5, #68]	; 0x44
 8000fce:	e7c9      	b.n	8000f64 <HAL_ADC_ConfigChannel+0x68>
 8000fd0:	00001001 	.word	0x00001001
 8000fd4:	40012708 	.word	0x40012708
 8000fd8:	20000000 	.word	0x20000000
 8000fdc:	000f4240 	.word	0x000f4240
 8000fe0:	ffbfffff 	.word	0xffbfffff
 8000fe4:	ff7fffff 	.word	0xff7fffff

08000fe8 <HAL_ADCEx_Calibration_Start>:
 8000fe8:	b5f8      	push	{r3, r4, r5, r6, r7, lr}
 8000fea:	0006      	movs	r6, r0
 8000fec:	3640      	adds	r6, #64	; 0x40
 8000fee:	7833      	ldrb	r3, [r6, #0]
 8000ff0:	0004      	movs	r4, r0
 8000ff2:	2002      	movs	r0, #2
 8000ff4:	2b01      	cmp	r3, #1
 8000ff6:	d042      	beq.n	800107e <HAL_ADCEx_Calibration_Start+0x96>
 8000ff8:	2301      	movs	r3, #1
 8000ffa:	2103      	movs	r1, #3
 8000ffc:	7033      	strb	r3, [r6, #0]
 8000ffe:	6823      	ldr	r3, [r4, #0]
 8001000:	689a      	ldr	r2, [r3, #8]
 8001002:	400a      	ands	r2, r1
 8001004:	2a01      	cmp	r2, #1
 8001006:	d105      	bne.n	8001014 <HAL_ADCEx_Calibration_Start+0x2c>
 8001008:	6819      	ldr	r1, [r3, #0]
 800100a:	4211      	tst	r1, r2
 800100c:	d138      	bne.n	8001080 <HAL_ADCEx_Calibration_Start+0x98>
 800100e:	68da      	ldr	r2, [r3, #12]
 8001010:	0412      	lsls	r2, r2, #16
 8001012:	d435      	bmi.n	8001080 <HAL_ADCEx_Calibration_Start+0x98>
 8001014:	6c62      	ldr	r2, [r4, #68]	; 0x44
 8001016:	491d      	ldr	r1, [pc, #116]	; (800108c <HAL_ADCEx_Calibration_Start+0xa4>)
 8001018:	4011      	ands	r1, r2
 800101a:	2202      	movs	r2, #2
 800101c:	430a      	orrs	r2, r1
 800101e:	2103      	movs	r1, #3
 8001020:	6462      	str	r2, [r4, #68]	; 0x44
 8001022:	68dd      	ldr	r5, [r3, #12]
 8001024:	68da      	ldr	r2, [r3, #12]
 8001026:	438a      	bics	r2, r1
 8001028:	60da      	str	r2, [r3, #12]
 800102a:	2280      	movs	r2, #128	; 0x80
 800102c:	6899      	ldr	r1, [r3, #8]
 800102e:	0612      	lsls	r2, r2, #24
 8001030:	430a      	orrs	r2, r1
 8001032:	609a      	str	r2, [r3, #8]
 8001034:	f7ff fdd2 	bl	8000bdc <HAL_GetTick>
 8001038:	0007      	movs	r7, r0
 800103a:	6823      	ldr	r3, [r4, #0]
 800103c:	689a      	ldr	r2, [r3, #8]
 800103e:	2a00      	cmp	r2, #0
 8001040:	db0e      	blt.n	8001060 <HAL_ADCEx_Calibration_Start+0x78>
 8001042:	2203      	movs	r2, #3
 8001044:	68d9      	ldr	r1, [r3, #12]
 8001046:	4015      	ands	r5, r2
 8001048:	430d      	orrs	r5, r1
 800104a:	60dd      	str	r5, [r3, #12]
 800104c:	6c63      	ldr	r3, [r4, #68]	; 0x44
 800104e:	2000      	movs	r0, #0
 8001050:	4393      	bics	r3, r2
 8001052:	001a      	movs	r2, r3
 8001054:	2301      	movs	r3, #1
 8001056:	4313      	orrs	r3, r2
 8001058:	6463      	str	r3, [r4, #68]	; 0x44
 800105a:	2300      	movs	r3, #0
 800105c:	7033      	strb	r3, [r6, #0]
 800105e:	e00e      	b.n	800107e <HAL_ADCEx_Calibration_Start+0x96>
 8001060:	f7ff fdbc 	bl	8000bdc <HAL_GetTick>
 8001064:	1bc0      	subs	r0, r0, r7
 8001066:	2802      	cmp	r0, #2
 8001068:	d9e7      	bls.n	800103a <HAL_ADCEx_Calibration_Start+0x52>
 800106a:	2212      	movs	r2, #18
 800106c:	6c63      	ldr	r3, [r4, #68]	; 0x44
 800106e:	2001      	movs	r0, #1
 8001070:	4393      	bics	r3, r2
 8001072:	001a      	movs	r2, r3
 8001074:	2310      	movs	r3, #16
 8001076:	4313      	orrs	r3, r2
 8001078:	6463      	str	r3, [r4, #68]	; 0x44
 800107a:	2300      	movs	r3, #0
 800107c:	7033      	strb	r3, [r6, #0]
 800107e:	bdf8      	pop	{r3, r4, r5, r6, r7, pc}
 8001080:	2320      	movs	r3, #32
 8001082:	6c62      	ldr	r2, [r4, #68]	; 0x44
 8001084:	2001      	movs	r0, #1
 8001086:	4313      	orrs	r3, r2
 8001088:	6463      	str	r3, [r4, #68]	; 0x44
 800108a:	e7e6      	b.n	800105a <HAL_ADCEx_Calibration_Start+0x72>
 800108c:	fffffefd 	.word	0xfffffefd

08001090 <HAL_NVIC_SetPriority>:
 8001090:	b570      	push	{r4, r5, r6, lr}
 8001092:	0189      	lsls	r1, r1, #6
 8001094:	2800      	cmp	r0, #0
 8001096:	da14      	bge.n	80010c2 <HAL_NVIC_SetPriority+0x32>
 8001098:	230f      	movs	r3, #15
 800109a:	b2c0      	uxtb	r0, r0
 800109c:	4003      	ands	r3, r0
 800109e:	3b08      	subs	r3, #8
 80010a0:	4a11      	ldr	r2, [pc, #68]	; (80010e8 <HAL_NVIC_SetPriority+0x58>)
 80010a2:	089b      	lsrs	r3, r3, #2
 80010a4:	009b      	lsls	r3, r3, #2
 80010a6:	189b      	adds	r3, r3, r2
 80010a8:	2203      	movs	r2, #3
 80010aa:	4010      	ands	r0, r2
 80010ac:	4090      	lsls	r0, r2
 80010ae:	32fc      	adds	r2, #252	; 0xfc
 80010b0:	0015      	movs	r5, r2
 80010b2:	4011      	ands	r1, r2
 80010b4:	4085      	lsls	r5, r0
 80010b6:	4081      	lsls	r1, r0
 80010b8:	69dc      	ldr	r4, [r3, #28]
 80010ba:	43ac      	bics	r4, r5
 80010bc:	4321      	orrs	r1, r4
 80010be:	61d9      	str	r1, [r3, #28]
 80010c0:	bd70      	pop	{r4, r5, r6, pc}
 80010c2:	2503      	movs	r5, #3
 80010c4:	0883      	lsrs	r3, r0, #2
 80010c6:	4028      	ands	r0, r5
 80010c8:	40a8      	lsls	r0, r5
 80010ca:	35fc      	adds	r5, #252	; 0xfc
 80010cc:	002e      	movs	r6, r5
 80010ce:	4a07      	ldr	r2, [pc, #28]	; (80010ec <HAL_NVIC_SetPriority+0x5c>)
 80010d0:	009b      	lsls	r3, r3, #2
 80010d2:	189b      	adds	r3, r3, r2
 80010d4:	22c0      	movs	r2, #192	; 0xc0
 80010d6:	4086      	lsls	r6, r0
 80010d8:	4029      	ands	r1, r5
 80010da:	4081      	lsls	r1, r0
 80010dc:	0092      	lsls	r2, r2, #2
 80010de:	589c      	ldr	r4, [r3, r2]
 80010e0:	43b4      	bics	r4, r6
 80010e2:	4321      	orrs	r1, r4
 80010e4:	5099      	str	r1, [r3, r2]
 80010e6:	e7eb      	b.n	80010c0 <HAL_NVIC_SetPriority+0x30>
 80010e8:	e000ed00 	.word	0xe000ed00
 80010ec:	e000e100 	.word	0xe000e100

080010f0 <HAL_NVIC_EnableIRQ>:
 80010f0:	231f      	movs	r3, #31
 80010f2:	4018      	ands	r0, r3
 80010f4:	3b1e      	subs	r3, #30
 80010f6:	4083      	lsls	r3, r0
 80010f8:	4a01      	ldr	r2, [pc, #4]	; (8001100 <HAL_NVIC_EnableIRQ+0x10>)
 80010fa:	6013      	str	r3, [r2, #0]
 80010fc:	4770      	bx	lr
 80010fe:	46c0      	nop			; (mov r8, r8)
 8001100:	e000e100 	.word	0xe000e100

08001104 <HAL_SYSTICK_Config>:
 8001104:	4a09      	ldr	r2, [pc, #36]	; (800112c <HAL_SYSTICK_Config+0x28>)
 8001106:	1e43      	subs	r3, r0, #1
 8001108:	2001      	movs	r0, #1
 800110a:	4293      	cmp	r3, r2
 800110c:	d80d      	bhi.n	800112a <HAL_SYSTICK_Config+0x26>
 800110e:	21c0      	movs	r1, #192	; 0xc0
 8001110:	4a07      	ldr	r2, [pc, #28]	; (8001130 <HAL_SYSTICK_Config+0x2c>)
 8001112:	4808      	ldr	r0, [pc, #32]	; (8001134 <HAL_SYSTICK_Config+0x30>)
 8001114:	6053      	str	r3, [r2, #4]
 8001116:	6a03      	ldr	r3, [r0, #32]
 8001118:	0609      	lsls	r1, r1, #24
 800111a:	021b      	lsls	r3, r3, #8
 800111c:	0a1b      	lsrs	r3, r3, #8
 800111e:	430b      	orrs	r3, r1
 8001120:	6203      	str	r3, [r0, #32]
 8001122:	2000      	movs	r0, #0
 8001124:	2307      	movs	r3, #7
 8001126:	6090      	str	r0, [r2, #8]
 8001128:	6013      	str	r3, [r2, #0]
 800112a:	4770      	bx	lr
 800112c:	00ffffff 	.word	0x00ffffff
 8001130:	e000e010 	.word	0xe000e010
 8001134:	e000ed00 	.word	0xe000ed00

08001138 <HAL_SYSTICK_CLKSourceConfig>:
 8001138:	4b05      	ldr	r3, [pc, #20]	; (8001150 <HAL_SYSTICK_CLKSourceConfig+0x18>)
 800113a:	681a      	ldr	r2, [r3, #0]
 800113c:	2804      	cmp	r0, #4
 800113e:	d102      	bne.n	8001146 <HAL_SYSTICK_CLKSourceConfig+0xe>
 8001140:	4310      	orrs	r0, r2
 8001142:	6018      	str	r0, [r3, #0]
 8001144:	4770      	bx	lr
 8001146:	2104      	movs	r1, #4
 8001148:	438a      	bics	r2, r1
 800114a:	601a      	str	r2, [r3, #0]
 800114c:	e7fa      	b.n	8001144 <HAL_SYSTICK_CLKSourceConfig+0xc>
 800114e:	46c0      	nop			; (mov r8, r8)
 8001150:	e000e010 	.word	0xe000e010

08001154 <HAL_SYSTICK_Callback>:
 8001154:	4770      	bx	lr

08001156 <HAL_SYSTICK_IRQHandler>:
 8001156:	b510      	push	{r4, lr}
 8001158:	f7ff fffc 	bl	8001154 <HAL_SYSTICK_Callback>
 800115c:	bd10      	pop	{r4, pc}
	...

08001160 <HAL_DMA_Init>:
 8001160:	b570      	push	{r4, r5, r6, lr}
 8001162:	0004      	movs	r4, r0
 8001164:	2001      	movs	r0, #1
 8001166:	2c00      	cmp	r4, #0
 8001168:	d028      	beq.n	80011bc <HAL_DMA_Init+0x5c>
 800116a:	2302      	movs	r3, #2
 800116c:	6820      	ldr	r0, [r4, #0]
 800116e:	1ca5      	adds	r5, r4, #2
 8001170:	77eb      	strb	r3, [r5, #31]
 8001172:	6802      	ldr	r2, [r0, #0]
 8001174:	4b12      	ldr	r3, [pc, #72]	; (80011c0 <HAL_DMA_Init+0x60>)
 8001176:	68a1      	ldr	r1, [r4, #8]
 8001178:	401a      	ands	r2, r3
 800117a:	6863      	ldr	r3, [r4, #4]
 800117c:	430b      	orrs	r3, r1
 800117e:	68e1      	ldr	r1, [r4, #12]
 8001180:	430b      	orrs	r3, r1
 8001182:	6921      	ldr	r1, [r4, #16]
 8001184:	430b      	orrs	r3, r1
 8001186:	6961      	ldr	r1, [r4, #20]
 8001188:	430b      	orrs	r3, r1
 800118a:	69a1      	ldr	r1, [r4, #24]
 800118c:	430b      	orrs	r3, r1
 800118e:	69e1      	ldr	r1, [r4, #28]
 8001190:	430b      	orrs	r3, r1
 8001192:	4313      	orrs	r3, r2
 8001194:	6003      	str	r3, [r0, #0]
 8001196:	4b0b      	ldr	r3, [pc, #44]	; (80011c4 <HAL_DMA_Init+0x64>)
 8001198:	2114      	movs	r1, #20
 800119a:	18c0      	adds	r0, r0, r3
 800119c:	f7fe ffc6 	bl	800012c <__udivsi3>
 80011a0:	4b09      	ldr	r3, [pc, #36]	; (80011c8 <HAL_DMA_Init+0x68>)
 80011a2:	0080      	lsls	r0, r0, #2
 80011a4:	6420      	str	r0, [r4, #64]	; 0x40
 80011a6:	63e3      	str	r3, [r4, #60]	; 0x3c
 80011a8:	2000      	movs	r0, #0
 80011aa:	2301      	movs	r3, #1
 80011ac:	62a0      	str	r0, [r4, #40]	; 0x28
 80011ae:	62e0      	str	r0, [r4, #44]	; 0x2c
 80011b0:	6320      	str	r0, [r4, #48]	; 0x30
 80011b2:	6360      	str	r0, [r4, #52]	; 0x34
 80011b4:	63a0      	str	r0, [r4, #56]	; 0x38
 80011b6:	18e4      	adds	r4, r4, r3
 80011b8:	77eb      	strb	r3, [r5, #31]
 80011ba:	77e0      	strb	r0, [r4, #31]
 80011bc:	bd70      	pop	{r4, r5, r6, pc}
 80011be:	46c0      	nop			; (mov r8, r8)
 80011c0:	ffffc00f 	.word	0xffffc00f
 80011c4:	bffdfff8 	.word	0xbffdfff8
 80011c8:	40020000 	.word	0x40020000

080011cc <HAL_DMA_Start_IT>:
 80011cc:	b5f0      	push	{r4, r5, r6, r7, lr}
 80011ce:	1c46      	adds	r6, r0, #1
 80011d0:	7ff5      	ldrb	r5, [r6, #31]
 80011d2:	2402      	movs	r4, #2
 80011d4:	2d01      	cmp	r5, #1
 80011d6:	d026      	beq.n	8001226 <HAL_DMA_Start_IT+0x5a>
 80011d8:	2501      	movs	r5, #1
 80011da:	77f5      	strb	r5, [r6, #31]
 80011dc:	1905      	adds	r5, r0, r4
 80011de:	46ac      	mov	ip, r5
 80011e0:	7fed      	ldrb	r5, [r5, #31]
 80011e2:	2700      	movs	r7, #0
 80011e4:	b2ed      	uxtb	r5, r5
 80011e6:	2d01      	cmp	r5, #1
 80011e8:	d129      	bne.n	800123e <HAL_DMA_Start_IT+0x72>
 80011ea:	4666      	mov	r6, ip
 80011ec:	77f4      	strb	r4, [r6, #31]
 80011ee:	6804      	ldr	r4, [r0, #0]
 80011f0:	6387      	str	r7, [r0, #56]	; 0x38
 80011f2:	6826      	ldr	r6, [r4, #0]
 80011f4:	6c07      	ldr	r7, [r0, #64]	; 0x40
 80011f6:	43ae      	bics	r6, r5
 80011f8:	40bd      	lsls	r5, r7
 80011fa:	6026      	str	r6, [r4, #0]
 80011fc:	6bc6      	ldr	r6, [r0, #60]	; 0x3c
 80011fe:	6075      	str	r5, [r6, #4]
 8001200:	6063      	str	r3, [r4, #4]
 8001202:	6843      	ldr	r3, [r0, #4]
 8001204:	6805      	ldr	r5, [r0, #0]
 8001206:	2b10      	cmp	r3, #16
 8001208:	d10f      	bne.n	800122a <HAL_DMA_Start_IT+0x5e>
 800120a:	60a2      	str	r2, [r4, #8]
 800120c:	60e1      	str	r1, [r4, #12]
 800120e:	6ac3      	ldr	r3, [r0, #44]	; 0x2c
 8001210:	6822      	ldr	r2, [r4, #0]
 8001212:	2b00      	cmp	r3, #0
 8001214:	d00c      	beq.n	8001230 <HAL_DMA_Start_IT+0x64>
 8001216:	230e      	movs	r3, #14
 8001218:	4313      	orrs	r3, r2
 800121a:	6023      	str	r3, [r4, #0]
 800121c:	2301      	movs	r3, #1
 800121e:	2400      	movs	r4, #0
 8001220:	682a      	ldr	r2, [r5, #0]
 8001222:	4313      	orrs	r3, r2
 8001224:	602b      	str	r3, [r5, #0]
 8001226:	0020      	movs	r0, r4
 8001228:	bdf0      	pop	{r4, r5, r6, r7, pc}
 800122a:	60a1      	str	r1, [r4, #8]
 800122c:	60e2      	str	r2, [r4, #12]
 800122e:	e7ee      	b.n	800120e <HAL_DMA_Start_IT+0x42>
 8001230:	230a      	movs	r3, #10
 8001232:	4313      	orrs	r3, r2
 8001234:	2204      	movs	r2, #4
 8001236:	6023      	str	r3, [r4, #0]
 8001238:	6823      	ldr	r3, [r4, #0]
 800123a:	4393      	bics	r3, r2
 800123c:	e7ed      	b.n	800121a <HAL_DMA_Start_IT+0x4e>
 800123e:	77f7      	strb	r7, [r6, #31]
 8001240:	e7f1      	b.n	8001226 <HAL_DMA_Start_IT+0x5a>

08001242 <HAL_DMA_Abort_IT>:
 8001242:	b570      	push	{r4, r5, r6, lr}
 8001244:	1c84      	adds	r4, r0, #2
 8001246:	7fe3      	ldrb	r3, [r4, #31]
 8001248:	2b02      	cmp	r3, #2
 800124a:	d004      	beq.n	8001256 <HAL_DMA_Abort_IT+0x14>
 800124c:	2304      	movs	r3, #4
 800124e:	6383      	str	r3, [r0, #56]	; 0x38
 8001250:	3b03      	subs	r3, #3
 8001252:	0018      	movs	r0, r3
 8001254:	bd70      	pop	{r4, r5, r6, pc}
 8001256:	210e      	movs	r1, #14
 8001258:	6803      	ldr	r3, [r0, #0]
 800125a:	6c05      	ldr	r5, [r0, #64]	; 0x40
 800125c:	681a      	ldr	r2, [r3, #0]
 800125e:	438a      	bics	r2, r1
 8001260:	601a      	str	r2, [r3, #0]
 8001262:	2201      	movs	r2, #1
 8001264:	6819      	ldr	r1, [r3, #0]
 8001266:	4391      	bics	r1, r2
 8001268:	6019      	str	r1, [r3, #0]
 800126a:	0011      	movs	r1, r2
 800126c:	40a9      	lsls	r1, r5
 800126e:	6bc3      	ldr	r3, [r0, #60]	; 0x3c
 8001270:	6059      	str	r1, [r3, #4]
 8001272:	77e2      	strb	r2, [r4, #31]
 8001274:	2400      	movs	r4, #0
 8001276:	1883      	adds	r3, r0, r2
 8001278:	6b42      	ldr	r2, [r0, #52]	; 0x34
 800127a:	77dc      	strb	r4, [r3, #31]
 800127c:	0013      	movs	r3, r2
 800127e:	42a2      	cmp	r2, r4
 8001280:	d0e7      	beq.n	8001252 <HAL_DMA_Abort_IT+0x10>
 8001282:	4790      	blx	r2
 8001284:	0023      	movs	r3, r4
 8001286:	e7e4      	b.n	8001252 <HAL_DMA_Abort_IT+0x10>

08001288 <HAL_DMA_IRQHandler>:
 8001288:	b5f8      	push	{r3, r4, r5, r6, r7, lr}
 800128a:	2704      	movs	r7, #4
 800128c:	003e      	movs	r6, r7
 800128e:	6c01      	ldr	r1, [r0, #64]	; 0x40
 8001290:	6bc2      	ldr	r2, [r0, #60]	; 0x3c
 8001292:	408e      	lsls	r6, r1
 8001294:	6815      	ldr	r5, [r2, #0]
 8001296:	6803      	ldr	r3, [r0, #0]
 8001298:	681c      	ldr	r4, [r3, #0]
 800129a:	422e      	tst	r6, r5
 800129c:	d00d      	beq.n	80012ba <HAL_DMA_IRQHandler+0x32>
 800129e:	423c      	tst	r4, r7
 80012a0:	d00b      	beq.n	80012ba <HAL_DMA_IRQHandler+0x32>
 80012a2:	6819      	ldr	r1, [r3, #0]
 80012a4:	0689      	lsls	r1, r1, #26
 80012a6:	d402      	bmi.n	80012ae <HAL_DMA_IRQHandler+0x26>
 80012a8:	6819      	ldr	r1, [r3, #0]
 80012aa:	43b9      	bics	r1, r7
 80012ac:	6019      	str	r1, [r3, #0]
 80012ae:	6ac3      	ldr	r3, [r0, #44]	; 0x2c
 80012b0:	6056      	str	r6, [r2, #4]
 80012b2:	2b00      	cmp	r3, #0
 80012b4:	d019      	beq.n	80012ea <HAL_DMA_IRQHandler+0x62>
 80012b6:	4798      	blx	r3
 80012b8:	e017      	b.n	80012ea <HAL_DMA_IRQHandler+0x62>
 80012ba:	2702      	movs	r7, #2
 80012bc:	003e      	movs	r6, r7
 80012be:	408e      	lsls	r6, r1
 80012c0:	422e      	tst	r6, r5
 80012c2:	d013      	beq.n	80012ec <HAL_DMA_IRQHandler+0x64>
 80012c4:	423c      	tst	r4, r7
 80012c6:	d011      	beq.n	80012ec <HAL_DMA_IRQHandler+0x64>
 80012c8:	6819      	ldr	r1, [r3, #0]
 80012ca:	0689      	lsls	r1, r1, #26
 80012cc:	d406      	bmi.n	80012dc <HAL_DMA_IRQHandler+0x54>
 80012ce:	240a      	movs	r4, #10
 80012d0:	6819      	ldr	r1, [r3, #0]
 80012d2:	43a1      	bics	r1, r4
 80012d4:	6019      	str	r1, [r3, #0]
 80012d6:	2101      	movs	r1, #1
 80012d8:	19c3      	adds	r3, r0, r7
 80012da:	77d9      	strb	r1, [r3, #31]
 80012dc:	6056      	str	r6, [r2, #4]
 80012de:	2200      	movs	r2, #0
 80012e0:	1c43      	adds	r3, r0, #1
 80012e2:	77da      	strb	r2, [r3, #31]
 80012e4:	6a83      	ldr	r3, [r0, #40]	; 0x28
 80012e6:	4293      	cmp	r3, r2
 80012e8:	d1e5      	bne.n	80012b6 <HAL_DMA_IRQHandler+0x2e>
 80012ea:	bdf8      	pop	{r3, r4, r5, r6, r7, pc}
 80012ec:	2608      	movs	r6, #8
 80012ee:	0037      	movs	r7, r6
 80012f0:	408f      	lsls	r7, r1
 80012f2:	423d      	tst	r5, r7
 80012f4:	d0f9      	beq.n	80012ea <HAL_DMA_IRQHandler+0x62>
 80012f6:	4234      	tst	r4, r6
 80012f8:	d0f7      	beq.n	80012ea <HAL_DMA_IRQHandler+0x62>
 80012fa:	250e      	movs	r5, #14
 80012fc:	681c      	ldr	r4, [r3, #0]
 80012fe:	43ac      	bics	r4, r5
 8001300:	601c      	str	r4, [r3, #0]
 8001302:	2301      	movs	r3, #1
 8001304:	001c      	movs	r4, r3
 8001306:	408c      	lsls	r4, r1
 8001308:	6054      	str	r4, [r2, #4]
 800130a:	1c82      	adds	r2, r0, #2
 800130c:	6383      	str	r3, [r0, #56]	; 0x38
 800130e:	77d3      	strb	r3, [r2, #31]
 8001310:	2200      	movs	r2, #0
 8001312:	18c3      	adds	r3, r0, r3
 8001314:	77da      	strb	r2, [r3, #31]
 8001316:	6b03      	ldr	r3, [r0, #48]	; 0x30
 8001318:	e7e5      	b.n	80012e6 <HAL_DMA_IRQHandler+0x5e>
	...

0800131c <HAL_GPIO_Init>:
 800131c:	b5f0      	push	{r4, r5, r6, r7, lr}
 800131e:	680b      	ldr	r3, [r1, #0]
 8001320:	b087      	sub	sp, #28
 8001322:	9302      	str	r3, [sp, #8]
 8001324:	2300      	movs	r3, #0
 8001326:	9101      	str	r1, [sp, #4]
 8001328:	9a02      	ldr	r2, [sp, #8]
 800132a:	40da      	lsrs	r2, r3
 800132c:	d101      	bne.n	8001332 <HAL_GPIO_Init+0x16>
 800132e:	b007      	add	sp, #28
 8001330:	bdf0      	pop	{r4, r5, r6, r7, pc}
 8001332:	2201      	movs	r2, #1
 8001334:	409a      	lsls	r2, r3
 8001336:	9203      	str	r2, [sp, #12]
 8001338:	9903      	ldr	r1, [sp, #12]
 800133a:	9a02      	ldr	r2, [sp, #8]
 800133c:	400a      	ands	r2, r1
 800133e:	9200      	str	r2, [sp, #0]
 8001340:	d100      	bne.n	8001344 <HAL_GPIO_Init+0x28>
 8001342:	e08c      	b.n	800145e <HAL_GPIO_Init+0x142>
 8001344:	9a01      	ldr	r2, [sp, #4]
 8001346:	2110      	movs	r1, #16
 8001348:	6852      	ldr	r2, [r2, #4]
 800134a:	0016      	movs	r6, r2
 800134c:	438e      	bics	r6, r1
 800134e:	2e02      	cmp	r6, #2
 8001350:	d10e      	bne.n	8001370 <HAL_GPIO_Init+0x54>
 8001352:	2507      	movs	r5, #7
 8001354:	401d      	ands	r5, r3
 8001356:	00ad      	lsls	r5, r5, #2
 8001358:	3901      	subs	r1, #1
 800135a:	40a9      	lsls	r1, r5
 800135c:	08dc      	lsrs	r4, r3, #3
 800135e:	00a4      	lsls	r4, r4, #2
 8001360:	1904      	adds	r4, r0, r4
 8001362:	6a27      	ldr	r7, [r4, #32]
 8001364:	438f      	bics	r7, r1
 8001366:	9901      	ldr	r1, [sp, #4]
 8001368:	6909      	ldr	r1, [r1, #16]
 800136a:	40a9      	lsls	r1, r5
 800136c:	430f      	orrs	r7, r1
 800136e:	6227      	str	r7, [r4, #32]
 8001370:	2403      	movs	r4, #3
 8001372:	005f      	lsls	r7, r3, #1
 8001374:	40bc      	lsls	r4, r7
 8001376:	43e4      	mvns	r4, r4
 8001378:	6805      	ldr	r5, [r0, #0]
 800137a:	3e01      	subs	r6, #1
 800137c:	4025      	ands	r5, r4
 800137e:	46ac      	mov	ip, r5
 8001380:	2503      	movs	r5, #3
 8001382:	4015      	ands	r5, r2
 8001384:	40bd      	lsls	r5, r7
 8001386:	4661      	mov	r1, ip
 8001388:	430d      	orrs	r5, r1
 800138a:	6005      	str	r5, [r0, #0]
 800138c:	2e01      	cmp	r6, #1
 800138e:	d80f      	bhi.n	80013b0 <HAL_GPIO_Init+0x94>
 8001390:	9901      	ldr	r1, [sp, #4]
 8001392:	6886      	ldr	r6, [r0, #8]
 8001394:	68cd      	ldr	r5, [r1, #12]
 8001396:	4026      	ands	r6, r4
 8001398:	40bd      	lsls	r5, r7
 800139a:	4335      	orrs	r5, r6
 800139c:	6085      	str	r5, [r0, #8]
 800139e:	6846      	ldr	r6, [r0, #4]
 80013a0:	9903      	ldr	r1, [sp, #12]
 80013a2:	0915      	lsrs	r5, r2, #4
 80013a4:	438e      	bics	r6, r1
 80013a6:	2101      	movs	r1, #1
 80013a8:	400d      	ands	r5, r1
 80013aa:	409d      	lsls	r5, r3
 80013ac:	4335      	orrs	r5, r6
 80013ae:	6045      	str	r5, [r0, #4]
 80013b0:	68c5      	ldr	r5, [r0, #12]
 80013b2:	9901      	ldr	r1, [sp, #4]
 80013b4:	402c      	ands	r4, r5
 80013b6:	688d      	ldr	r5, [r1, #8]
 80013b8:	2180      	movs	r1, #128	; 0x80
 80013ba:	40bd      	lsls	r5, r7
 80013bc:	0549      	lsls	r1, r1, #21
 80013be:	432c      	orrs	r4, r5
 80013c0:	60c4      	str	r4, [r0, #12]
 80013c2:	420a      	tst	r2, r1
 80013c4:	d04b      	beq.n	800145e <HAL_GPIO_Init+0x142>
 80013c6:	2101      	movs	r1, #1
 80013c8:	4c26      	ldr	r4, [pc, #152]	; (8001464 <HAL_GPIO_Init+0x148>)
 80013ca:	2603      	movs	r6, #3
 80013cc:	69a5      	ldr	r5, [r4, #24]
 80013ce:	401e      	ands	r6, r3
 80013d0:	430d      	orrs	r5, r1
 80013d2:	61a5      	str	r5, [r4, #24]
 80013d4:	69a4      	ldr	r4, [r4, #24]
 80013d6:	089d      	lsrs	r5, r3, #2
 80013d8:	400c      	ands	r4, r1
 80013da:	9405      	str	r4, [sp, #20]
 80013dc:	9c05      	ldr	r4, [sp, #20]
 80013de:	240f      	movs	r4, #15
 80013e0:	4921      	ldr	r1, [pc, #132]	; (8001468 <HAL_GPIO_Init+0x14c>)
 80013e2:	00ad      	lsls	r5, r5, #2
 80013e4:	00b6      	lsls	r6, r6, #2
 80013e6:	186d      	adds	r5, r5, r1
 80013e8:	40b4      	lsls	r4, r6
 80013ea:	2190      	movs	r1, #144	; 0x90
 80013ec:	68af      	ldr	r7, [r5, #8]
 80013ee:	05c9      	lsls	r1, r1, #23
 80013f0:	43a7      	bics	r7, r4
 80013f2:	2400      	movs	r4, #0
 80013f4:	4288      	cmp	r0, r1
 80013f6:	d00c      	beq.n	8001412 <HAL_GPIO_Init+0xf6>
 80013f8:	491c      	ldr	r1, [pc, #112]	; (800146c <HAL_GPIO_Init+0x150>)
 80013fa:	3401      	adds	r4, #1
 80013fc:	4288      	cmp	r0, r1
 80013fe:	d008      	beq.n	8001412 <HAL_GPIO_Init+0xf6>
 8001400:	491b      	ldr	r1, [pc, #108]	; (8001470 <HAL_GPIO_Init+0x154>)
 8001402:	3401      	adds	r4, #1
 8001404:	4288      	cmp	r0, r1
 8001406:	d004      	beq.n	8001412 <HAL_GPIO_Init+0xf6>
 8001408:	491a      	ldr	r1, [pc, #104]	; (8001474 <HAL_GPIO_Init+0x158>)
 800140a:	3403      	adds	r4, #3
 800140c:	4288      	cmp	r0, r1
 800140e:	d100      	bne.n	8001412 <HAL_GPIO_Init+0xf6>
 8001410:	3c02      	subs	r4, #2
 8001412:	40b4      	lsls	r4, r6
 8001414:	9900      	ldr	r1, [sp, #0]
 8001416:	433c      	orrs	r4, r7
 8001418:	000e      	movs	r6, r1
 800141a:	60ac      	str	r4, [r5, #8]
 800141c:	4c16      	ldr	r4, [pc, #88]	; (8001478 <HAL_GPIO_Init+0x15c>)
 800141e:	43cd      	mvns	r5, r1
 8001420:	6827      	ldr	r7, [r4, #0]
 8001422:	433e      	orrs	r6, r7
 8001424:	03d1      	lsls	r1, r2, #15
 8001426:	d401      	bmi.n	800142c <HAL_GPIO_Init+0x110>
 8001428:	003e      	movs	r6, r7
 800142a:	402e      	ands	r6, r5
 800142c:	6026      	str	r6, [r4, #0]
 800142e:	6867      	ldr	r7, [r4, #4]
 8001430:	9e00      	ldr	r6, [sp, #0]
 8001432:	433e      	orrs	r6, r7
 8001434:	0391      	lsls	r1, r2, #14
 8001436:	d401      	bmi.n	800143c <HAL_GPIO_Init+0x120>
 8001438:	003e      	movs	r6, r7
 800143a:	402e      	ands	r6, r5
 800143c:	6066      	str	r6, [r4, #4]
 800143e:	68a7      	ldr	r7, [r4, #8]
 8001440:	9e00      	ldr	r6, [sp, #0]
 8001442:	433e      	orrs	r6, r7
 8001444:	02d1      	lsls	r1, r2, #11
 8001446:	d401      	bmi.n	800144c <HAL_GPIO_Init+0x130>
 8001448:	003e      	movs	r6, r7
 800144a:	402e      	ands	r6, r5
 800144c:	60a6      	str	r6, [r4, #8]
 800144e:	68e6      	ldr	r6, [r4, #12]
 8001450:	9f00      	ldr	r7, [sp, #0]
 8001452:	4337      	orrs	r7, r6
 8001454:	0292      	lsls	r2, r2, #10
 8001456:	d401      	bmi.n	800145c <HAL_GPIO_Init+0x140>
 8001458:	402e      	ands	r6, r5
 800145a:	0037      	movs	r7, r6
 800145c:	60e7      	str	r7, [r4, #12]
 800145e:	3301      	adds	r3, #1
 8001460:	e762      	b.n	8001328 <HAL_GPIO_Init+0xc>
 8001462:	46c0      	nop			; (mov r8, r8)
 8001464:	40021000 	.word	0x40021000
 8001468:	40010000 	.word	0x40010000
 800146c:	48000400 	.word	0x48000400
 8001470:	48000800 	.word	0x48000800
 8001474:	48000c00 	.word	0x48000c00
 8001478:	40010400 	.word	0x40010400

0800147c <HAL_GPIO_ReadPin>:
 800147c:	6900      	ldr	r0, [r0, #16]
 800147e:	4008      	ands	r0, r1
 8001480:	1e41      	subs	r1, r0, #1
 8001482:	4188      	sbcs	r0, r1
 8001484:	b2c0      	uxtb	r0, r0
 8001486:	4770      	bx	lr

08001488 <HAL_GPIO_WritePin>:
 8001488:	2a00      	cmp	r2, #0
 800148a:	d001      	beq.n	8001490 <HAL_GPIO_WritePin+0x8>
 800148c:	6181      	str	r1, [r0, #24]
 800148e:	4770      	bx	lr
 8001490:	6281      	str	r1, [r0, #40]	; 0x28
 8001492:	e7fc      	b.n	800148e <HAL_GPIO_WritePin+0x6>

08001494 <HAL_GPIO_EXTI_IRQHandler>:
 8001494:	4b04      	ldr	r3, [pc, #16]	; (80014a8 <HAL_GPIO_EXTI_IRQHandler+0x14>)
 8001496:	b510      	push	{r4, lr}
 8001498:	695a      	ldr	r2, [r3, #20]
 800149a:	4210      	tst	r0, r2
 800149c:	d002      	beq.n	80014a4 <HAL_GPIO_EXTI_IRQHandler+0x10>
 800149e:	6158      	str	r0, [r3, #20]
 80014a0:	f001 f9da 	bl	8002858 <HAL_GPIO_EXTI_Callback>
 80014a4:	bd10      	pop	{r4, pc}
 80014a6:	46c0      	nop			; (mov r8, r8)
 80014a8:	40010400 	.word	0x40010400

080014ac <HAL_RCC_OscConfig>:
 80014ac:	b5f0      	push	{r4, r5, r6, r7, lr}
 80014ae:	6803      	ldr	r3, [r0, #0]
 80014b0:	b085      	sub	sp, #20
 80014b2:	0005      	movs	r5, r0
 80014b4:	07db      	lsls	r3, r3, #31
 80014b6:	d42f      	bmi.n	8001518 <HAL_RCC_OscConfig+0x6c>
 80014b8:	682b      	ldr	r3, [r5, #0]
 80014ba:	079b      	lsls	r3, r3, #30
 80014bc:	d500      	bpl.n	80014c0 <HAL_RCC_OscConfig+0x14>
 80014be:	e081      	b.n	80015c4 <HAL_RCC_OscConfig+0x118>
 80014c0:	682b      	ldr	r3, [r5, #0]
 80014c2:	071b      	lsls	r3, r3, #28
 80014c4:	d500      	bpl.n	80014c8 <HAL_RCC_OscConfig+0x1c>
 80014c6:	e0bc      	b.n	8001642 <HAL_RCC_OscConfig+0x196>
 80014c8:	682b      	ldr	r3, [r5, #0]
 80014ca:	075b      	lsls	r3, r3, #29
 80014cc:	d500      	bpl.n	80014d0 <HAL_RCC_OscConfig+0x24>
 80014ce:	e0df      	b.n	8001690 <HAL_RCC_OscConfig+0x1e4>
 80014d0:	682b      	ldr	r3, [r5, #0]
 80014d2:	06db      	lsls	r3, r3, #27
 80014d4:	d51a      	bpl.n	800150c <HAL_RCC_OscConfig+0x60>
 80014d6:	696a      	ldr	r2, [r5, #20]
 80014d8:	4cb5      	ldr	r4, [pc, #724]	; (80017b0 <HAL_RCC_OscConfig+0x304>)
 80014da:	2304      	movs	r3, #4
 80014dc:	2a01      	cmp	r2, #1
 80014de:	d000      	beq.n	80014e2 <HAL_RCC_OscConfig+0x36>
 80014e0:	e14b      	b.n	800177a <HAL_RCC_OscConfig+0x2ce>
 80014e2:	6b61      	ldr	r1, [r4, #52]	; 0x34
 80014e4:	2602      	movs	r6, #2
 80014e6:	430b      	orrs	r3, r1
 80014e8:	6363      	str	r3, [r4, #52]	; 0x34
 80014ea:	6b63      	ldr	r3, [r4, #52]	; 0x34
 80014ec:	431a      	orrs	r2, r3
 80014ee:	6362      	str	r2, [r4, #52]	; 0x34
 80014f0:	f7ff fb74 	bl	8000bdc <HAL_GetTick>
 80014f4:	0007      	movs	r7, r0
 80014f6:	6b63      	ldr	r3, [r4, #52]	; 0x34
 80014f8:	4233      	tst	r3, r6
 80014fa:	d100      	bne.n	80014fe <HAL_RCC_OscConfig+0x52>
 80014fc:	e136      	b.n	800176c <HAL_RCC_OscConfig+0x2c0>
 80014fe:	21f8      	movs	r1, #248	; 0xf8
 8001500:	6b62      	ldr	r2, [r4, #52]	; 0x34
 8001502:	69ab      	ldr	r3, [r5, #24]
 8001504:	438a      	bics	r2, r1
 8001506:	00db      	lsls	r3, r3, #3
 8001508:	4313      	orrs	r3, r2
 800150a:	6363      	str	r3, [r4, #52]	; 0x34
 800150c:	6a29      	ldr	r1, [r5, #32]
 800150e:	2900      	cmp	r1, #0
 8001510:	d000      	beq.n	8001514 <HAL_RCC_OscConfig+0x68>
 8001512:	e159      	b.n	80017c8 <HAL_RCC_OscConfig+0x31c>
 8001514:	2000      	movs	r0, #0
 8001516:	e013      	b.n	8001540 <HAL_RCC_OscConfig+0x94>
 8001518:	210c      	movs	r1, #12
 800151a:	4ca5      	ldr	r4, [pc, #660]	; (80017b0 <HAL_RCC_OscConfig+0x304>)
 800151c:	6862      	ldr	r2, [r4, #4]
 800151e:	400a      	ands	r2, r1
 8001520:	2a04      	cmp	r2, #4
 8001522:	d006      	beq.n	8001532 <HAL_RCC_OscConfig+0x86>
 8001524:	6863      	ldr	r3, [r4, #4]
 8001526:	400b      	ands	r3, r1
 8001528:	2b08      	cmp	r3, #8
 800152a:	d10b      	bne.n	8001544 <HAL_RCC_OscConfig+0x98>
 800152c:	6863      	ldr	r3, [r4, #4]
 800152e:	03db      	lsls	r3, r3, #15
 8001530:	d508      	bpl.n	8001544 <HAL_RCC_OscConfig+0x98>
 8001532:	6823      	ldr	r3, [r4, #0]
 8001534:	039b      	lsls	r3, r3, #14
 8001536:	d5bf      	bpl.n	80014b8 <HAL_RCC_OscConfig+0xc>
 8001538:	686b      	ldr	r3, [r5, #4]
 800153a:	2b00      	cmp	r3, #0
 800153c:	d1bc      	bne.n	80014b8 <HAL_RCC_OscConfig+0xc>
 800153e:	2001      	movs	r0, #1
 8001540:	b005      	add	sp, #20
 8001542:	bdf0      	pop	{r4, r5, r6, r7, pc}
 8001544:	686b      	ldr	r3, [r5, #4]
 8001546:	2b01      	cmp	r3, #1
 8001548:	d113      	bne.n	8001572 <HAL_RCC_OscConfig+0xc6>
 800154a:	2380      	movs	r3, #128	; 0x80
 800154c:	6822      	ldr	r2, [r4, #0]
 800154e:	025b      	lsls	r3, r3, #9
 8001550:	4313      	orrs	r3, r2
 8001552:	6023      	str	r3, [r4, #0]
 8001554:	f7ff fb42 	bl	8000bdc <HAL_GetTick>
 8001558:	2680      	movs	r6, #128	; 0x80
 800155a:	0007      	movs	r7, r0
 800155c:	02b6      	lsls	r6, r6, #10
 800155e:	6823      	ldr	r3, [r4, #0]
 8001560:	4233      	tst	r3, r6
 8001562:	d1a9      	bne.n	80014b8 <HAL_RCC_OscConfig+0xc>
 8001564:	f7ff fb3a 	bl	8000bdc <HAL_GetTick>
 8001568:	1bc0      	subs	r0, r0, r7
 800156a:	2864      	cmp	r0, #100	; 0x64
 800156c:	d9f7      	bls.n	800155e <HAL_RCC_OscConfig+0xb2>
 800156e:	2003      	movs	r0, #3
 8001570:	e7e6      	b.n	8001540 <HAL_RCC_OscConfig+0x94>
 8001572:	2b00      	cmp	r3, #0
 8001574:	d116      	bne.n	80015a4 <HAL_RCC_OscConfig+0xf8>
 8001576:	6823      	ldr	r3, [r4, #0]
 8001578:	4a8e      	ldr	r2, [pc, #568]	; (80017b4 <HAL_RCC_OscConfig+0x308>)
 800157a:	2680      	movs	r6, #128	; 0x80
 800157c:	4013      	ands	r3, r2
 800157e:	6023      	str	r3, [r4, #0]
 8001580:	6823      	ldr	r3, [r4, #0]
 8001582:	4a8d      	ldr	r2, [pc, #564]	; (80017b8 <HAL_RCC_OscConfig+0x30c>)
 8001584:	02b6      	lsls	r6, r6, #10
 8001586:	4013      	ands	r3, r2
 8001588:	6023      	str	r3, [r4, #0]
 800158a:	f7ff fb27 	bl	8000bdc <HAL_GetTick>
 800158e:	0007      	movs	r7, r0
 8001590:	6823      	ldr	r3, [r4, #0]
 8001592:	4233      	tst	r3, r6
 8001594:	d100      	bne.n	8001598 <HAL_RCC_OscConfig+0xec>
 8001596:	e78f      	b.n	80014b8 <HAL_RCC_OscConfig+0xc>
 8001598:	f7ff fb20 	bl	8000bdc <HAL_GetTick>
 800159c:	1bc0      	subs	r0, r0, r7
 800159e:	2864      	cmp	r0, #100	; 0x64
 80015a0:	d9f6      	bls.n	8001590 <HAL_RCC_OscConfig+0xe4>
 80015a2:	e7e4      	b.n	800156e <HAL_RCC_OscConfig+0xc2>
 80015a4:	2b05      	cmp	r3, #5
 80015a6:	d105      	bne.n	80015b4 <HAL_RCC_OscConfig+0x108>
 80015a8:	2380      	movs	r3, #128	; 0x80
 80015aa:	6822      	ldr	r2, [r4, #0]
 80015ac:	02db      	lsls	r3, r3, #11
 80015ae:	4313      	orrs	r3, r2
 80015b0:	6023      	str	r3, [r4, #0]
 80015b2:	e7ca      	b.n	800154a <HAL_RCC_OscConfig+0x9e>
 80015b4:	6823      	ldr	r3, [r4, #0]
 80015b6:	4a7f      	ldr	r2, [pc, #508]	; (80017b4 <HAL_RCC_OscConfig+0x308>)
 80015b8:	4013      	ands	r3, r2
 80015ba:	6023      	str	r3, [r4, #0]
 80015bc:	6823      	ldr	r3, [r4, #0]
 80015be:	4a7e      	ldr	r2, [pc, #504]	; (80017b8 <HAL_RCC_OscConfig+0x30c>)
 80015c0:	4013      	ands	r3, r2
 80015c2:	e7c6      	b.n	8001552 <HAL_RCC_OscConfig+0xa6>
 80015c4:	220c      	movs	r2, #12
 80015c6:	4c7a      	ldr	r4, [pc, #488]	; (80017b0 <HAL_RCC_OscConfig+0x304>)
 80015c8:	6863      	ldr	r3, [r4, #4]
 80015ca:	4213      	tst	r3, r2
 80015cc:	d006      	beq.n	80015dc <HAL_RCC_OscConfig+0x130>
 80015ce:	6863      	ldr	r3, [r4, #4]
 80015d0:	4013      	ands	r3, r2
 80015d2:	2b08      	cmp	r3, #8
 80015d4:	d110      	bne.n	80015f8 <HAL_RCC_OscConfig+0x14c>
 80015d6:	6863      	ldr	r3, [r4, #4]
 80015d8:	03db      	lsls	r3, r3, #15
 80015da:	d40d      	bmi.n	80015f8 <HAL_RCC_OscConfig+0x14c>
 80015dc:	6823      	ldr	r3, [r4, #0]
 80015de:	079b      	lsls	r3, r3, #30
 80015e0:	d502      	bpl.n	80015e8 <HAL_RCC_OscConfig+0x13c>
 80015e2:	68eb      	ldr	r3, [r5, #12]
 80015e4:	2b01      	cmp	r3, #1
 80015e6:	d1aa      	bne.n	800153e <HAL_RCC_OscConfig+0x92>
 80015e8:	21f8      	movs	r1, #248	; 0xf8
 80015ea:	6822      	ldr	r2, [r4, #0]
 80015ec:	692b      	ldr	r3, [r5, #16]
 80015ee:	438a      	bics	r2, r1
 80015f0:	00db      	lsls	r3, r3, #3
 80015f2:	4313      	orrs	r3, r2
 80015f4:	6023      	str	r3, [r4, #0]
 80015f6:	e763      	b.n	80014c0 <HAL_RCC_OscConfig+0x14>
 80015f8:	68ea      	ldr	r2, [r5, #12]
 80015fa:	2301      	movs	r3, #1
 80015fc:	2a00      	cmp	r2, #0
 80015fe:	d00f      	beq.n	8001620 <HAL_RCC_OscConfig+0x174>
 8001600:	6822      	ldr	r2, [r4, #0]
 8001602:	2602      	movs	r6, #2
 8001604:	4313      	orrs	r3, r2
 8001606:	6023      	str	r3, [r4, #0]
 8001608:	f7ff fae8 	bl	8000bdc <HAL_GetTick>
 800160c:	0007      	movs	r7, r0
 800160e:	6823      	ldr	r3, [r4, #0]
 8001610:	4233      	tst	r3, r6
 8001612:	d1e9      	bne.n	80015e8 <HAL_RCC_OscConfig+0x13c>
 8001614:	f7ff fae2 	bl	8000bdc <HAL_GetTick>
 8001618:	1bc0      	subs	r0, r0, r7
 800161a:	2802      	cmp	r0, #2
 800161c:	d9f7      	bls.n	800160e <HAL_RCC_OscConfig+0x162>
 800161e:	e7a6      	b.n	800156e <HAL_RCC_OscConfig+0xc2>
 8001620:	6822      	ldr	r2, [r4, #0]
 8001622:	2602      	movs	r6, #2
 8001624:	439a      	bics	r2, r3
 8001626:	6022      	str	r2, [r4, #0]
 8001628:	f7ff fad8 	bl	8000bdc <HAL_GetTick>
 800162c:	0007      	movs	r7, r0
 800162e:	6823      	ldr	r3, [r4, #0]
 8001630:	4233      	tst	r3, r6
 8001632:	d100      	bne.n	8001636 <HAL_RCC_OscConfig+0x18a>
 8001634:	e744      	b.n	80014c0 <HAL_RCC_OscConfig+0x14>
 8001636:	f7ff fad1 	bl	8000bdc <HAL_GetTick>
 800163a:	1bc0      	subs	r0, r0, r7
 800163c:	2802      	cmp	r0, #2
 800163e:	d9f6      	bls.n	800162e <HAL_RCC_OscConfig+0x182>
 8001640:	e795      	b.n	800156e <HAL_RCC_OscConfig+0xc2>
 8001642:	69ea      	ldr	r2, [r5, #28]
 8001644:	2301      	movs	r3, #1
 8001646:	4c5a      	ldr	r4, [pc, #360]	; (80017b0 <HAL_RCC_OscConfig+0x304>)
 8001648:	2a00      	cmp	r2, #0
 800164a:	d010      	beq.n	800166e <HAL_RCC_OscConfig+0x1c2>
 800164c:	6a62      	ldr	r2, [r4, #36]	; 0x24
 800164e:	2602      	movs	r6, #2
 8001650:	4313      	orrs	r3, r2
 8001652:	6263      	str	r3, [r4, #36]	; 0x24
 8001654:	f7ff fac2 	bl	8000bdc <HAL_GetTick>
 8001658:	0007      	movs	r7, r0
 800165a:	6a63      	ldr	r3, [r4, #36]	; 0x24
 800165c:	4233      	tst	r3, r6
 800165e:	d000      	beq.n	8001662 <HAL_RCC_OscConfig+0x1b6>
 8001660:	e732      	b.n	80014c8 <HAL_RCC_OscConfig+0x1c>
 8001662:	f7ff fabb 	bl	8000bdc <HAL_GetTick>
 8001666:	1bc0      	subs	r0, r0, r7
 8001668:	2802      	cmp	r0, #2
 800166a:	d9f6      	bls.n	800165a <HAL_RCC_OscConfig+0x1ae>
 800166c:	e77f      	b.n	800156e <HAL_RCC_OscConfig+0xc2>
 800166e:	6a62      	ldr	r2, [r4, #36]	; 0x24
 8001670:	2602      	movs	r6, #2
 8001672:	439a      	bics	r2, r3
 8001674:	6262      	str	r2, [r4, #36]	; 0x24
 8001676:	f7ff fab1 	bl	8000bdc <HAL_GetTick>
 800167a:	0007      	movs	r7, r0
 800167c:	6a63      	ldr	r3, [r4, #36]	; 0x24
 800167e:	4233      	tst	r3, r6
 8001680:	d100      	bne.n	8001684 <HAL_RCC_OscConfig+0x1d8>
 8001682:	e721      	b.n	80014c8 <HAL_RCC_OscConfig+0x1c>
 8001684:	f7ff faaa 	bl	8000bdc <HAL_GetTick>
 8001688:	1bc0      	subs	r0, r0, r7
 800168a:	2802      	cmp	r0, #2
 800168c:	d9f6      	bls.n	800167c <HAL_RCC_OscConfig+0x1d0>
 800168e:	e76e      	b.n	800156e <HAL_RCC_OscConfig+0xc2>
 8001690:	2280      	movs	r2, #128	; 0x80
 8001692:	2100      	movs	r1, #0
 8001694:	4c46      	ldr	r4, [pc, #280]	; (80017b0 <HAL_RCC_OscConfig+0x304>)
 8001696:	0552      	lsls	r2, r2, #21
 8001698:	69e3      	ldr	r3, [r4, #28]
 800169a:	9100      	str	r1, [sp, #0]
 800169c:	4213      	tst	r3, r2
 800169e:	d108      	bne.n	80016b2 <HAL_RCC_OscConfig+0x206>
 80016a0:	69e3      	ldr	r3, [r4, #28]
 80016a2:	4313      	orrs	r3, r2
 80016a4:	61e3      	str	r3, [r4, #28]
 80016a6:	69e3      	ldr	r3, [r4, #28]
 80016a8:	4013      	ands	r3, r2
 80016aa:	9303      	str	r3, [sp, #12]
 80016ac:	9b03      	ldr	r3, [sp, #12]
 80016ae:	2301      	movs	r3, #1
 80016b0:	9300      	str	r3, [sp, #0]
 80016b2:	2780      	movs	r7, #128	; 0x80
 80016b4:	4e41      	ldr	r6, [pc, #260]	; (80017bc <HAL_RCC_OscConfig+0x310>)
 80016b6:	007f      	lsls	r7, r7, #1
 80016b8:	6833      	ldr	r3, [r6, #0]
 80016ba:	423b      	tst	r3, r7
 80016bc:	d006      	beq.n	80016cc <HAL_RCC_OscConfig+0x220>
 80016be:	68ab      	ldr	r3, [r5, #8]
 80016c0:	2b01      	cmp	r3, #1
 80016c2:	d113      	bne.n	80016ec <HAL_RCC_OscConfig+0x240>
 80016c4:	6a22      	ldr	r2, [r4, #32]
 80016c6:	4313      	orrs	r3, r2
 80016c8:	6223      	str	r3, [r4, #32]
 80016ca:	e030      	b.n	800172e <HAL_RCC_OscConfig+0x282>
 80016cc:	6833      	ldr	r3, [r6, #0]
 80016ce:	433b      	orrs	r3, r7
 80016d0:	6033      	str	r3, [r6, #0]
 80016d2:	f7ff fa83 	bl	8000bdc <HAL_GetTick>
 80016d6:	9001      	str	r0, [sp, #4]
 80016d8:	6833      	ldr	r3, [r6, #0]
 80016da:	423b      	tst	r3, r7
 80016dc:	d1ef      	bne.n	80016be <HAL_RCC_OscConfig+0x212>
 80016de:	f7ff fa7d 	bl	8000bdc <HAL_GetTick>
 80016e2:	9b01      	ldr	r3, [sp, #4]
 80016e4:	1ac0      	subs	r0, r0, r3
 80016e6:	2864      	cmp	r0, #100	; 0x64
 80016e8:	d9f6      	bls.n	80016d8 <HAL_RCC_OscConfig+0x22c>
 80016ea:	e740      	b.n	800156e <HAL_RCC_OscConfig+0xc2>
 80016ec:	2201      	movs	r2, #1
 80016ee:	2b00      	cmp	r3, #0
 80016f0:	d114      	bne.n	800171c <HAL_RCC_OscConfig+0x270>
 80016f2:	6a23      	ldr	r3, [r4, #32]
 80016f4:	2702      	movs	r7, #2
 80016f6:	4393      	bics	r3, r2
 80016f8:	6223      	str	r3, [r4, #32]
 80016fa:	6a23      	ldr	r3, [r4, #32]
 80016fc:	3203      	adds	r2, #3
 80016fe:	4393      	bics	r3, r2
 8001700:	6223      	str	r3, [r4, #32]
 8001702:	f7ff fa6b 	bl	8000bdc <HAL_GetTick>
 8001706:	0006      	movs	r6, r0
 8001708:	6a23      	ldr	r3, [r4, #32]
 800170a:	423b      	tst	r3, r7
 800170c:	d025      	beq.n	800175a <HAL_RCC_OscConfig+0x2ae>
 800170e:	f7ff fa65 	bl	8000bdc <HAL_GetTick>
 8001712:	4b2b      	ldr	r3, [pc, #172]	; (80017c0 <HAL_RCC_OscConfig+0x314>)
 8001714:	1b80      	subs	r0, r0, r6
 8001716:	4298      	cmp	r0, r3
 8001718:	d9f6      	bls.n	8001708 <HAL_RCC_OscConfig+0x25c>
 800171a:	e728      	b.n	800156e <HAL_RCC_OscConfig+0xc2>
 800171c:	2b05      	cmp	r3, #5
 800171e:	d10b      	bne.n	8001738 <HAL_RCC_OscConfig+0x28c>
 8001720:	6a21      	ldr	r1, [r4, #32]
 8001722:	3b01      	subs	r3, #1
 8001724:	430b      	orrs	r3, r1
 8001726:	6223      	str	r3, [r4, #32]
 8001728:	6a23      	ldr	r3, [r4, #32]
 800172a:	431a      	orrs	r2, r3
 800172c:	6222      	str	r2, [r4, #32]
 800172e:	f7ff fa55 	bl	8000bdc <HAL_GetTick>
 8001732:	2702      	movs	r7, #2
 8001734:	0006      	movs	r6, r0
 8001736:	e00d      	b.n	8001754 <HAL_RCC_OscConfig+0x2a8>
 8001738:	6a23      	ldr	r3, [r4, #32]
 800173a:	4393      	bics	r3, r2
 800173c:	2204      	movs	r2, #4
 800173e:	6223      	str	r3, [r4, #32]
 8001740:	6a23      	ldr	r3, [r4, #32]
 8001742:	4393      	bics	r3, r2
 8001744:	e7c0      	b.n	80016c8 <HAL_RCC_OscConfig+0x21c>
 8001746:	f7ff fa49 	bl	8000bdc <HAL_GetTick>
 800174a:	4b1d      	ldr	r3, [pc, #116]	; (80017c0 <HAL_RCC_OscConfig+0x314>)
 800174c:	1b80      	subs	r0, r0, r6
 800174e:	4298      	cmp	r0, r3
 8001750:	d900      	bls.n	8001754 <HAL_RCC_OscConfig+0x2a8>
 8001752:	e70c      	b.n	800156e <HAL_RCC_OscConfig+0xc2>
 8001754:	6a23      	ldr	r3, [r4, #32]
 8001756:	423b      	tst	r3, r7
 8001758:	d0f5      	beq.n	8001746 <HAL_RCC_OscConfig+0x29a>
 800175a:	9b00      	ldr	r3, [sp, #0]
 800175c:	2b01      	cmp	r3, #1
 800175e:	d000      	beq.n	8001762 <HAL_RCC_OscConfig+0x2b6>
 8001760:	e6b6      	b.n	80014d0 <HAL_RCC_OscConfig+0x24>
 8001762:	69e3      	ldr	r3, [r4, #28]
 8001764:	4a17      	ldr	r2, [pc, #92]	; (80017c4 <HAL_RCC_OscConfig+0x318>)
 8001766:	4013      	ands	r3, r2
 8001768:	61e3      	str	r3, [r4, #28]
 800176a:	e6b1      	b.n	80014d0 <HAL_RCC_OscConfig+0x24>
 800176c:	f7ff fa36 	bl	8000bdc <HAL_GetTick>
 8001770:	1bc0      	subs	r0, r0, r7
 8001772:	2802      	cmp	r0, #2
 8001774:	d800      	bhi.n	8001778 <HAL_RCC_OscConfig+0x2cc>
 8001776:	e6be      	b.n	80014f6 <HAL_RCC_OscConfig+0x4a>
 8001778:	e6f9      	b.n	800156e <HAL_RCC_OscConfig+0xc2>
 800177a:	3205      	adds	r2, #5
 800177c:	d103      	bne.n	8001786 <HAL_RCC_OscConfig+0x2da>
 800177e:	6b62      	ldr	r2, [r4, #52]	; 0x34
 8001780:	439a      	bics	r2, r3
 8001782:	6362      	str	r2, [r4, #52]	; 0x34
 8001784:	e6bb      	b.n	80014fe <HAL_RCC_OscConfig+0x52>
 8001786:	6b62      	ldr	r2, [r4, #52]	; 0x34
 8001788:	2602      	movs	r6, #2
 800178a:	4313      	orrs	r3, r2
 800178c:	2201      	movs	r2, #1
 800178e:	6363      	str	r3, [r4, #52]	; 0x34
 8001790:	6b63      	ldr	r3, [r4, #52]	; 0x34
 8001792:	4393      	bics	r3, r2
 8001794:	6363      	str	r3, [r4, #52]	; 0x34
 8001796:	f7ff fa21 	bl	8000bdc <HAL_GetTick>
 800179a:	0007      	movs	r7, r0
 800179c:	6b63      	ldr	r3, [r4, #52]	; 0x34
 800179e:	4233      	tst	r3, r6
 80017a0:	d100      	bne.n	80017a4 <HAL_RCC_OscConfig+0x2f8>
 80017a2:	e6b3      	b.n	800150c <HAL_RCC_OscConfig+0x60>
 80017a4:	f7ff fa1a 	bl	8000bdc <HAL_GetTick>
 80017a8:	1bc0      	subs	r0, r0, r7
 80017aa:	2802      	cmp	r0, #2
 80017ac:	d9f6      	bls.n	800179c <HAL_RCC_OscConfig+0x2f0>
 80017ae:	e6de      	b.n	800156e <HAL_RCC_OscConfig+0xc2>
 80017b0:	40021000 	.word	0x40021000
 80017b4:	fffeffff 	.word	0xfffeffff
 80017b8:	fffbffff 	.word	0xfffbffff
 80017bc:	40007000 	.word	0x40007000
 80017c0:	00001388 	.word	0x00001388
 80017c4:	efffffff 	.word	0xefffffff
 80017c8:	220c      	movs	r2, #12
 80017ca:	4c26      	ldr	r4, [pc, #152]	; (8001864 <HAL_RCC_OscConfig+0x3b8>)
 80017cc:	2001      	movs	r0, #1
 80017ce:	6863      	ldr	r3, [r4, #4]
 80017d0:	4013      	ands	r3, r2
 80017d2:	2b08      	cmp	r3, #8
 80017d4:	d100      	bne.n	80017d8 <HAL_RCC_OscConfig+0x32c>
 80017d6:	e6b3      	b.n	8001540 <HAL_RCC_OscConfig+0x94>
 80017d8:	6823      	ldr	r3, [r4, #0]
 80017da:	4a23      	ldr	r2, [pc, #140]	; (8001868 <HAL_RCC_OscConfig+0x3bc>)
 80017dc:	4013      	ands	r3, r2
 80017de:	6023      	str	r3, [r4, #0]
 80017e0:	2902      	cmp	r1, #2
 80017e2:	d12f      	bne.n	8001844 <HAL_RCC_OscConfig+0x398>
 80017e4:	f7ff f9fa 	bl	8000bdc <HAL_GetTick>
 80017e8:	2680      	movs	r6, #128	; 0x80
 80017ea:	0007      	movs	r7, r0
 80017ec:	04b6      	lsls	r6, r6, #18
 80017ee:	6823      	ldr	r3, [r4, #0]
 80017f0:	4233      	tst	r3, r6
 80017f2:	d121      	bne.n	8001838 <HAL_RCC_OscConfig+0x38c>
 80017f4:	220f      	movs	r2, #15
 80017f6:	6ae3      	ldr	r3, [r4, #44]	; 0x2c
 80017f8:	4393      	bics	r3, r2
 80017fa:	6aea      	ldr	r2, [r5, #44]	; 0x2c
 80017fc:	4313      	orrs	r3, r2
 80017fe:	62e3      	str	r3, [r4, #44]	; 0x2c
 8001800:	6a69      	ldr	r1, [r5, #36]	; 0x24
 8001802:	6aab      	ldr	r3, [r5, #40]	; 0x28
 8001804:	6862      	ldr	r2, [r4, #4]
 8001806:	430b      	orrs	r3, r1
 8001808:	4918      	ldr	r1, [pc, #96]	; (800186c <HAL_RCC_OscConfig+0x3c0>)
 800180a:	2580      	movs	r5, #128	; 0x80
 800180c:	400a      	ands	r2, r1
 800180e:	4313      	orrs	r3, r2
 8001810:	6063      	str	r3, [r4, #4]
 8001812:	2380      	movs	r3, #128	; 0x80
 8001814:	6822      	ldr	r2, [r4, #0]
 8001816:	045b      	lsls	r3, r3, #17
 8001818:	4313      	orrs	r3, r2
 800181a:	6023      	str	r3, [r4, #0]
 800181c:	f7ff f9de 	bl	8000bdc <HAL_GetTick>
 8001820:	0006      	movs	r6, r0
 8001822:	04ad      	lsls	r5, r5, #18
 8001824:	6823      	ldr	r3, [r4, #0]
 8001826:	422b      	tst	r3, r5
 8001828:	d000      	beq.n	800182c <HAL_RCC_OscConfig+0x380>
 800182a:	e673      	b.n	8001514 <HAL_RCC_OscConfig+0x68>
 800182c:	f7ff f9d6 	bl	8000bdc <HAL_GetTick>
 8001830:	1b80      	subs	r0, r0, r6
 8001832:	2802      	cmp	r0, #2
 8001834:	d9f6      	bls.n	8001824 <HAL_RCC_OscConfig+0x378>
 8001836:	e69a      	b.n	800156e <HAL_RCC_OscConfig+0xc2>
 8001838:	f7ff f9d0 	bl	8000bdc <HAL_GetTick>
 800183c:	1bc0      	subs	r0, r0, r7
 800183e:	2802      	cmp	r0, #2
 8001840:	d9d5      	bls.n	80017ee <HAL_RCC_OscConfig+0x342>
 8001842:	e694      	b.n	800156e <HAL_RCC_OscConfig+0xc2>
 8001844:	f7ff f9ca 	bl	8000bdc <HAL_GetTick>
 8001848:	2580      	movs	r5, #128	; 0x80
 800184a:	0006      	movs	r6, r0
 800184c:	04ad      	lsls	r5, r5, #18
 800184e:	6823      	ldr	r3, [r4, #0]
 8001850:	422b      	tst	r3, r5
 8001852:	d100      	bne.n	8001856 <HAL_RCC_OscConfig+0x3aa>
 8001854:	e65e      	b.n	8001514 <HAL_RCC_OscConfig+0x68>
 8001856:	f7ff f9c1 	bl	8000bdc <HAL_GetTick>
 800185a:	1b80      	subs	r0, r0, r6
 800185c:	2802      	cmp	r0, #2
 800185e:	d9f6      	bls.n	800184e <HAL_RCC_OscConfig+0x3a2>
 8001860:	e685      	b.n	800156e <HAL_RCC_OscConfig+0xc2>
 8001862:	46c0      	nop			; (mov r8, r8)
 8001864:	40021000 	.word	0x40021000
 8001868:	feffffff 	.word	0xfeffffff
 800186c:	ffc2ffff 	.word	0xffc2ffff

08001870 <HAL_RCC_GetSysClockFreq>:
 8001870:	b570      	push	{r4, r5, r6, lr}
 8001872:	4c14      	ldr	r4, [pc, #80]	; (80018c4 <HAL_RCC_GetSysClockFreq+0x54>)
 8001874:	b088      	sub	sp, #32
 8001876:	2210      	movs	r2, #16
 8001878:	0021      	movs	r1, r4
 800187a:	4668      	mov	r0, sp
 800187c:	f001 fe32 	bl	80034e4 <memcpy>
 8001880:	0021      	movs	r1, r4
 8001882:	ad04      	add	r5, sp, #16
 8001884:	2210      	movs	r2, #16
 8001886:	3110      	adds	r1, #16
 8001888:	0028      	movs	r0, r5
 800188a:	f001 fe2b 	bl	80034e4 <memcpy>
 800188e:	220c      	movs	r2, #12
 8001890:	4e0d      	ldr	r6, [pc, #52]	; (80018c8 <HAL_RCC_GetSysClockFreq+0x58>)
 8001892:	6873      	ldr	r3, [r6, #4]
 8001894:	401a      	ands	r2, r3
 8001896:	2a08      	cmp	r2, #8
 8001898:	d111      	bne.n	80018be <HAL_RCC_GetSysClockFreq+0x4e>
 800189a:	200f      	movs	r0, #15
 800189c:	466a      	mov	r2, sp
 800189e:	0c99      	lsrs	r1, r3, #18
 80018a0:	4001      	ands	r1, r0
 80018a2:	5c54      	ldrb	r4, [r2, r1]
 80018a4:	6af2      	ldr	r2, [r6, #44]	; 0x2c
 80018a6:	4002      	ands	r2, r0
 80018a8:	5ca9      	ldrb	r1, [r5, r2]
 80018aa:	03db      	lsls	r3, r3, #15
 80018ac:	d505      	bpl.n	80018ba <HAL_RCC_GetSysClockFreq+0x4a>
 80018ae:	4807      	ldr	r0, [pc, #28]	; (80018cc <HAL_RCC_GetSysClockFreq+0x5c>)
 80018b0:	f7fe fc3c 	bl	800012c <__udivsi3>
 80018b4:	4360      	muls	r0, r4
 80018b6:	b008      	add	sp, #32
 80018b8:	bd70      	pop	{r4, r5, r6, pc}
 80018ba:	4805      	ldr	r0, [pc, #20]	; (80018d0 <HAL_RCC_GetSysClockFreq+0x60>)
 80018bc:	e7fa      	b.n	80018b4 <HAL_RCC_GetSysClockFreq+0x44>
 80018be:	4803      	ldr	r0, [pc, #12]	; (80018cc <HAL_RCC_GetSysClockFreq+0x5c>)
 80018c0:	e7f9      	b.n	80018b6 <HAL_RCC_GetSysClockFreq+0x46>
 80018c2:	46c0      	nop			; (mov r8, r8)
 80018c4:	08003d70 	.word	0x08003d70
 80018c8:	40021000 	.word	0x40021000
 80018cc:	007a1200 	.word	0x007a1200
 80018d0:	003d0900 	.word	0x003d0900

080018d4 <HAL_RCC_ClockConfig>:
 80018d4:	b5f7      	push	{r0, r1, r2, r4, r5, r6, r7, lr}
 80018d6:	2201      	movs	r2, #1
 80018d8:	4c43      	ldr	r4, [pc, #268]	; (80019e8 <HAL_RCC_ClockConfig+0x114>)
 80018da:	0006      	movs	r6, r0
 80018dc:	6823      	ldr	r3, [r4, #0]
 80018de:	000f      	movs	r7, r1
 80018e0:	4013      	ands	r3, r2
 80018e2:	428b      	cmp	r3, r1
 80018e4:	d31c      	bcc.n	8001920 <HAL_RCC_ClockConfig+0x4c>
 80018e6:	6832      	ldr	r2, [r6, #0]
 80018e8:	0793      	lsls	r3, r2, #30
 80018ea:	d423      	bmi.n	8001934 <HAL_RCC_ClockConfig+0x60>
 80018ec:	07d3      	lsls	r3, r2, #31
 80018ee:	d429      	bmi.n	8001944 <HAL_RCC_ClockConfig+0x70>
 80018f0:	2301      	movs	r3, #1
 80018f2:	6822      	ldr	r2, [r4, #0]
 80018f4:	401a      	ands	r2, r3
 80018f6:	4297      	cmp	r7, r2
 80018f8:	d367      	bcc.n	80019ca <HAL_RCC_ClockConfig+0xf6>
 80018fa:	6833      	ldr	r3, [r6, #0]
 80018fc:	4c3b      	ldr	r4, [pc, #236]	; (80019ec <HAL_RCC_ClockConfig+0x118>)
 80018fe:	075b      	lsls	r3, r3, #29
 8001900:	d46a      	bmi.n	80019d8 <HAL_RCC_ClockConfig+0x104>
 8001902:	f7ff ffb5 	bl	8001870 <HAL_RCC_GetSysClockFreq>
 8001906:	6863      	ldr	r3, [r4, #4]
 8001908:	4a39      	ldr	r2, [pc, #228]	; (80019f0 <HAL_RCC_ClockConfig+0x11c>)
 800190a:	061b      	lsls	r3, r3, #24
 800190c:	0f1b      	lsrs	r3, r3, #28
 800190e:	5cd3      	ldrb	r3, [r2, r3]
 8001910:	40d8      	lsrs	r0, r3
 8001912:	4b38      	ldr	r3, [pc, #224]	; (80019f4 <HAL_RCC_ClockConfig+0x120>)
 8001914:	6018      	str	r0, [r3, #0]
 8001916:	2000      	movs	r0, #0
 8001918:	f7ff f936 	bl	8000b88 <HAL_InitTick>
 800191c:	2000      	movs	r0, #0
 800191e:	e008      	b.n	8001932 <HAL_RCC_ClockConfig+0x5e>
 8001920:	6823      	ldr	r3, [r4, #0]
 8001922:	4393      	bics	r3, r2
 8001924:	430b      	orrs	r3, r1
 8001926:	6023      	str	r3, [r4, #0]
 8001928:	6823      	ldr	r3, [r4, #0]
 800192a:	4013      	ands	r3, r2
 800192c:	4299      	cmp	r1, r3
 800192e:	d0da      	beq.n	80018e6 <HAL_RCC_ClockConfig+0x12>
 8001930:	2001      	movs	r0, #1
 8001932:	bdfe      	pop	{r1, r2, r3, r4, r5, r6, r7, pc}
 8001934:	20f0      	movs	r0, #240	; 0xf0
 8001936:	492d      	ldr	r1, [pc, #180]	; (80019ec <HAL_RCC_ClockConfig+0x118>)
 8001938:	684b      	ldr	r3, [r1, #4]
 800193a:	4383      	bics	r3, r0
 800193c:	68b0      	ldr	r0, [r6, #8]
 800193e:	4303      	orrs	r3, r0
 8001940:	604b      	str	r3, [r1, #4]
 8001942:	e7d3      	b.n	80018ec <HAL_RCC_ClockConfig+0x18>
 8001944:	4d29      	ldr	r5, [pc, #164]	; (80019ec <HAL_RCC_ClockConfig+0x118>)
 8001946:	6872      	ldr	r2, [r6, #4]
 8001948:	682b      	ldr	r3, [r5, #0]
 800194a:	2a01      	cmp	r2, #1
 800194c:	d11a      	bne.n	8001984 <HAL_RCC_ClockConfig+0xb0>
 800194e:	039b      	lsls	r3, r3, #14
 8001950:	d5ee      	bpl.n	8001930 <HAL_RCC_ClockConfig+0x5c>
 8001952:	2103      	movs	r1, #3
 8001954:	686b      	ldr	r3, [r5, #4]
 8001956:	438b      	bics	r3, r1
 8001958:	4313      	orrs	r3, r2
 800195a:	606b      	str	r3, [r5, #4]
 800195c:	f7ff f93e 	bl	8000bdc <HAL_GetTick>
 8001960:	6873      	ldr	r3, [r6, #4]
 8001962:	9001      	str	r0, [sp, #4]
 8001964:	2b01      	cmp	r3, #1
 8001966:	d115      	bne.n	8001994 <HAL_RCC_ClockConfig+0xc0>
 8001968:	220c      	movs	r2, #12
 800196a:	686b      	ldr	r3, [r5, #4]
 800196c:	4013      	ands	r3, r2
 800196e:	2b04      	cmp	r3, #4
 8001970:	d0be      	beq.n	80018f0 <HAL_RCC_ClockConfig+0x1c>
 8001972:	f7ff f933 	bl	8000bdc <HAL_GetTick>
 8001976:	9b01      	ldr	r3, [sp, #4]
 8001978:	1ac0      	subs	r0, r0, r3
 800197a:	4b1f      	ldr	r3, [pc, #124]	; (80019f8 <HAL_RCC_ClockConfig+0x124>)
 800197c:	4298      	cmp	r0, r3
 800197e:	d9f3      	bls.n	8001968 <HAL_RCC_ClockConfig+0x94>
 8001980:	2003      	movs	r0, #3
 8001982:	e7d6      	b.n	8001932 <HAL_RCC_ClockConfig+0x5e>
 8001984:	2a02      	cmp	r2, #2
 8001986:	d102      	bne.n	800198e <HAL_RCC_ClockConfig+0xba>
 8001988:	019b      	lsls	r3, r3, #6
 800198a:	d4e2      	bmi.n	8001952 <HAL_RCC_ClockConfig+0x7e>
 800198c:	e7d0      	b.n	8001930 <HAL_RCC_ClockConfig+0x5c>
 800198e:	079b      	lsls	r3, r3, #30
 8001990:	d4df      	bmi.n	8001952 <HAL_RCC_ClockConfig+0x7e>
 8001992:	e7cd      	b.n	8001930 <HAL_RCC_ClockConfig+0x5c>
 8001994:	2b02      	cmp	r3, #2
 8001996:	d012      	beq.n	80019be <HAL_RCC_ClockConfig+0xea>
 8001998:	220c      	movs	r2, #12
 800199a:	686b      	ldr	r3, [r5, #4]
 800199c:	4213      	tst	r3, r2
 800199e:	d0a7      	beq.n	80018f0 <HAL_RCC_ClockConfig+0x1c>
 80019a0:	f7ff f91c 	bl	8000bdc <HAL_GetTick>
 80019a4:	9b01      	ldr	r3, [sp, #4]
 80019a6:	1ac0      	subs	r0, r0, r3
 80019a8:	4b13      	ldr	r3, [pc, #76]	; (80019f8 <HAL_RCC_ClockConfig+0x124>)
 80019aa:	4298      	cmp	r0, r3
 80019ac:	d9f4      	bls.n	8001998 <HAL_RCC_ClockConfig+0xc4>
 80019ae:	e7e7      	b.n	8001980 <HAL_RCC_ClockConfig+0xac>
 80019b0:	f7ff f914 	bl	8000bdc <HAL_GetTick>
 80019b4:	9b01      	ldr	r3, [sp, #4]
 80019b6:	1ac0      	subs	r0, r0, r3
 80019b8:	4b0f      	ldr	r3, [pc, #60]	; (80019f8 <HAL_RCC_ClockConfig+0x124>)
 80019ba:	4298      	cmp	r0, r3
 80019bc:	d8e0      	bhi.n	8001980 <HAL_RCC_ClockConfig+0xac>
 80019be:	220c      	movs	r2, #12
 80019c0:	686b      	ldr	r3, [r5, #4]
 80019c2:	4013      	ands	r3, r2
 80019c4:	2b08      	cmp	r3, #8
 80019c6:	d1f3      	bne.n	80019b0 <HAL_RCC_ClockConfig+0xdc>
 80019c8:	e792      	b.n	80018f0 <HAL_RCC_ClockConfig+0x1c>
 80019ca:	6822      	ldr	r2, [r4, #0]
 80019cc:	439a      	bics	r2, r3
 80019ce:	6022      	str	r2, [r4, #0]
 80019d0:	6822      	ldr	r2, [r4, #0]
 80019d2:	421a      	tst	r2, r3
 80019d4:	d1ac      	bne.n	8001930 <HAL_RCC_ClockConfig+0x5c>
 80019d6:	e790      	b.n	80018fa <HAL_RCC_ClockConfig+0x26>
 80019d8:	6863      	ldr	r3, [r4, #4]
 80019da:	4a08      	ldr	r2, [pc, #32]	; (80019fc <HAL_RCC_ClockConfig+0x128>)
 80019dc:	4013      	ands	r3, r2
 80019de:	68f2      	ldr	r2, [r6, #12]
 80019e0:	4313      	orrs	r3, r2
 80019e2:	6063      	str	r3, [r4, #4]
 80019e4:	e78d      	b.n	8001902 <HAL_RCC_ClockConfig+0x2e>
 80019e6:	46c0      	nop			; (mov r8, r8)
 80019e8:	40022000 	.word	0x40022000
 80019ec:	40021000 	.word	0x40021000
 80019f0:	08003e36 	.word	0x08003e36
 80019f4:	20000000 	.word	0x20000000
 80019f8:	00001388 	.word	0x00001388
 80019fc:	fffff8ff 	.word	0xfffff8ff

08001a00 <HAL_RCC_GetHCLKFreq>:
 8001a00:	4b01      	ldr	r3, [pc, #4]	; (8001a08 <HAL_RCC_GetHCLKFreq+0x8>)
 8001a02:	6818      	ldr	r0, [r3, #0]
 8001a04:	4770      	bx	lr
 8001a06:	46c0      	nop			; (mov r8, r8)
 8001a08:	20000000 	.word	0x20000000

08001a0c <HAL_RCC_GetPCLK1Freq>:
 8001a0c:	4b04      	ldr	r3, [pc, #16]	; (8001a20 <HAL_RCC_GetPCLK1Freq+0x14>)
 8001a0e:	4a05      	ldr	r2, [pc, #20]	; (8001a24 <HAL_RCC_GetPCLK1Freq+0x18>)
 8001a10:	685b      	ldr	r3, [r3, #4]
 8001a12:	055b      	lsls	r3, r3, #21
 8001a14:	0f5b      	lsrs	r3, r3, #29
 8001a16:	5cd3      	ldrb	r3, [r2, r3]
 8001a18:	4a03      	ldr	r2, [pc, #12]	; (8001a28 <HAL_RCC_GetPCLK1Freq+0x1c>)
 8001a1a:	6810      	ldr	r0, [r2, #0]
 8001a1c:	40d8      	lsrs	r0, r3
 8001a1e:	4770      	bx	lr
 8001a20:	40021000 	.word	0x40021000
 8001a24:	08003e46 	.word	0x08003e46
 8001a28:	20000000 	.word	0x20000000

08001a2c <HAL_RCCEx_PeriphCLKConfig>:
 8001a2c:	b5f0      	push	{r4, r5, r6, r7, lr}
 8001a2e:	6803      	ldr	r3, [r0, #0]
 8001a30:	b085      	sub	sp, #20
 8001a32:	0005      	movs	r5, r0
 8001a34:	03db      	lsls	r3, r3, #15
 8001a36:	d528      	bpl.n	8001a8a <HAL_RCCEx_PeriphCLKConfig+0x5e>
 8001a38:	2280      	movs	r2, #128	; 0x80
 8001a3a:	2100      	movs	r1, #0
 8001a3c:	4c37      	ldr	r4, [pc, #220]	; (8001b1c <HAL_RCCEx_PeriphCLKConfig+0xf0>)
 8001a3e:	0552      	lsls	r2, r2, #21
 8001a40:	69e3      	ldr	r3, [r4, #28]
 8001a42:	9100      	str	r1, [sp, #0]
 8001a44:	4213      	tst	r3, r2
 8001a46:	d108      	bne.n	8001a5a <HAL_RCCEx_PeriphCLKConfig+0x2e>
 8001a48:	69e3      	ldr	r3, [r4, #28]
 8001a4a:	4313      	orrs	r3, r2
 8001a4c:	61e3      	str	r3, [r4, #28]
 8001a4e:	69e3      	ldr	r3, [r4, #28]
 8001a50:	4013      	ands	r3, r2
 8001a52:	9303      	str	r3, [sp, #12]
 8001a54:	9b03      	ldr	r3, [sp, #12]
 8001a56:	2301      	movs	r3, #1
 8001a58:	9300      	str	r3, [sp, #0]
 8001a5a:	2780      	movs	r7, #128	; 0x80
 8001a5c:	4e30      	ldr	r6, [pc, #192]	; (8001b20 <HAL_RCCEx_PeriphCLKConfig+0xf4>)
 8001a5e:	007f      	lsls	r7, r7, #1
 8001a60:	6833      	ldr	r3, [r6, #0]
 8001a62:	423b      	tst	r3, r7
 8001a64:	d026      	beq.n	8001ab4 <HAL_RCCEx_PeriphCLKConfig+0x88>
 8001a66:	22c0      	movs	r2, #192	; 0xc0
 8001a68:	6a23      	ldr	r3, [r4, #32]
 8001a6a:	0092      	lsls	r2, r2, #2
 8001a6c:	4013      	ands	r3, r2
 8001a6e:	4e2d      	ldr	r6, [pc, #180]	; (8001b24 <HAL_RCCEx_PeriphCLKConfig+0xf8>)
 8001a70:	d132      	bne.n	8001ad8 <HAL_RCCEx_PeriphCLKConfig+0xac>
 8001a72:	6a23      	ldr	r3, [r4, #32]
 8001a74:	401e      	ands	r6, r3
 8001a76:	686b      	ldr	r3, [r5, #4]
 8001a78:	431e      	orrs	r6, r3
 8001a7a:	9b00      	ldr	r3, [sp, #0]
 8001a7c:	6226      	str	r6, [r4, #32]
 8001a7e:	2b01      	cmp	r3, #1
 8001a80:	d103      	bne.n	8001a8a <HAL_RCCEx_PeriphCLKConfig+0x5e>
 8001a82:	69e3      	ldr	r3, [r4, #28]
 8001a84:	4a28      	ldr	r2, [pc, #160]	; (8001b28 <HAL_RCCEx_PeriphCLKConfig+0xfc>)
 8001a86:	4013      	ands	r3, r2
 8001a88:	61e3      	str	r3, [r4, #28]
 8001a8a:	682a      	ldr	r2, [r5, #0]
 8001a8c:	07d3      	lsls	r3, r2, #31
 8001a8e:	d506      	bpl.n	8001a9e <HAL_RCCEx_PeriphCLKConfig+0x72>
 8001a90:	2003      	movs	r0, #3
 8001a92:	4922      	ldr	r1, [pc, #136]	; (8001b1c <HAL_RCCEx_PeriphCLKConfig+0xf0>)
 8001a94:	6b0b      	ldr	r3, [r1, #48]	; 0x30
 8001a96:	4383      	bics	r3, r0
 8001a98:	68a8      	ldr	r0, [r5, #8]
 8001a9a:	4303      	orrs	r3, r0
 8001a9c:	630b      	str	r3, [r1, #48]	; 0x30
 8001a9e:	2000      	movs	r0, #0
 8001aa0:	0693      	lsls	r3, r2, #26
 8001aa2:	d517      	bpl.n	8001ad4 <HAL_RCCEx_PeriphCLKConfig+0xa8>
 8001aa4:	2110      	movs	r1, #16
 8001aa6:	4a1d      	ldr	r2, [pc, #116]	; (8001b1c <HAL_RCCEx_PeriphCLKConfig+0xf0>)
 8001aa8:	6b13      	ldr	r3, [r2, #48]	; 0x30
 8001aaa:	438b      	bics	r3, r1
 8001aac:	68e9      	ldr	r1, [r5, #12]
 8001aae:	430b      	orrs	r3, r1
 8001ab0:	6313      	str	r3, [r2, #48]	; 0x30
 8001ab2:	e00f      	b.n	8001ad4 <HAL_RCCEx_PeriphCLKConfig+0xa8>
 8001ab4:	6833      	ldr	r3, [r6, #0]
 8001ab6:	433b      	orrs	r3, r7
 8001ab8:	6033      	str	r3, [r6, #0]
 8001aba:	f7ff f88f 	bl	8000bdc <HAL_GetTick>
 8001abe:	9001      	str	r0, [sp, #4]
 8001ac0:	6833      	ldr	r3, [r6, #0]
 8001ac2:	423b      	tst	r3, r7
 8001ac4:	d1cf      	bne.n	8001a66 <HAL_RCCEx_PeriphCLKConfig+0x3a>
 8001ac6:	f7ff f889 	bl	8000bdc <HAL_GetTick>
 8001aca:	9b01      	ldr	r3, [sp, #4]
 8001acc:	1ac0      	subs	r0, r0, r3
 8001ace:	2864      	cmp	r0, #100	; 0x64
 8001ad0:	d9f6      	bls.n	8001ac0 <HAL_RCCEx_PeriphCLKConfig+0x94>
 8001ad2:	2003      	movs	r0, #3
 8001ad4:	b005      	add	sp, #20
 8001ad6:	bdf0      	pop	{r4, r5, r6, r7, pc}
 8001ad8:	6869      	ldr	r1, [r5, #4]
 8001ada:	400a      	ands	r2, r1
 8001adc:	4293      	cmp	r3, r2
 8001ade:	d0c8      	beq.n	8001a72 <HAL_RCCEx_PeriphCLKConfig+0x46>
 8001ae0:	2380      	movs	r3, #128	; 0x80
 8001ae2:	6a22      	ldr	r2, [r4, #32]
 8001ae4:	6a20      	ldr	r0, [r4, #32]
 8001ae6:	0011      	movs	r1, r2
 8001ae8:	025b      	lsls	r3, r3, #9
 8001aea:	4303      	orrs	r3, r0
 8001aec:	6223      	str	r3, [r4, #32]
 8001aee:	6a23      	ldr	r3, [r4, #32]
 8001af0:	480e      	ldr	r0, [pc, #56]	; (8001b2c <HAL_RCCEx_PeriphCLKConfig+0x100>)
 8001af2:	4031      	ands	r1, r6
 8001af4:	4003      	ands	r3, r0
 8001af6:	6223      	str	r3, [r4, #32]
 8001af8:	6221      	str	r1, [r4, #32]
 8001afa:	07d3      	lsls	r3, r2, #31
 8001afc:	d5b9      	bpl.n	8001a72 <HAL_RCCEx_PeriphCLKConfig+0x46>
 8001afe:	f7ff f86d 	bl	8000bdc <HAL_GetTick>
 8001b02:	0007      	movs	r7, r0
 8001b04:	2202      	movs	r2, #2
 8001b06:	6a23      	ldr	r3, [r4, #32]
 8001b08:	4213      	tst	r3, r2
 8001b0a:	d1b2      	bne.n	8001a72 <HAL_RCCEx_PeriphCLKConfig+0x46>
 8001b0c:	f7ff f866 	bl	8000bdc <HAL_GetTick>
 8001b10:	4b07      	ldr	r3, [pc, #28]	; (8001b30 <HAL_RCCEx_PeriphCLKConfig+0x104>)
 8001b12:	1bc0      	subs	r0, r0, r7
 8001b14:	4298      	cmp	r0, r3
 8001b16:	d9f5      	bls.n	8001b04 <HAL_RCCEx_PeriphCLKConfig+0xd8>
 8001b18:	e7db      	b.n	8001ad2 <HAL_RCCEx_PeriphCLKConfig+0xa6>
 8001b1a:	46c0      	nop			; (mov r8, r8)
 8001b1c:	40021000 	.word	0x40021000
 8001b20:	40007000 	.word	0x40007000
 8001b24:	fffffcff 	.word	0xfffffcff
 8001b28:	efffffff 	.word	0xefffffff
 8001b2c:	fffeffff 	.word	0xfffeffff
 8001b30:	00001388 	.word	0x00001388

08001b34 <TIM_OC1_SetConfig>:
 8001b34:	2201      	movs	r2, #1
 8001b36:	6a03      	ldr	r3, [r0, #32]
 8001b38:	b570      	push	{r4, r5, r6, lr}
 8001b3a:	4393      	bics	r3, r2
 8001b3c:	6203      	str	r3, [r0, #32]
 8001b3e:	6a03      	ldr	r3, [r0, #32]
 8001b40:	6844      	ldr	r4, [r0, #4]
 8001b42:	6985      	ldr	r5, [r0, #24]
 8001b44:	3272      	adds	r2, #114	; 0x72
 8001b46:	4395      	bics	r5, r2
 8001b48:	680a      	ldr	r2, [r1, #0]
 8001b4a:	4315      	orrs	r5, r2
 8001b4c:	2202      	movs	r2, #2
 8001b4e:	4393      	bics	r3, r2
 8001b50:	688a      	ldr	r2, [r1, #8]
 8001b52:	4313      	orrs	r3, r2
 8001b54:	4a11      	ldr	r2, [pc, #68]	; (8001b9c <TIM_OC1_SetConfig+0x68>)
 8001b56:	4290      	cmp	r0, r2
 8001b58:	d005      	beq.n	8001b66 <TIM_OC1_SetConfig+0x32>
 8001b5a:	4e11      	ldr	r6, [pc, #68]	; (8001ba0 <TIM_OC1_SetConfig+0x6c>)
 8001b5c:	42b0      	cmp	r0, r6
 8001b5e:	d002      	beq.n	8001b66 <TIM_OC1_SetConfig+0x32>
 8001b60:	4e10      	ldr	r6, [pc, #64]	; (8001ba4 <TIM_OC1_SetConfig+0x70>)
 8001b62:	42b0      	cmp	r0, r6
 8001b64:	d113      	bne.n	8001b8e <TIM_OC1_SetConfig+0x5a>
 8001b66:	2608      	movs	r6, #8
 8001b68:	43b3      	bics	r3, r6
 8001b6a:	68ce      	ldr	r6, [r1, #12]
 8001b6c:	4333      	orrs	r3, r6
 8001b6e:	2604      	movs	r6, #4
 8001b70:	43b3      	bics	r3, r6
 8001b72:	4290      	cmp	r0, r2
 8001b74:	d005      	beq.n	8001b82 <TIM_OC1_SetConfig+0x4e>
 8001b76:	4a0a      	ldr	r2, [pc, #40]	; (8001ba0 <TIM_OC1_SetConfig+0x6c>)
 8001b78:	4290      	cmp	r0, r2
 8001b7a:	d002      	beq.n	8001b82 <TIM_OC1_SetConfig+0x4e>
 8001b7c:	4a09      	ldr	r2, [pc, #36]	; (8001ba4 <TIM_OC1_SetConfig+0x70>)
 8001b7e:	4290      	cmp	r0, r2
 8001b80:	d105      	bne.n	8001b8e <TIM_OC1_SetConfig+0x5a>
 8001b82:	4a09      	ldr	r2, [pc, #36]	; (8001ba8 <TIM_OC1_SetConfig+0x74>)
 8001b84:	698e      	ldr	r6, [r1, #24]
 8001b86:	4022      	ands	r2, r4
 8001b88:	694c      	ldr	r4, [r1, #20]
 8001b8a:	4334      	orrs	r4, r6
 8001b8c:	4314      	orrs	r4, r2
 8001b8e:	684a      	ldr	r2, [r1, #4]
 8001b90:	6044      	str	r4, [r0, #4]
 8001b92:	6185      	str	r5, [r0, #24]
 8001b94:	6342      	str	r2, [r0, #52]	; 0x34
 8001b96:	6203      	str	r3, [r0, #32]
 8001b98:	bd70      	pop	{r4, r5, r6, pc}
 8001b9a:	46c0      	nop			; (mov r8, r8)
 8001b9c:	40012c00 	.word	0x40012c00
 8001ba0:	40014400 	.word	0x40014400
 8001ba4:	40014800 	.word	0x40014800
 8001ba8:	fffffcff 	.word	0xfffffcff

08001bac <TIM_OC3_SetConfig>:
 8001bac:	b570      	push	{r4, r5, r6, lr}
 8001bae:	2573      	movs	r5, #115	; 0x73
 8001bb0:	6a03      	ldr	r3, [r0, #32]
 8001bb2:	4a16      	ldr	r2, [pc, #88]	; (8001c0c <TIM_OC3_SetConfig+0x60>)
 8001bb4:	4013      	ands	r3, r2
 8001bb6:	6203      	str	r3, [r0, #32]
 8001bb8:	6a03      	ldr	r3, [r0, #32]
 8001bba:	6842      	ldr	r2, [r0, #4]
 8001bbc:	69c4      	ldr	r4, [r0, #28]
 8001bbe:	43ac      	bics	r4, r5
 8001bc0:	680d      	ldr	r5, [r1, #0]
 8001bc2:	432c      	orrs	r4, r5
 8001bc4:	4d12      	ldr	r5, [pc, #72]	; (8001c10 <TIM_OC3_SetConfig+0x64>)
 8001bc6:	402b      	ands	r3, r5
 8001bc8:	688d      	ldr	r5, [r1, #8]
 8001bca:	022d      	lsls	r5, r5, #8
 8001bcc:	432b      	orrs	r3, r5
 8001bce:	4d11      	ldr	r5, [pc, #68]	; (8001c14 <TIM_OC3_SetConfig+0x68>)
 8001bd0:	42a8      	cmp	r0, r5
 8001bd2:	d10e      	bne.n	8001bf2 <TIM_OC3_SetConfig+0x46>
 8001bd4:	4d10      	ldr	r5, [pc, #64]	; (8001c18 <TIM_OC3_SetConfig+0x6c>)
 8001bd6:	401d      	ands	r5, r3
 8001bd8:	68cb      	ldr	r3, [r1, #12]
 8001bda:	021b      	lsls	r3, r3, #8
 8001bdc:	432b      	orrs	r3, r5
 8001bde:	4d0f      	ldr	r5, [pc, #60]	; (8001c1c <TIM_OC3_SetConfig+0x70>)
 8001be0:	402b      	ands	r3, r5
 8001be2:	4d0f      	ldr	r5, [pc, #60]	; (8001c20 <TIM_OC3_SetConfig+0x74>)
 8001be4:	694e      	ldr	r6, [r1, #20]
 8001be6:	4015      	ands	r5, r2
 8001be8:	698a      	ldr	r2, [r1, #24]
 8001bea:	4332      	orrs	r2, r6
 8001bec:	0112      	lsls	r2, r2, #4
 8001bee:	432a      	orrs	r2, r5
 8001bf0:	e005      	b.n	8001bfe <TIM_OC3_SetConfig+0x52>
 8001bf2:	4d0c      	ldr	r5, [pc, #48]	; (8001c24 <TIM_OC3_SetConfig+0x78>)
 8001bf4:	42a8      	cmp	r0, r5
 8001bf6:	d0f4      	beq.n	8001be2 <TIM_OC3_SetConfig+0x36>
 8001bf8:	4d0b      	ldr	r5, [pc, #44]	; (8001c28 <TIM_OC3_SetConfig+0x7c>)
 8001bfa:	42a8      	cmp	r0, r5
 8001bfc:	d0f1      	beq.n	8001be2 <TIM_OC3_SetConfig+0x36>
 8001bfe:	6042      	str	r2, [r0, #4]
 8001c00:	684a      	ldr	r2, [r1, #4]
 8001c02:	61c4      	str	r4, [r0, #28]
 8001c04:	63c2      	str	r2, [r0, #60]	; 0x3c
 8001c06:	6203      	str	r3, [r0, #32]
 8001c08:	bd70      	pop	{r4, r5, r6, pc}
 8001c0a:	46c0      	nop			; (mov r8, r8)
 8001c0c:	fffffeff 	.word	0xfffffeff
 8001c10:	fffffdff 	.word	0xfffffdff
 8001c14:	40012c00 	.word	0x40012c00
 8001c18:	fffff7ff 	.word	0xfffff7ff
 8001c1c:	fffffbff 	.word	0xfffffbff
 8001c20:	ffffcfff 	.word	0xffffcfff
 8001c24:	40014400 	.word	0x40014400
 8001c28:	40014800 	.word	0x40014800

08001c2c <TIM_OC4_SetConfig>:
 8001c2c:	6a03      	ldr	r3, [r0, #32]
 8001c2e:	4a12      	ldr	r2, [pc, #72]	; (8001c78 <TIM_OC4_SetConfig+0x4c>)
 8001c30:	b530      	push	{r4, r5, lr}
 8001c32:	4013      	ands	r3, r2
 8001c34:	6203      	str	r3, [r0, #32]
 8001c36:	6a02      	ldr	r2, [r0, #32]
 8001c38:	4c10      	ldr	r4, [pc, #64]	; (8001c7c <TIM_OC4_SetConfig+0x50>)
 8001c3a:	6843      	ldr	r3, [r0, #4]
 8001c3c:	69c5      	ldr	r5, [r0, #28]
 8001c3e:	4025      	ands	r5, r4
 8001c40:	680c      	ldr	r4, [r1, #0]
 8001c42:	0224      	lsls	r4, r4, #8
 8001c44:	4325      	orrs	r5, r4
 8001c46:	4c0e      	ldr	r4, [pc, #56]	; (8001c80 <TIM_OC4_SetConfig+0x54>)
 8001c48:	4022      	ands	r2, r4
 8001c4a:	688c      	ldr	r4, [r1, #8]
 8001c4c:	0324      	lsls	r4, r4, #12
 8001c4e:	4322      	orrs	r2, r4
 8001c50:	4c0c      	ldr	r4, [pc, #48]	; (8001c84 <TIM_OC4_SetConfig+0x58>)
 8001c52:	42a0      	cmp	r0, r4
 8001c54:	d005      	beq.n	8001c62 <TIM_OC4_SetConfig+0x36>
 8001c56:	4c0c      	ldr	r4, [pc, #48]	; (8001c88 <TIM_OC4_SetConfig+0x5c>)
 8001c58:	42a0      	cmp	r0, r4
 8001c5a:	d002      	beq.n	8001c62 <TIM_OC4_SetConfig+0x36>
 8001c5c:	4c0b      	ldr	r4, [pc, #44]	; (8001c8c <TIM_OC4_SetConfig+0x60>)
 8001c5e:	42a0      	cmp	r0, r4
 8001c60:	d104      	bne.n	8001c6c <TIM_OC4_SetConfig+0x40>
 8001c62:	4c0b      	ldr	r4, [pc, #44]	; (8001c90 <TIM_OC4_SetConfig+0x64>)
 8001c64:	4023      	ands	r3, r4
 8001c66:	694c      	ldr	r4, [r1, #20]
 8001c68:	01a4      	lsls	r4, r4, #6
 8001c6a:	4323      	orrs	r3, r4
 8001c6c:	6043      	str	r3, [r0, #4]
 8001c6e:	684b      	ldr	r3, [r1, #4]
 8001c70:	61c5      	str	r5, [r0, #28]
 8001c72:	6403      	str	r3, [r0, #64]	; 0x40
 8001c74:	6202      	str	r2, [r0, #32]
 8001c76:	bd30      	pop	{r4, r5, pc}
 8001c78:	ffffefff 	.word	0xffffefff
 8001c7c:	ffff8cff 	.word	0xffff8cff
 8001c80:	ffffdfff 	.word	0xffffdfff
 8001c84:	40012c00 	.word	0x40012c00
 8001c88:	40014400 	.word	0x40014400
 8001c8c:	40014800 	.word	0x40014800
 8001c90:	ffffbfff 	.word	0xffffbfff

08001c94 <HAL_TIM_Base_Start_IT>:
 8001c94:	2201      	movs	r2, #1
 8001c96:	6803      	ldr	r3, [r0, #0]
 8001c98:	68d9      	ldr	r1, [r3, #12]
 8001c9a:	2000      	movs	r0, #0
 8001c9c:	4311      	orrs	r1, r2
 8001c9e:	60d9      	str	r1, [r3, #12]
 8001ca0:	6819      	ldr	r1, [r3, #0]
 8001ca2:	430a      	orrs	r2, r1
 8001ca4:	601a      	str	r2, [r3, #0]
 8001ca6:	4770      	bx	lr

08001ca8 <HAL_TIM_TriggerCallback>:
 8001ca8:	4770      	bx	lr

08001caa <HAL_TIM_IRQHandler>:
 8001caa:	2202      	movs	r2, #2
 8001cac:	6803      	ldr	r3, [r0, #0]
 8001cae:	b510      	push	{r4, lr}
 8001cb0:	6919      	ldr	r1, [r3, #16]
 8001cb2:	0004      	movs	r4, r0
 8001cb4:	4211      	tst	r1, r2
 8001cb6:	d00e      	beq.n	8001cd6 <HAL_TIM_IRQHandler+0x2c>
 8001cb8:	68d9      	ldr	r1, [r3, #12]
 8001cba:	4211      	tst	r1, r2
 8001cbc:	d00b      	beq.n	8001cd6 <HAL_TIM_IRQHandler+0x2c>
 8001cbe:	3a05      	subs	r2, #5
 8001cc0:	611a      	str	r2, [r3, #16]
 8001cc2:	699b      	ldr	r3, [r3, #24]
 8001cc4:	3204      	adds	r2, #4
 8001cc6:	7702      	strb	r2, [r0, #28]
 8001cc8:	079b      	lsls	r3, r3, #30
 8001cca:	d100      	bne.n	8001cce <HAL_TIM_IRQHandler+0x24>
 8001ccc:	e079      	b.n	8001dc2 <HAL_TIM_IRQHandler+0x118>
 8001cce:	f000 fded 	bl	80028ac <HAL_TIM_IC_CaptureCallback>
 8001cd2:	2300      	movs	r3, #0
 8001cd4:	7723      	strb	r3, [r4, #28]
 8001cd6:	2204      	movs	r2, #4
 8001cd8:	6823      	ldr	r3, [r4, #0]
 8001cda:	6919      	ldr	r1, [r3, #16]
 8001cdc:	4211      	tst	r1, r2
 8001cde:	d010      	beq.n	8001d02 <HAL_TIM_IRQHandler+0x58>
 8001ce0:	68d9      	ldr	r1, [r3, #12]
 8001ce2:	4211      	tst	r1, r2
 8001ce4:	d00d      	beq.n	8001d02 <HAL_TIM_IRQHandler+0x58>
 8001ce6:	3a09      	subs	r2, #9
 8001ce8:	611a      	str	r2, [r3, #16]
 8001cea:	3207      	adds	r2, #7
 8001cec:	7722      	strb	r2, [r4, #28]
 8001cee:	699a      	ldr	r2, [r3, #24]
 8001cf0:	23c0      	movs	r3, #192	; 0xc0
 8001cf2:	009b      	lsls	r3, r3, #2
 8001cf4:	0020      	movs	r0, r4
 8001cf6:	421a      	tst	r2, r3
 8001cf8:	d069      	beq.n	8001dce <HAL_TIM_IRQHandler+0x124>
 8001cfa:	f000 fdd7 	bl	80028ac <HAL_TIM_IC_CaptureCallback>
 8001cfe:	2300      	movs	r3, #0
 8001d00:	7723      	strb	r3, [r4, #28]
 8001d02:	2208      	movs	r2, #8
 8001d04:	6823      	ldr	r3, [r4, #0]
 8001d06:	6919      	ldr	r1, [r3, #16]
 8001d08:	4211      	tst	r1, r2
 8001d0a:	d00e      	beq.n	8001d2a <HAL_TIM_IRQHandler+0x80>
 8001d0c:	68d9      	ldr	r1, [r3, #12]
 8001d0e:	4211      	tst	r1, r2
 8001d10:	d00b      	beq.n	8001d2a <HAL_TIM_IRQHandler+0x80>
 8001d12:	3a11      	subs	r2, #17
 8001d14:	611a      	str	r2, [r3, #16]
 8001d16:	69db      	ldr	r3, [r3, #28]
 8001d18:	320d      	adds	r2, #13
 8001d1a:	7722      	strb	r2, [r4, #28]
 8001d1c:	0020      	movs	r0, r4
 8001d1e:	079b      	lsls	r3, r3, #30
 8001d20:	d05b      	beq.n	8001dda <HAL_TIM_IRQHandler+0x130>
 8001d22:	f000 fdc3 	bl	80028ac <HAL_TIM_IC_CaptureCallback>
 8001d26:	2300      	movs	r3, #0
 8001d28:	7723      	strb	r3, [r4, #28]
 8001d2a:	2210      	movs	r2, #16
 8001d2c:	6823      	ldr	r3, [r4, #0]
 8001d2e:	6919      	ldr	r1, [r3, #16]
 8001d30:	4211      	tst	r1, r2
 8001d32:	d010      	beq.n	8001d56 <HAL_TIM_IRQHandler+0xac>
 8001d34:	68d9      	ldr	r1, [r3, #12]
 8001d36:	4211      	tst	r1, r2
 8001d38:	d00d      	beq.n	8001d56 <HAL_TIM_IRQHandler+0xac>
 8001d3a:	3a21      	subs	r2, #33	; 0x21
 8001d3c:	611a      	str	r2, [r3, #16]
 8001d3e:	3219      	adds	r2, #25
 8001d40:	7722      	strb	r2, [r4, #28]
 8001d42:	69da      	ldr	r2, [r3, #28]
 8001d44:	23c0      	movs	r3, #192	; 0xc0
 8001d46:	009b      	lsls	r3, r3, #2
 8001d48:	0020      	movs	r0, r4
 8001d4a:	421a      	tst	r2, r3
 8001d4c:	d04b      	beq.n	8001de6 <HAL_TIM_IRQHandler+0x13c>
 8001d4e:	f000 fdad 	bl	80028ac <HAL_TIM_IC_CaptureCallback>
 8001d52:	2300      	movs	r3, #0
 8001d54:	7723      	strb	r3, [r4, #28]
 8001d56:	2201      	movs	r2, #1
 8001d58:	6823      	ldr	r3, [r4, #0]
 8001d5a:	6919      	ldr	r1, [r3, #16]
 8001d5c:	4211      	tst	r1, r2
 8001d5e:	d007      	beq.n	8001d70 <HAL_TIM_IRQHandler+0xc6>
 8001d60:	68d9      	ldr	r1, [r3, #12]
 8001d62:	4211      	tst	r1, r2
 8001d64:	d004      	beq.n	8001d70 <HAL_TIM_IRQHandler+0xc6>
 8001d66:	3a03      	subs	r2, #3
 8001d68:	611a      	str	r2, [r3, #16]
 8001d6a:	0020      	movs	r0, r4
 8001d6c:	f000 fd7a 	bl	8002864 <HAL_TIM_PeriodElapsedCallback>
 8001d70:	2280      	movs	r2, #128	; 0x80
 8001d72:	6823      	ldr	r3, [r4, #0]
 8001d74:	6919      	ldr	r1, [r3, #16]
 8001d76:	4211      	tst	r1, r2
 8001d78:	d008      	beq.n	8001d8c <HAL_TIM_IRQHandler+0xe2>
 8001d7a:	68d9      	ldr	r1, [r3, #12]
 8001d7c:	4211      	tst	r1, r2
 8001d7e:	d005      	beq.n	8001d8c <HAL_TIM_IRQHandler+0xe2>
 8001d80:	3a02      	subs	r2, #2
 8001d82:	3aff      	subs	r2, #255	; 0xff
 8001d84:	611a      	str	r2, [r3, #16]
 8001d86:	0020      	movs	r0, r4
 8001d88:	f000 f9bc 	bl	8002104 <HAL_TIMEx_BreakCallback>
 8001d8c:	2240      	movs	r2, #64	; 0x40
 8001d8e:	6823      	ldr	r3, [r4, #0]
 8001d90:	6919      	ldr	r1, [r3, #16]
 8001d92:	4211      	tst	r1, r2
 8001d94:	d007      	beq.n	8001da6 <HAL_TIM_IRQHandler+0xfc>
 8001d96:	68d9      	ldr	r1, [r3, #12]
 8001d98:	4211      	tst	r1, r2
 8001d9a:	d004      	beq.n	8001da6 <HAL_TIM_IRQHandler+0xfc>
 8001d9c:	3a81      	subs	r2, #129	; 0x81
 8001d9e:	611a      	str	r2, [r3, #16]
 8001da0:	0020      	movs	r0, r4
 8001da2:	f7ff ff81 	bl	8001ca8 <HAL_TIM_TriggerCallback>
 8001da6:	2220      	movs	r2, #32
 8001da8:	6823      	ldr	r3, [r4, #0]
 8001daa:	6919      	ldr	r1, [r3, #16]
 8001dac:	4211      	tst	r1, r2
 8001dae:	d007      	beq.n	8001dc0 <HAL_TIM_IRQHandler+0x116>
 8001db0:	68d9      	ldr	r1, [r3, #12]
 8001db2:	4211      	tst	r1, r2
 8001db4:	d004      	beq.n	8001dc0 <HAL_TIM_IRQHandler+0x116>
 8001db6:	3a41      	subs	r2, #65	; 0x41
 8001db8:	611a      	str	r2, [r3, #16]
 8001dba:	0020      	movs	r0, r4
 8001dbc:	f000 f9a1 	bl	8002102 <HAL_TIMEx_CommutationCallback>
 8001dc0:	bd10      	pop	{r4, pc}
 8001dc2:	f000 fd6d 	bl	80028a0 <HAL_TIM_OC_DelayElapsedCallback>
 8001dc6:	0020      	movs	r0, r4
 8001dc8:	f000 fd76 	bl	80028b8 <HAL_TIM_PWM_PulseFinishedCallback>
 8001dcc:	e781      	b.n	8001cd2 <HAL_TIM_IRQHandler+0x28>
 8001dce:	f000 fd67 	bl	80028a0 <HAL_TIM_OC_DelayElapsedCallback>
 8001dd2:	0020      	movs	r0, r4
 8001dd4:	f000 fd70 	bl	80028b8 <HAL_TIM_PWM_PulseFinishedCallback>
 8001dd8:	e791      	b.n	8001cfe <HAL_TIM_IRQHandler+0x54>
 8001dda:	f000 fd61 	bl	80028a0 <HAL_TIM_OC_DelayElapsedCallback>
 8001dde:	0020      	movs	r0, r4
 8001de0:	f000 fd6a 	bl	80028b8 <HAL_TIM_PWM_PulseFinishedCallback>
 8001de4:	e79f      	b.n	8001d26 <HAL_TIM_IRQHandler+0x7c>
 8001de6:	f000 fd5b 	bl	80028a0 <HAL_TIM_OC_DelayElapsedCallback>
 8001dea:	0020      	movs	r0, r4
 8001dec:	f000 fd64 	bl	80028b8 <HAL_TIM_PWM_PulseFinishedCallback>
 8001df0:	e7af      	b.n	8001d52 <HAL_TIM_IRQHandler+0xa8>
	...

08001df4 <TIM_Base_SetConfig>:
 8001df4:	4a19      	ldr	r2, [pc, #100]	; (8001e5c <TIM_Base_SetConfig+0x68>)
 8001df6:	b510      	push	{r4, lr}
 8001df8:	6803      	ldr	r3, [r0, #0]
 8001dfa:	4290      	cmp	r0, r2
 8001dfc:	d002      	beq.n	8001e04 <TIM_Base_SetConfig+0x10>
 8001dfe:	4c18      	ldr	r4, [pc, #96]	; (8001e60 <TIM_Base_SetConfig+0x6c>)
 8001e00:	42a0      	cmp	r0, r4
 8001e02:	d108      	bne.n	8001e16 <TIM_Base_SetConfig+0x22>
 8001e04:	2470      	movs	r4, #112	; 0x70
 8001e06:	43a3      	bics	r3, r4
 8001e08:	684c      	ldr	r4, [r1, #4]
 8001e0a:	4323      	orrs	r3, r4
 8001e0c:	4290      	cmp	r0, r2
 8001e0e:	d00b      	beq.n	8001e28 <TIM_Base_SetConfig+0x34>
 8001e10:	4c13      	ldr	r4, [pc, #76]	; (8001e60 <TIM_Base_SetConfig+0x6c>)
 8001e12:	42a0      	cmp	r0, r4
 8001e14:	d008      	beq.n	8001e28 <TIM_Base_SetConfig+0x34>
 8001e16:	4c13      	ldr	r4, [pc, #76]	; (8001e64 <TIM_Base_SetConfig+0x70>)
 8001e18:	42a0      	cmp	r0, r4
 8001e1a:	d005      	beq.n	8001e28 <TIM_Base_SetConfig+0x34>
 8001e1c:	4c12      	ldr	r4, [pc, #72]	; (8001e68 <TIM_Base_SetConfig+0x74>)
 8001e1e:	42a0      	cmp	r0, r4
 8001e20:	d002      	beq.n	8001e28 <TIM_Base_SetConfig+0x34>
 8001e22:	4c12      	ldr	r4, [pc, #72]	; (8001e6c <TIM_Base_SetConfig+0x78>)
 8001e24:	42a0      	cmp	r0, r4
 8001e26:	d103      	bne.n	8001e30 <TIM_Base_SetConfig+0x3c>
 8001e28:	4c11      	ldr	r4, [pc, #68]	; (8001e70 <TIM_Base_SetConfig+0x7c>)
 8001e2a:	4023      	ands	r3, r4
 8001e2c:	68cc      	ldr	r4, [r1, #12]
 8001e2e:	4323      	orrs	r3, r4
 8001e30:	2480      	movs	r4, #128	; 0x80
 8001e32:	43a3      	bics	r3, r4
 8001e34:	694c      	ldr	r4, [r1, #20]
 8001e36:	4323      	orrs	r3, r4
 8001e38:	6003      	str	r3, [r0, #0]
 8001e3a:	688b      	ldr	r3, [r1, #8]
 8001e3c:	62c3      	str	r3, [r0, #44]	; 0x2c
 8001e3e:	680b      	ldr	r3, [r1, #0]
 8001e40:	6283      	str	r3, [r0, #40]	; 0x28
 8001e42:	4290      	cmp	r0, r2
 8001e44:	d005      	beq.n	8001e52 <TIM_Base_SetConfig+0x5e>
 8001e46:	4b08      	ldr	r3, [pc, #32]	; (8001e68 <TIM_Base_SetConfig+0x74>)
 8001e48:	4298      	cmp	r0, r3
 8001e4a:	d002      	beq.n	8001e52 <TIM_Base_SetConfig+0x5e>
 8001e4c:	4b07      	ldr	r3, [pc, #28]	; (8001e6c <TIM_Base_SetConfig+0x78>)
 8001e4e:	4298      	cmp	r0, r3
 8001e50:	d101      	bne.n	8001e56 <TIM_Base_SetConfig+0x62>
 8001e52:	690b      	ldr	r3, [r1, #16]
 8001e54:	6303      	str	r3, [r0, #48]	; 0x30
 8001e56:	2301      	movs	r3, #1
 8001e58:	6143      	str	r3, [r0, #20]
 8001e5a:	bd10      	pop	{r4, pc}
 8001e5c:	40012c00 	.word	0x40012c00
 8001e60:	40000400 	.word	0x40000400
 8001e64:	40002000 	.word	0x40002000
 8001e68:	40014400 	.word	0x40014400
 8001e6c:	40014800 	.word	0x40014800
 8001e70:	fffffcff 	.word	0xfffffcff

08001e74 <HAL_TIM_Base_Init>:
 8001e74:	b570      	push	{r4, r5, r6, lr}
 8001e76:	0004      	movs	r4, r0
 8001e78:	2001      	movs	r0, #1
 8001e7a:	2c00      	cmp	r4, #0
 8001e7c:	d014      	beq.n	8001ea8 <HAL_TIM_Base_Init+0x34>
 8001e7e:	0025      	movs	r5, r4
 8001e80:	353d      	adds	r5, #61	; 0x3d
 8001e82:	782b      	ldrb	r3, [r5, #0]
 8001e84:	b2db      	uxtb	r3, r3
 8001e86:	2b00      	cmp	r3, #0
 8001e88:	d105      	bne.n	8001e96 <HAL_TIM_Base_Init+0x22>
 8001e8a:	0022      	movs	r2, r4
 8001e8c:	323c      	adds	r2, #60	; 0x3c
 8001e8e:	7013      	strb	r3, [r2, #0]
 8001e90:	0020      	movs	r0, r4
 8001e92:	f001 f803 	bl	8002e9c <HAL_TIM_Base_MspInit>
 8001e96:	2302      	movs	r3, #2
 8001e98:	6820      	ldr	r0, [r4, #0]
 8001e9a:	702b      	strb	r3, [r5, #0]
 8001e9c:	1d21      	adds	r1, r4, #4
 8001e9e:	f7ff ffa9 	bl	8001df4 <TIM_Base_SetConfig>
 8001ea2:	2301      	movs	r3, #1
 8001ea4:	2000      	movs	r0, #0
 8001ea6:	702b      	strb	r3, [r5, #0]
 8001ea8:	bd70      	pop	{r4, r5, r6, pc}

08001eaa <HAL_TIM_PWM_Init>:
 8001eaa:	b570      	push	{r4, r5, r6, lr}
 8001eac:	0004      	movs	r4, r0
 8001eae:	2001      	movs	r0, #1
 8001eb0:	2c00      	cmp	r4, #0
 8001eb2:	d014      	beq.n	8001ede <HAL_TIM_PWM_Init+0x34>
 8001eb4:	0025      	movs	r5, r4
 8001eb6:	353d      	adds	r5, #61	; 0x3d
 8001eb8:	782b      	ldrb	r3, [r5, #0]
 8001eba:	b2db      	uxtb	r3, r3
 8001ebc:	2b00      	cmp	r3, #0
 8001ebe:	d105      	bne.n	8001ecc <HAL_TIM_PWM_Init+0x22>
 8001ec0:	0022      	movs	r2, r4
 8001ec2:	323c      	adds	r2, #60	; 0x3c
 8001ec4:	7013      	strb	r3, [r2, #0]
 8001ec6:	0020      	movs	r0, r4
 8001ec8:	f000 ffcc 	bl	8002e64 <HAL_TIM_PWM_MspInit>
 8001ecc:	2302      	movs	r3, #2
 8001ece:	6820      	ldr	r0, [r4, #0]
 8001ed0:	702b      	strb	r3, [r5, #0]
 8001ed2:	1d21      	adds	r1, r4, #4
 8001ed4:	f7ff ff8e 	bl	8001df4 <TIM_Base_SetConfig>
 8001ed8:	2301      	movs	r3, #1
 8001eda:	2000      	movs	r0, #0
 8001edc:	702b      	strb	r3, [r5, #0]
 8001ede:	bd70      	pop	{r4, r5, r6, pc}

08001ee0 <TIM_OC2_SetConfig>:
 8001ee0:	2210      	movs	r2, #16
 8001ee2:	6a03      	ldr	r3, [r0, #32]
 8001ee4:	b570      	push	{r4, r5, r6, lr}
 8001ee6:	4393      	bics	r3, r2
 8001ee8:	6203      	str	r3, [r0, #32]
 8001eea:	6a02      	ldr	r2, [r0, #32]
 8001eec:	4d15      	ldr	r5, [pc, #84]	; (8001f44 <TIM_OC2_SetConfig+0x64>)
 8001eee:	6843      	ldr	r3, [r0, #4]
 8001ef0:	6984      	ldr	r4, [r0, #24]
 8001ef2:	402c      	ands	r4, r5
 8001ef4:	680d      	ldr	r5, [r1, #0]
 8001ef6:	022d      	lsls	r5, r5, #8
 8001ef8:	432c      	orrs	r4, r5
 8001efa:	2520      	movs	r5, #32
 8001efc:	43aa      	bics	r2, r5
 8001efe:	688d      	ldr	r5, [r1, #8]
 8001f00:	012d      	lsls	r5, r5, #4
 8001f02:	432a      	orrs	r2, r5
 8001f04:	4d10      	ldr	r5, [pc, #64]	; (8001f48 <TIM_OC2_SetConfig+0x68>)
 8001f06:	42a8      	cmp	r0, r5
 8001f08:	d10f      	bne.n	8001f2a <TIM_OC2_SetConfig+0x4a>
 8001f0a:	2580      	movs	r5, #128	; 0x80
 8001f0c:	43aa      	bics	r2, r5
 8001f0e:	0015      	movs	r5, r2
 8001f10:	68ca      	ldr	r2, [r1, #12]
 8001f12:	0112      	lsls	r2, r2, #4
 8001f14:	432a      	orrs	r2, r5
 8001f16:	2540      	movs	r5, #64	; 0x40
 8001f18:	43aa      	bics	r2, r5
 8001f1a:	4d0c      	ldr	r5, [pc, #48]	; (8001f4c <TIM_OC2_SetConfig+0x6c>)
 8001f1c:	694e      	ldr	r6, [r1, #20]
 8001f1e:	401d      	ands	r5, r3
 8001f20:	698b      	ldr	r3, [r1, #24]
 8001f22:	4333      	orrs	r3, r6
 8001f24:	009b      	lsls	r3, r3, #2
 8001f26:	432b      	orrs	r3, r5
 8001f28:	e005      	b.n	8001f36 <TIM_OC2_SetConfig+0x56>
 8001f2a:	4d09      	ldr	r5, [pc, #36]	; (8001f50 <TIM_OC2_SetConfig+0x70>)
 8001f2c:	42a8      	cmp	r0, r5
 8001f2e:	d0f4      	beq.n	8001f1a <TIM_OC2_SetConfig+0x3a>
 8001f30:	4d08      	ldr	r5, [pc, #32]	; (8001f54 <TIM_OC2_SetConfig+0x74>)
 8001f32:	42a8      	cmp	r0, r5
 8001f34:	d0f1      	beq.n	8001f1a <TIM_OC2_SetConfig+0x3a>
 8001f36:	6043      	str	r3, [r0, #4]
 8001f38:	684b      	ldr	r3, [r1, #4]
 8001f3a:	6184      	str	r4, [r0, #24]
 8001f3c:	6383      	str	r3, [r0, #56]	; 0x38
 8001f3e:	6202      	str	r2, [r0, #32]
 8001f40:	bd70      	pop	{r4, r5, r6, pc}
 8001f42:	46c0      	nop			; (mov r8, r8)
 8001f44:	ffff8cff 	.word	0xffff8cff
 8001f48:	40012c00 	.word	0x40012c00
 8001f4c:	fffff3ff 	.word	0xfffff3ff
 8001f50:	40014400 	.word	0x40014400
 8001f54:	40014800 	.word	0x40014800

08001f58 <HAL_TIM_PWM_ConfigChannel>:
 8001f58:	b5f8      	push	{r3, r4, r5, r6, r7, lr}
 8001f5a:	0006      	movs	r6, r0
 8001f5c:	2302      	movs	r3, #2
 8001f5e:	363c      	adds	r6, #60	; 0x3c
 8001f60:	000d      	movs	r5, r1
 8001f62:	7831      	ldrb	r1, [r6, #0]
 8001f64:	0004      	movs	r4, r0
 8001f66:	0018      	movs	r0, r3
 8001f68:	2901      	cmp	r1, #1
 8001f6a:	d025      	beq.n	8001fb8 <HAL_TIM_PWM_ConfigChannel+0x60>
 8001f6c:	0027      	movs	r7, r4
 8001f6e:	2101      	movs	r1, #1
 8001f70:	373d      	adds	r7, #61	; 0x3d
 8001f72:	7031      	strb	r1, [r6, #0]
 8001f74:	703b      	strb	r3, [r7, #0]
 8001f76:	2a0c      	cmp	r2, #12
 8001f78:	d81a      	bhi.n	8001fb0 <HAL_TIM_PWM_ConfigChannel+0x58>
 8001f7a:	0010      	movs	r0, r2
 8001f7c:	f7fe f8cc 	bl	8000118 <__gnu_thumb1_case_uqi>
 8001f80:	18181807 	.word	0x18181807
 8001f84:	1818181d 	.word	0x1818181d
 8001f88:	1818182f 	.word	0x1818182f
 8001f8c:	41          	.byte	0x41
 8001f8d:	00          	.byte	0x00
 8001f8e:	0029      	movs	r1, r5
 8001f90:	6820      	ldr	r0, [r4, #0]
 8001f92:	f7ff fdcf 	bl	8001b34 <TIM_OC1_SetConfig>
 8001f96:	2208      	movs	r2, #8
 8001f98:	6823      	ldr	r3, [r4, #0]
 8001f9a:	6999      	ldr	r1, [r3, #24]
 8001f9c:	430a      	orrs	r2, r1
 8001f9e:	2104      	movs	r1, #4
 8001fa0:	619a      	str	r2, [r3, #24]
 8001fa2:	699a      	ldr	r2, [r3, #24]
 8001fa4:	438a      	bics	r2, r1
 8001fa6:	619a      	str	r2, [r3, #24]
 8001fa8:	699a      	ldr	r2, [r3, #24]
 8001faa:	6929      	ldr	r1, [r5, #16]
 8001fac:	430a      	orrs	r2, r1
 8001fae:	619a      	str	r2, [r3, #24]
 8001fb0:	2301      	movs	r3, #1
 8001fb2:	2000      	movs	r0, #0
 8001fb4:	703b      	strb	r3, [r7, #0]
 8001fb6:	7030      	strb	r0, [r6, #0]
 8001fb8:	bdf8      	pop	{r3, r4, r5, r6, r7, pc}
 8001fba:	0029      	movs	r1, r5
 8001fbc:	6820      	ldr	r0, [r4, #0]
 8001fbe:	f7ff ff8f 	bl	8001ee0 <TIM_OC2_SetConfig>
 8001fc2:	2280      	movs	r2, #128	; 0x80
 8001fc4:	6823      	ldr	r3, [r4, #0]
 8001fc6:	0112      	lsls	r2, r2, #4
 8001fc8:	6999      	ldr	r1, [r3, #24]
 8001fca:	430a      	orrs	r2, r1
 8001fcc:	619a      	str	r2, [r3, #24]
 8001fce:	699a      	ldr	r2, [r3, #24]
 8001fd0:	4915      	ldr	r1, [pc, #84]	; (8002028 <HAL_TIM_PWM_ConfigChannel+0xd0>)
 8001fd2:	400a      	ands	r2, r1
 8001fd4:	619a      	str	r2, [r3, #24]
 8001fd6:	692a      	ldr	r2, [r5, #16]
 8001fd8:	6999      	ldr	r1, [r3, #24]
 8001fda:	0212      	lsls	r2, r2, #8
 8001fdc:	e7e6      	b.n	8001fac <HAL_TIM_PWM_ConfigChannel+0x54>
 8001fde:	0029      	movs	r1, r5
 8001fe0:	6820      	ldr	r0, [r4, #0]
 8001fe2:	f7ff fde3 	bl	8001bac <TIM_OC3_SetConfig>
 8001fe6:	2208      	movs	r2, #8
 8001fe8:	6823      	ldr	r3, [r4, #0]
 8001fea:	69d9      	ldr	r1, [r3, #28]
 8001fec:	430a      	orrs	r2, r1
 8001fee:	2104      	movs	r1, #4
 8001ff0:	61da      	str	r2, [r3, #28]
 8001ff2:	69da      	ldr	r2, [r3, #28]
 8001ff4:	438a      	bics	r2, r1
 8001ff6:	61da      	str	r2, [r3, #28]
 8001ff8:	69da      	ldr	r2, [r3, #28]
 8001ffa:	6929      	ldr	r1, [r5, #16]
 8001ffc:	430a      	orrs	r2, r1
 8001ffe:	61da      	str	r2, [r3, #28]
 8002000:	e7d6      	b.n	8001fb0 <HAL_TIM_PWM_ConfigChannel+0x58>
 8002002:	0029      	movs	r1, r5
 8002004:	6820      	ldr	r0, [r4, #0]
 8002006:	f7ff fe11 	bl	8001c2c <TIM_OC4_SetConfig>
 800200a:	2280      	movs	r2, #128	; 0x80
 800200c:	6823      	ldr	r3, [r4, #0]
 800200e:	0112      	lsls	r2, r2, #4
 8002010:	69d9      	ldr	r1, [r3, #28]
 8002012:	430a      	orrs	r2, r1
 8002014:	61da      	str	r2, [r3, #28]
 8002016:	69da      	ldr	r2, [r3, #28]
 8002018:	4903      	ldr	r1, [pc, #12]	; (8002028 <HAL_TIM_PWM_ConfigChannel+0xd0>)
 800201a:	400a      	ands	r2, r1
 800201c:	61da      	str	r2, [r3, #28]
 800201e:	692a      	ldr	r2, [r5, #16]
 8002020:	69d9      	ldr	r1, [r3, #28]
 8002022:	0212      	lsls	r2, r2, #8
 8002024:	e7ea      	b.n	8001ffc <HAL_TIM_PWM_ConfigChannel+0xa4>
 8002026:	46c0      	nop			; (mov r8, r8)
 8002028:	fffffbff 	.word	0xfffffbff

0800202c <TIM_CCxChannelCmd>:
 800202c:	b510      	push	{r4, lr}
 800202e:	2401      	movs	r4, #1
 8002030:	408c      	lsls	r4, r1
 8002032:	408a      	lsls	r2, r1
 8002034:	6a03      	ldr	r3, [r0, #32]
 8002036:	43a3      	bics	r3, r4
 8002038:	6203      	str	r3, [r0, #32]
 800203a:	6a03      	ldr	r3, [r0, #32]
 800203c:	431a      	orrs	r2, r3
 800203e:	6202      	str	r2, [r0, #32]
 8002040:	bd10      	pop	{r4, pc}
	...

08002044 <HAL_TIM_PWM_Start_IT>:
 8002044:	b510      	push	{r4, lr}
 8002046:	0004      	movs	r4, r0
 8002048:	290c      	cmp	r1, #12
 800204a:	d80e      	bhi.n	800206a <HAL_TIM_PWM_Start_IT+0x26>
 800204c:	0008      	movs	r0, r1
 800204e:	f7fe f863 	bl	8000118 <__gnu_thumb1_case_uqi>
 8002052:	0c07      	.short	0x0c07
 8002054:	0c250c0c 	.word	0x0c250c0c
 8002058:	0c290c0c 	.word	0x0c290c0c
 800205c:	0c0c      	.short	0x0c0c
 800205e:	2d          	.byte	0x2d
 800205f:	00          	.byte	0x00
 8002060:	2302      	movs	r3, #2
 8002062:	6822      	ldr	r2, [r4, #0]
 8002064:	68d0      	ldr	r0, [r2, #12]
 8002066:	4303      	orrs	r3, r0
 8002068:	60d3      	str	r3, [r2, #12]
 800206a:	2201      	movs	r2, #1
 800206c:	6820      	ldr	r0, [r4, #0]
 800206e:	f7ff ffdd 	bl	800202c <TIM_CCxChannelCmd>
 8002072:	6823      	ldr	r3, [r4, #0]
 8002074:	4a0f      	ldr	r2, [pc, #60]	; (80020b4 <HAL_TIM_PWM_Start_IT+0x70>)
 8002076:	4293      	cmp	r3, r2
 8002078:	d005      	beq.n	8002086 <HAL_TIM_PWM_Start_IT+0x42>
 800207a:	4a0f      	ldr	r2, [pc, #60]	; (80020b8 <HAL_TIM_PWM_Start_IT+0x74>)
 800207c:	4293      	cmp	r3, r2
 800207e:	d002      	beq.n	8002086 <HAL_TIM_PWM_Start_IT+0x42>
 8002080:	4a0e      	ldr	r2, [pc, #56]	; (80020bc <HAL_TIM_PWM_Start_IT+0x78>)
 8002082:	4293      	cmp	r3, r2
 8002084:	d104      	bne.n	8002090 <HAL_TIM_PWM_Start_IT+0x4c>
 8002086:	2280      	movs	r2, #128	; 0x80
 8002088:	6c59      	ldr	r1, [r3, #68]	; 0x44
 800208a:	0212      	lsls	r2, r2, #8
 800208c:	430a      	orrs	r2, r1
 800208e:	645a      	str	r2, [r3, #68]	; 0x44
 8002090:	2201      	movs	r2, #1
 8002092:	6819      	ldr	r1, [r3, #0]
 8002094:	2000      	movs	r0, #0
 8002096:	430a      	orrs	r2, r1
 8002098:	601a      	str	r2, [r3, #0]
 800209a:	bd10      	pop	{r4, pc}
 800209c:	6822      	ldr	r2, [r4, #0]
 800209e:	2304      	movs	r3, #4
 80020a0:	68d0      	ldr	r0, [r2, #12]
 80020a2:	e7e0      	b.n	8002066 <HAL_TIM_PWM_Start_IT+0x22>
 80020a4:	6822      	ldr	r2, [r4, #0]
 80020a6:	2308      	movs	r3, #8
 80020a8:	68d0      	ldr	r0, [r2, #12]
 80020aa:	e7dc      	b.n	8002066 <HAL_TIM_PWM_Start_IT+0x22>
 80020ac:	6822      	ldr	r2, [r4, #0]
 80020ae:	2310      	movs	r3, #16
 80020b0:	68d0      	ldr	r0, [r2, #12]
 80020b2:	e7d8      	b.n	8002066 <HAL_TIM_PWM_Start_IT+0x22>
 80020b4:	40012c00 	.word	0x40012c00
 80020b8:	40014400 	.word	0x40014400
 80020bc:	40014800 	.word	0x40014800

080020c0 <HAL_TIMEx_MasterConfigSynchronization>:
 80020c0:	b530      	push	{r4, r5, lr}
 80020c2:	0004      	movs	r4, r0
 80020c4:	343c      	adds	r4, #60	; 0x3c
 80020c6:	7822      	ldrb	r2, [r4, #0]
 80020c8:	0003      	movs	r3, r0
 80020ca:	2002      	movs	r0, #2
 80020cc:	2a01      	cmp	r2, #1
 80020ce:	d017      	beq.n	8002100 <HAL_TIMEx_MasterConfigSynchronization+0x40>
 80020d0:	001d      	movs	r5, r3
 80020d2:	681b      	ldr	r3, [r3, #0]
 80020d4:	353d      	adds	r5, #61	; 0x3d
 80020d6:	7028      	strb	r0, [r5, #0]
 80020d8:	685a      	ldr	r2, [r3, #4]
 80020da:	306e      	adds	r0, #110	; 0x6e
 80020dc:	4382      	bics	r2, r0
 80020de:	605a      	str	r2, [r3, #4]
 80020e0:	685a      	ldr	r2, [r3, #4]
 80020e2:	6808      	ldr	r0, [r1, #0]
 80020e4:	6849      	ldr	r1, [r1, #4]
 80020e6:	4302      	orrs	r2, r0
 80020e8:	2080      	movs	r0, #128	; 0x80
 80020ea:	605a      	str	r2, [r3, #4]
 80020ec:	689a      	ldr	r2, [r3, #8]
 80020ee:	4382      	bics	r2, r0
 80020f0:	609a      	str	r2, [r3, #8]
 80020f2:	689a      	ldr	r2, [r3, #8]
 80020f4:	2000      	movs	r0, #0
 80020f6:	430a      	orrs	r2, r1
 80020f8:	609a      	str	r2, [r3, #8]
 80020fa:	2301      	movs	r3, #1
 80020fc:	702b      	strb	r3, [r5, #0]
 80020fe:	7020      	strb	r0, [r4, #0]
 8002100:	bd30      	pop	{r4, r5, pc}

08002102 <HAL_TIMEx_CommutationCallback>:
 8002102:	4770      	bx	lr

08002104 <HAL_TIMEx_BreakCallback>:
 8002104:	4770      	bx	lr
	...

08002108 <UART_EndRxTransfer>:
 8002108:	6803      	ldr	r3, [r0, #0]
 800210a:	4906      	ldr	r1, [pc, #24]	; (8002124 <UART_EndRxTransfer+0x1c>)
 800210c:	681a      	ldr	r2, [r3, #0]
 800210e:	306a      	adds	r0, #106	; 0x6a
 8002110:	400a      	ands	r2, r1
 8002112:	601a      	str	r2, [r3, #0]
 8002114:	689a      	ldr	r2, [r3, #8]
 8002116:	3123      	adds	r1, #35	; 0x23
 8002118:	31ff      	adds	r1, #255	; 0xff
 800211a:	438a      	bics	r2, r1
 800211c:	609a      	str	r2, [r3, #8]
 800211e:	2320      	movs	r3, #32
 8002120:	7003      	strb	r3, [r0, #0]
 8002122:	4770      	bx	lr
 8002124:	fffffedf 	.word	0xfffffedf

08002128 <HAL_UART_Transmit_IT>:
 8002128:	b570      	push	{r4, r5, r6, lr}
 800212a:	0006      	movs	r6, r0
 800212c:	3669      	adds	r6, #105	; 0x69
 800212e:	7833      	ldrb	r3, [r6, #0]
 8002130:	0004      	movs	r4, r0
 8002132:	2002      	movs	r0, #2
 8002134:	2b20      	cmp	r3, #32
 8002136:	d124      	bne.n	8002182 <HAL_UART_Transmit_IT+0x5a>
 8002138:	3801      	subs	r0, #1
 800213a:	2900      	cmp	r1, #0
 800213c:	d021      	beq.n	8002182 <HAL_UART_Transmit_IT+0x5a>
 800213e:	2a00      	cmp	r2, #0
 8002140:	d01f      	beq.n	8002182 <HAL_UART_Transmit_IT+0x5a>
 8002142:	2380      	movs	r3, #128	; 0x80
 8002144:	68a5      	ldr	r5, [r4, #8]
 8002146:	015b      	lsls	r3, r3, #5
 8002148:	429d      	cmp	r5, r3
 800214a:	d104      	bne.n	8002156 <HAL_UART_Transmit_IT+0x2e>
 800214c:	6923      	ldr	r3, [r4, #16]
 800214e:	2b00      	cmp	r3, #0
 8002150:	d101      	bne.n	8002156 <HAL_UART_Transmit_IT+0x2e>
 8002152:	4201      	tst	r1, r0
 8002154:	d115      	bne.n	8002182 <HAL_UART_Transmit_IT+0x5a>
 8002156:	0025      	movs	r5, r4
 8002158:	3568      	adds	r5, #104	; 0x68
 800215a:	782b      	ldrb	r3, [r5, #0]
 800215c:	2002      	movs	r0, #2
 800215e:	2b01      	cmp	r3, #1
 8002160:	d00f      	beq.n	8002182 <HAL_UART_Transmit_IT+0x5a>
 8002162:	0023      	movs	r3, r4
 8002164:	3350      	adds	r3, #80	; 0x50
 8002166:	64e1      	str	r1, [r4, #76]	; 0x4c
 8002168:	805a      	strh	r2, [r3, #2]
 800216a:	801a      	strh	r2, [r3, #0]
 800216c:	2300      	movs	r3, #0
 800216e:	2221      	movs	r2, #33	; 0x21
 8002170:	6821      	ldr	r1, [r4, #0]
 8002172:	66e3      	str	r3, [r4, #108]	; 0x6c
 8002174:	7032      	strb	r2, [r6, #0]
 8002176:	6808      	ldr	r0, [r1, #0]
 8002178:	325f      	adds	r2, #95	; 0x5f
 800217a:	4302      	orrs	r2, r0
 800217c:	0018      	movs	r0, r3
 800217e:	702b      	strb	r3, [r5, #0]
 8002180:	600a      	str	r2, [r1, #0]
 8002182:	bd70      	pop	{r4, r5, r6, pc}

08002184 <HAL_UART_Receive_IT>:
 8002184:	b5f0      	push	{r4, r5, r6, r7, lr}
 8002186:	0006      	movs	r6, r0
 8002188:	366a      	adds	r6, #106	; 0x6a
 800218a:	7834      	ldrb	r4, [r6, #0]
 800218c:	0003      	movs	r3, r0
 800218e:	2002      	movs	r0, #2
 8002190:	2c20      	cmp	r4, #32
 8002192:	d135      	bne.n	8002200 <HAL_UART_Receive_IT+0x7c>
 8002194:	3801      	subs	r0, #1
 8002196:	2900      	cmp	r1, #0
 8002198:	d032      	beq.n	8002200 <HAL_UART_Receive_IT+0x7c>
 800219a:	2a00      	cmp	r2, #0
 800219c:	d030      	beq.n	8002200 <HAL_UART_Receive_IT+0x7c>
 800219e:	2480      	movs	r4, #128	; 0x80
 80021a0:	689d      	ldr	r5, [r3, #8]
 80021a2:	0164      	lsls	r4, r4, #5
 80021a4:	42a5      	cmp	r5, r4
 80021a6:	d104      	bne.n	80021b2 <HAL_UART_Receive_IT+0x2e>
 80021a8:	691c      	ldr	r4, [r3, #16]
 80021aa:	2c00      	cmp	r4, #0
 80021ac:	d101      	bne.n	80021b2 <HAL_UART_Receive_IT+0x2e>
 80021ae:	4201      	tst	r1, r0
 80021b0:	d126      	bne.n	8002200 <HAL_UART_Receive_IT+0x7c>
 80021b2:	001c      	movs	r4, r3
 80021b4:	3468      	adds	r4, #104	; 0x68
 80021b6:	7827      	ldrb	r7, [r4, #0]
 80021b8:	2002      	movs	r0, #2
 80021ba:	2f01      	cmp	r7, #1
 80021bc:	d020      	beq.n	8002200 <HAL_UART_Receive_IT+0x7c>
 80021be:	3801      	subs	r0, #1
 80021c0:	7020      	strb	r0, [r4, #0]
 80021c2:	6559      	str	r1, [r3, #84]	; 0x54
 80021c4:	0019      	movs	r1, r3
 80021c6:	3158      	adds	r1, #88	; 0x58
 80021c8:	800a      	strh	r2, [r1, #0]
 80021ca:	804a      	strh	r2, [r1, #2]
 80021cc:	2280      	movs	r2, #128	; 0x80
 80021ce:	0152      	lsls	r2, r2, #5
 80021d0:	4295      	cmp	r5, r2
 80021d2:	d118      	bne.n	8002206 <HAL_UART_Receive_IT+0x82>
 80021d4:	691a      	ldr	r2, [r3, #16]
 80021d6:	2a00      	cmp	r2, #0
 80021d8:	d113      	bne.n	8002202 <HAL_UART_Receive_IT+0x7e>
 80021da:	490e      	ldr	r1, [pc, #56]	; (8002214 <HAL_UART_Receive_IT+0x90>)
 80021dc:	001a      	movs	r2, r3
 80021de:	325c      	adds	r2, #92	; 0x5c
 80021e0:	8011      	strh	r1, [r2, #0]
 80021e2:	2000      	movs	r0, #0
 80021e4:	2222      	movs	r2, #34	; 0x22
 80021e6:	66d8      	str	r0, [r3, #108]	; 0x6c
 80021e8:	681b      	ldr	r3, [r3, #0]
 80021ea:	7032      	strb	r2, [r6, #0]
 80021ec:	6899      	ldr	r1, [r3, #8]
 80021ee:	3a21      	subs	r2, #33	; 0x21
 80021f0:	430a      	orrs	r2, r1
 80021f2:	7020      	strb	r0, [r4, #0]
 80021f4:	609a      	str	r2, [r3, #8]
 80021f6:	2290      	movs	r2, #144	; 0x90
 80021f8:	6819      	ldr	r1, [r3, #0]
 80021fa:	0052      	lsls	r2, r2, #1
 80021fc:	430a      	orrs	r2, r1
 80021fe:	601a      	str	r2, [r3, #0]
 8002200:	bdf0      	pop	{r4, r5, r6, r7, pc}
 8002202:	21ff      	movs	r1, #255	; 0xff
 8002204:	e7ea      	b.n	80021dc <HAL_UART_Receive_IT+0x58>
 8002206:	2d00      	cmp	r5, #0
 8002208:	d1eb      	bne.n	80021e2 <HAL_UART_Receive_IT+0x5e>
 800220a:	691a      	ldr	r2, [r3, #16]
 800220c:	2a00      	cmp	r2, #0
 800220e:	d0f8      	beq.n	8002202 <HAL_UART_Receive_IT+0x7e>
 8002210:	217f      	movs	r1, #127	; 0x7f
 8002212:	e7e3      	b.n	80021dc <HAL_UART_Receive_IT+0x58>
 8002214:	000001ff 	.word	0x000001ff

08002218 <HAL_UART_Transmit_DMA>:
 8002218:	0013      	movs	r3, r2
 800221a:	0002      	movs	r2, r0
 800221c:	b570      	push	{r4, r5, r6, lr}
 800221e:	3269      	adds	r2, #105	; 0x69
 8002220:	7814      	ldrb	r4, [r2, #0]
 8002222:	0005      	movs	r5, r0
 8002224:	2002      	movs	r0, #2
 8002226:	2c20      	cmp	r4, #32
 8002228:	d134      	bne.n	8002294 <HAL_UART_Transmit_DMA+0x7c>
 800222a:	3801      	subs	r0, #1
 800222c:	2900      	cmp	r1, #0
 800222e:	d031      	beq.n	8002294 <HAL_UART_Transmit_DMA+0x7c>
 8002230:	2b00      	cmp	r3, #0
 8002232:	d02f      	beq.n	8002294 <HAL_UART_Transmit_DMA+0x7c>
 8002234:	2480      	movs	r4, #128	; 0x80
 8002236:	68ae      	ldr	r6, [r5, #8]
 8002238:	0164      	lsls	r4, r4, #5
 800223a:	42a6      	cmp	r6, r4
 800223c:	d104      	bne.n	8002248 <HAL_UART_Transmit_DMA+0x30>
 800223e:	692c      	ldr	r4, [r5, #16]
 8002240:	2c00      	cmp	r4, #0
 8002242:	d101      	bne.n	8002248 <HAL_UART_Transmit_DMA+0x30>
 8002244:	4201      	tst	r1, r0
 8002246:	d125      	bne.n	8002294 <HAL_UART_Transmit_DMA+0x7c>
 8002248:	002e      	movs	r6, r5
 800224a:	3668      	adds	r6, #104	; 0x68
 800224c:	7834      	ldrb	r4, [r6, #0]
 800224e:	2002      	movs	r0, #2
 8002250:	2c01      	cmp	r4, #1
 8002252:	d01f      	beq.n	8002294 <HAL_UART_Transmit_DMA+0x7c>
 8002254:	3801      	subs	r0, #1
 8002256:	7030      	strb	r0, [r6, #0]
 8002258:	0028      	movs	r0, r5
 800225a:	3050      	adds	r0, #80	; 0x50
 800225c:	64e9      	str	r1, [r5, #76]	; 0x4c
 800225e:	2400      	movs	r4, #0
 8002260:	8003      	strh	r3, [r0, #0]
 8002262:	8043      	strh	r3, [r0, #2]
 8002264:	2021      	movs	r0, #33	; 0x21
 8002266:	66ec      	str	r4, [r5, #108]	; 0x6c
 8002268:	7010      	strb	r0, [r2, #0]
 800226a:	6e28      	ldr	r0, [r5, #96]	; 0x60
 800226c:	4a0a      	ldr	r2, [pc, #40]	; (8002298 <HAL_UART_Transmit_DMA+0x80>)
 800226e:	6344      	str	r4, [r0, #52]	; 0x34
 8002270:	6282      	str	r2, [r0, #40]	; 0x28
 8002272:	4a0a      	ldr	r2, [pc, #40]	; (800229c <HAL_UART_Transmit_DMA+0x84>)
 8002274:	62c2      	str	r2, [r0, #44]	; 0x2c
 8002276:	4a0a      	ldr	r2, [pc, #40]	; (80022a0 <HAL_UART_Transmit_DMA+0x88>)
 8002278:	6302      	str	r2, [r0, #48]	; 0x30
 800227a:	682a      	ldr	r2, [r5, #0]
 800227c:	3228      	adds	r2, #40	; 0x28
 800227e:	f7fe ffa5 	bl	80011cc <HAL_DMA_Start_IT>
 8002282:	2240      	movs	r2, #64	; 0x40
 8002284:	0020      	movs	r0, r4
 8002286:	682b      	ldr	r3, [r5, #0]
 8002288:	621a      	str	r2, [r3, #32]
 800228a:	6899      	ldr	r1, [r3, #8]
 800228c:	1892      	adds	r2, r2, r2
 800228e:	430a      	orrs	r2, r1
 8002290:	7034      	strb	r4, [r6, #0]
 8002292:	609a      	str	r2, [r3, #8]
 8002294:	bd70      	pop	{r4, r5, r6, pc}
 8002296:	46c0      	nop			; (mov r8, r8)
 8002298:	080022a5 	.word	0x080022a5
 800229c:	080022d7 	.word	0x080022d7
 80022a0:	080022e3 	.word	0x080022e3

080022a4 <UART_DMATransmitCplt>:
 80022a4:	2120      	movs	r1, #32
 80022a6:	6803      	ldr	r3, [r0, #0]
 80022a8:	b510      	push	{r4, lr}
 80022aa:	681b      	ldr	r3, [r3, #0]
 80022ac:	6a42      	ldr	r2, [r0, #36]	; 0x24
 80022ae:	400b      	ands	r3, r1
 80022b0:	d10c      	bne.n	80022cc <UART_DMATransmitCplt+0x28>
 80022b2:	0011      	movs	r1, r2
 80022b4:	3152      	adds	r1, #82	; 0x52
 80022b6:	800b      	strh	r3, [r1, #0]
 80022b8:	2180      	movs	r1, #128	; 0x80
 80022ba:	6813      	ldr	r3, [r2, #0]
 80022bc:	689a      	ldr	r2, [r3, #8]
 80022be:	438a      	bics	r2, r1
 80022c0:	609a      	str	r2, [r3, #8]
 80022c2:	2240      	movs	r2, #64	; 0x40
 80022c4:	6819      	ldr	r1, [r3, #0]
 80022c6:	430a      	orrs	r2, r1
 80022c8:	601a      	str	r2, [r3, #0]
 80022ca:	bd10      	pop	{r4, pc}
 80022cc:	0010      	movs	r0, r2
 80022ce:	f000 faf9 	bl	80028c4 <HAL_UART_TxCpltCallback>
 80022d2:	e7fa      	b.n	80022ca <UART_DMATransmitCplt+0x26>

080022d4 <HAL_UART_TxHalfCpltCallback>:
 80022d4:	4770      	bx	lr

080022d6 <UART_DMATxHalfCplt>:
 80022d6:	b510      	push	{r4, lr}
 80022d8:	6a40      	ldr	r0, [r0, #36]	; 0x24
 80022da:	f7ff fffb 	bl	80022d4 <HAL_UART_TxHalfCpltCallback>
 80022de:	bd10      	pop	{r4, pc}

080022e0 <HAL_UART_ErrorCallback>:
 80022e0:	4770      	bx	lr

080022e2 <UART_DMAError>:
 80022e2:	b510      	push	{r4, lr}
 80022e4:	6a44      	ldr	r4, [r0, #36]	; 0x24
 80022e6:	0021      	movs	r1, r4
 80022e8:	3169      	adds	r1, #105	; 0x69
 80022ea:	780b      	ldrb	r3, [r1, #0]
 80022ec:	2b21      	cmp	r3, #33	; 0x21
 80022ee:	d10d      	bne.n	800230c <UART_DMAError+0x2a>
 80022f0:	6823      	ldr	r3, [r4, #0]
 80022f2:	689a      	ldr	r2, [r3, #8]
 80022f4:	0612      	lsls	r2, r2, #24
 80022f6:	d509      	bpl.n	800230c <UART_DMAError+0x2a>
 80022f8:	0022      	movs	r2, r4
 80022fa:	2000      	movs	r0, #0
 80022fc:	3252      	adds	r2, #82	; 0x52
 80022fe:	8010      	strh	r0, [r2, #0]
 8002300:	681a      	ldr	r2, [r3, #0]
 8002302:	30c0      	adds	r0, #192	; 0xc0
 8002304:	4382      	bics	r2, r0
 8002306:	601a      	str	r2, [r3, #0]
 8002308:	2320      	movs	r3, #32
 800230a:	700b      	strb	r3, [r1, #0]
 800230c:	0023      	movs	r3, r4
 800230e:	336a      	adds	r3, #106	; 0x6a
 8002310:	781b      	ldrb	r3, [r3, #0]
 8002312:	2b22      	cmp	r3, #34	; 0x22
 8002314:	d10a      	bne.n	800232c <UART_DMAError+0x4a>
 8002316:	6823      	ldr	r3, [r4, #0]
 8002318:	689b      	ldr	r3, [r3, #8]
 800231a:	065b      	lsls	r3, r3, #25
 800231c:	d506      	bpl.n	800232c <UART_DMAError+0x4a>
 800231e:	0023      	movs	r3, r4
 8002320:	2200      	movs	r2, #0
 8002322:	335a      	adds	r3, #90	; 0x5a
 8002324:	801a      	strh	r2, [r3, #0]
 8002326:	0020      	movs	r0, r4
 8002328:	f7ff feee 	bl	8002108 <UART_EndRxTransfer>
 800232c:	2310      	movs	r3, #16
 800232e:	6ee2      	ldr	r2, [r4, #108]	; 0x6c
 8002330:	0020      	movs	r0, r4
 8002332:	4313      	orrs	r3, r2
 8002334:	66e3      	str	r3, [r4, #108]	; 0x6c
 8002336:	f7ff ffd3 	bl	80022e0 <HAL_UART_ErrorCallback>
 800233a:	bd10      	pop	{r4, pc}

0800233c <UART_DMAAbortOnError>:
 800233c:	6a40      	ldr	r0, [r0, #36]	; 0x24
 800233e:	2300      	movs	r3, #0
 8002340:	0002      	movs	r2, r0
 8002342:	b510      	push	{r4, lr}
 8002344:	325a      	adds	r2, #90	; 0x5a
 8002346:	8013      	strh	r3, [r2, #0]
 8002348:	3a08      	subs	r2, #8
 800234a:	8013      	strh	r3, [r2, #0]
 800234c:	f7ff ffc8 	bl	80022e0 <HAL_UART_ErrorCallback>
 8002350:	bd10      	pop	{r4, pc}
	...

08002354 <UART_SetConfig>:
 8002354:	b570      	push	{r4, r5, r6, lr}
 8002356:	0004      	movs	r4, r0
 8002358:	6805      	ldr	r5, [r0, #0]
 800235a:	69c2      	ldr	r2, [r0, #28]
 800235c:	6883      	ldr	r3, [r0, #8]
 800235e:	6900      	ldr	r0, [r0, #16]
 8002360:	6829      	ldr	r1, [r5, #0]
 8002362:	4303      	orrs	r3, r0
 8002364:	6960      	ldr	r0, [r4, #20]
 8002366:	4303      	orrs	r3, r0
 8002368:	4835      	ldr	r0, [pc, #212]	; (8002440 <UART_SetConfig+0xec>)
 800236a:	4313      	orrs	r3, r2
 800236c:	4001      	ands	r1, r0
 800236e:	430b      	orrs	r3, r1
 8002370:	602b      	str	r3, [r5, #0]
 8002372:	686b      	ldr	r3, [r5, #4]
 8002374:	4933      	ldr	r1, [pc, #204]	; (8002444 <UART_SetConfig+0xf0>)
 8002376:	6a20      	ldr	r0, [r4, #32]
 8002378:	400b      	ands	r3, r1
 800237a:	68e1      	ldr	r1, [r4, #12]
 800237c:	430b      	orrs	r3, r1
 800237e:	606b      	str	r3, [r5, #4]
 8002380:	69a3      	ldr	r3, [r4, #24]
 8002382:	68a9      	ldr	r1, [r5, #8]
 8002384:	4303      	orrs	r3, r0
 8002386:	4830      	ldr	r0, [pc, #192]	; (8002448 <UART_SetConfig+0xf4>)
 8002388:	4001      	ands	r1, r0
 800238a:	430b      	orrs	r3, r1
 800238c:	2103      	movs	r1, #3
 800238e:	60ab      	str	r3, [r5, #8]
 8002390:	4b2e      	ldr	r3, [pc, #184]	; (800244c <UART_SetConfig+0xf8>)
 8002392:	6b1b      	ldr	r3, [r3, #48]	; 0x30
 8002394:	400b      	ands	r3, r1
 8002396:	492e      	ldr	r1, [pc, #184]	; (8002450 <UART_SetConfig+0xfc>)
 8002398:	5cc8      	ldrb	r0, [r1, r3]
 800239a:	2380      	movs	r3, #128	; 0x80
 800239c:	021b      	lsls	r3, r3, #8
 800239e:	429a      	cmp	r2, r3
 80023a0:	d12c      	bne.n	80023fc <UART_SetConfig+0xa8>
 80023a2:	2808      	cmp	r0, #8
 80023a4:	d827      	bhi.n	80023f6 <UART_SetConfig+0xa2>
 80023a6:	f7fd feb7 	bl	8000118 <__gnu_thumb1_case_uqi>
 80023aa:	2605      	.short	0x2605
 80023ac:	261e260b 	.word	0x261e260b
 80023b0:	2626      	.short	0x2626
 80023b2:	21          	.byte	0x21
 80023b3:	00          	.byte	0x00
 80023b4:	f7ff fb2a 	bl	8001a0c <HAL_RCC_GetPCLK1Freq>
 80023b8:	6863      	ldr	r3, [r4, #4]
 80023ba:	0040      	lsls	r0, r0, #1
 80023bc:	085b      	lsrs	r3, r3, #1
 80023be:	e002      	b.n	80023c6 <UART_SetConfig+0x72>
 80023c0:	6863      	ldr	r3, [r4, #4]
 80023c2:	0858      	lsrs	r0, r3, #1
 80023c4:	4b23      	ldr	r3, [pc, #140]	; (8002454 <UART_SetConfig+0x100>)
 80023c6:	18c0      	adds	r0, r0, r3
 80023c8:	6861      	ldr	r1, [r4, #4]
 80023ca:	f7fd feaf 	bl	800012c <__udivsi3>
 80023ce:	b283      	uxth	r3, r0
 80023d0:	2000      	movs	r0, #0
 80023d2:	220f      	movs	r2, #15
 80023d4:	0019      	movs	r1, r3
 80023d6:	4391      	bics	r1, r2
 80023d8:	000a      	movs	r2, r1
 80023da:	071b      	lsls	r3, r3, #28
 80023dc:	6821      	ldr	r1, [r4, #0]
 80023de:	0f5b      	lsrs	r3, r3, #29
 80023e0:	4313      	orrs	r3, r2
 80023e2:	60cb      	str	r3, [r1, #12]
 80023e4:	bd70      	pop	{r4, r5, r6, pc}
 80023e6:	f7ff fa43 	bl	8001870 <HAL_RCC_GetSysClockFreq>
 80023ea:	e7e5      	b.n	80023b8 <UART_SetConfig+0x64>
 80023ec:	6863      	ldr	r3, [r4, #4]
 80023ee:	0858      	lsrs	r0, r3, #1
 80023f0:	2380      	movs	r3, #128	; 0x80
 80023f2:	025b      	lsls	r3, r3, #9
 80023f4:	e7e7      	b.n	80023c6 <UART_SetConfig+0x72>
 80023f6:	2001      	movs	r0, #1
 80023f8:	2300      	movs	r3, #0
 80023fa:	e7ea      	b.n	80023d2 <UART_SetConfig+0x7e>
 80023fc:	2808      	cmp	r0, #8
 80023fe:	d81d      	bhi.n	800243c <UART_SetConfig+0xe8>
 8002400:	f7fd fe8a 	bl	8000118 <__gnu_thumb1_case_uqi>
 8002404:	1c0a1c05 	.word	0x1c0a1c05
 8002408:	1c1c1c14 	.word	0x1c1c1c14
 800240c:	17          	.byte	0x17
 800240d:	00          	.byte	0x00
 800240e:	f7ff fafd 	bl	8001a0c <HAL_RCC_GetPCLK1Freq>
 8002412:	6861      	ldr	r1, [r4, #4]
 8002414:	084b      	lsrs	r3, r1, #1
 8002416:	e002      	b.n	800241e <UART_SetConfig+0xca>
 8002418:	6861      	ldr	r1, [r4, #4]
 800241a:	4b0f      	ldr	r3, [pc, #60]	; (8002458 <UART_SetConfig+0x104>)
 800241c:	0848      	lsrs	r0, r1, #1
 800241e:	18c0      	adds	r0, r0, r3
 8002420:	f7fd fe84 	bl	800012c <__udivsi3>
 8002424:	b280      	uxth	r0, r0
 8002426:	60e8      	str	r0, [r5, #12]
 8002428:	2000      	movs	r0, #0
 800242a:	e7db      	b.n	80023e4 <UART_SetConfig+0x90>
 800242c:	f7ff fa20 	bl	8001870 <HAL_RCC_GetSysClockFreq>
 8002430:	e7ef      	b.n	8002412 <UART_SetConfig+0xbe>
 8002432:	2380      	movs	r3, #128	; 0x80
 8002434:	6861      	ldr	r1, [r4, #4]
 8002436:	021b      	lsls	r3, r3, #8
 8002438:	0848      	lsrs	r0, r1, #1
 800243a:	e7f0      	b.n	800241e <UART_SetConfig+0xca>
 800243c:	2001      	movs	r0, #1
 800243e:	e7d1      	b.n	80023e4 <UART_SetConfig+0x90>
 8002440:	ffff69f3 	.word	0xffff69f3
 8002444:	ffffcfff 	.word	0xffffcfff
 8002448:	fffff4ff 	.word	0xfffff4ff
 800244c:	40021000 	.word	0x40021000
 8002450:	08003e10 	.word	0x08003e10
 8002454:	00f42400 	.word	0x00f42400
 8002458:	007a1200 	.word	0x007a1200

0800245c <UART_AdvFeatureConfig>:
 800245c:	6a43      	ldr	r3, [r0, #36]	; 0x24
 800245e:	b530      	push	{r4, r5, lr}
 8002460:	07da      	lsls	r2, r3, #31
 8002462:	d506      	bpl.n	8002472 <UART_AdvFeatureConfig+0x16>
 8002464:	6801      	ldr	r1, [r0, #0]
 8002466:	4c28      	ldr	r4, [pc, #160]	; (8002508 <UART_AdvFeatureConfig+0xac>)
 8002468:	684a      	ldr	r2, [r1, #4]
 800246a:	4022      	ands	r2, r4
 800246c:	6a84      	ldr	r4, [r0, #40]	; 0x28
 800246e:	4322      	orrs	r2, r4
 8002470:	604a      	str	r2, [r1, #4]
 8002472:	079a      	lsls	r2, r3, #30
 8002474:	d506      	bpl.n	8002484 <UART_AdvFeatureConfig+0x28>
 8002476:	6801      	ldr	r1, [r0, #0]
 8002478:	4c24      	ldr	r4, [pc, #144]	; (800250c <UART_AdvFeatureConfig+0xb0>)
 800247a:	684a      	ldr	r2, [r1, #4]
 800247c:	4022      	ands	r2, r4
 800247e:	6ac4      	ldr	r4, [r0, #44]	; 0x2c
 8002480:	4322      	orrs	r2, r4
 8002482:	604a      	str	r2, [r1, #4]
 8002484:	075a      	lsls	r2, r3, #29
 8002486:	d506      	bpl.n	8002496 <UART_AdvFeatureConfig+0x3a>
 8002488:	6801      	ldr	r1, [r0, #0]
 800248a:	4c21      	ldr	r4, [pc, #132]	; (8002510 <UART_AdvFeatureConfig+0xb4>)
 800248c:	684a      	ldr	r2, [r1, #4]
 800248e:	4022      	ands	r2, r4
 8002490:	6b04      	ldr	r4, [r0, #48]	; 0x30
 8002492:	4322      	orrs	r2, r4
 8002494:	604a      	str	r2, [r1, #4]
 8002496:	071a      	lsls	r2, r3, #28
 8002498:	d506      	bpl.n	80024a8 <UART_AdvFeatureConfig+0x4c>
 800249a:	6801      	ldr	r1, [r0, #0]
 800249c:	4c1d      	ldr	r4, [pc, #116]	; (8002514 <UART_AdvFeatureConfig+0xb8>)
 800249e:	684a      	ldr	r2, [r1, #4]
 80024a0:	4022      	ands	r2, r4
 80024a2:	6b44      	ldr	r4, [r0, #52]	; 0x34
 80024a4:	4322      	orrs	r2, r4
 80024a6:	604a      	str	r2, [r1, #4]
 80024a8:	06da      	lsls	r2, r3, #27
 80024aa:	d506      	bpl.n	80024ba <UART_AdvFeatureConfig+0x5e>
 80024ac:	6801      	ldr	r1, [r0, #0]
 80024ae:	4c1a      	ldr	r4, [pc, #104]	; (8002518 <UART_AdvFeatureConfig+0xbc>)
 80024b0:	688a      	ldr	r2, [r1, #8]
 80024b2:	4022      	ands	r2, r4
 80024b4:	6b84      	ldr	r4, [r0, #56]	; 0x38
 80024b6:	4322      	orrs	r2, r4
 80024b8:	608a      	str	r2, [r1, #8]
 80024ba:	069a      	lsls	r2, r3, #26
 80024bc:	d506      	bpl.n	80024cc <UART_AdvFeatureConfig+0x70>
 80024be:	6801      	ldr	r1, [r0, #0]
 80024c0:	4c16      	ldr	r4, [pc, #88]	; (800251c <UART_AdvFeatureConfig+0xc0>)
 80024c2:	688a      	ldr	r2, [r1, #8]
 80024c4:	4022      	ands	r2, r4
 80024c6:	6bc4      	ldr	r4, [r0, #60]	; 0x3c
 80024c8:	4322      	orrs	r2, r4
 80024ca:	608a      	str	r2, [r1, #8]
 80024cc:	065a      	lsls	r2, r3, #25
 80024ce:	d510      	bpl.n	80024f2 <UART_AdvFeatureConfig+0x96>
 80024d0:	6801      	ldr	r1, [r0, #0]
 80024d2:	4d13      	ldr	r5, [pc, #76]	; (8002520 <UART_AdvFeatureConfig+0xc4>)
 80024d4:	684a      	ldr	r2, [r1, #4]
 80024d6:	6c04      	ldr	r4, [r0, #64]	; 0x40
 80024d8:	402a      	ands	r2, r5
 80024da:	4322      	orrs	r2, r4
 80024dc:	604a      	str	r2, [r1, #4]
 80024de:	2280      	movs	r2, #128	; 0x80
 80024e0:	0352      	lsls	r2, r2, #13
 80024e2:	4294      	cmp	r4, r2
 80024e4:	d105      	bne.n	80024f2 <UART_AdvFeatureConfig+0x96>
 80024e6:	684a      	ldr	r2, [r1, #4]
 80024e8:	4c0e      	ldr	r4, [pc, #56]	; (8002524 <UART_AdvFeatureConfig+0xc8>)
 80024ea:	4022      	ands	r2, r4
 80024ec:	6c44      	ldr	r4, [r0, #68]	; 0x44
 80024ee:	4322      	orrs	r2, r4
 80024f0:	604a      	str	r2, [r1, #4]
 80024f2:	061b      	lsls	r3, r3, #24
 80024f4:	d506      	bpl.n	8002504 <UART_AdvFeatureConfig+0xa8>
 80024f6:	6802      	ldr	r2, [r0, #0]
 80024f8:	490b      	ldr	r1, [pc, #44]	; (8002528 <UART_AdvFeatureConfig+0xcc>)
 80024fa:	6853      	ldr	r3, [r2, #4]
 80024fc:	400b      	ands	r3, r1
 80024fe:	6c81      	ldr	r1, [r0, #72]	; 0x48
 8002500:	430b      	orrs	r3, r1
 8002502:	6053      	str	r3, [r2, #4]
 8002504:	bd30      	pop	{r4, r5, pc}
 8002506:	46c0      	nop			; (mov r8, r8)
 8002508:	fffdffff 	.word	0xfffdffff
 800250c:	fffeffff 	.word	0xfffeffff
 8002510:	fffbffff 	.word	0xfffbffff
 8002514:	ffff7fff 	.word	0xffff7fff
 8002518:	ffffefff 	.word	0xffffefff
 800251c:	ffffdfff 	.word	0xffffdfff
 8002520:	ffefffff 	.word	0xffefffff
 8002524:	ff9fffff 	.word	0xff9fffff
 8002528:	fff7ffff 	.word	0xfff7ffff

0800252c <HAL_UART_Init>:
 800252c:	b570      	push	{r4, r5, r6, lr}
 800252e:	1e04      	subs	r4, r0, #0
 8002530:	d101      	bne.n	8002536 <HAL_UART_Init+0xa>
 8002532:	2001      	movs	r0, #1
 8002534:	bd70      	pop	{r4, r5, r6, pc}
 8002536:	0005      	movs	r5, r0
 8002538:	3569      	adds	r5, #105	; 0x69
 800253a:	782b      	ldrb	r3, [r5, #0]
 800253c:	b2db      	uxtb	r3, r3
 800253e:	2b00      	cmp	r3, #0
 8002540:	d104      	bne.n	800254c <HAL_UART_Init+0x20>
 8002542:	0002      	movs	r2, r0
 8002544:	3268      	adds	r2, #104	; 0x68
 8002546:	7013      	strb	r3, [r2, #0]
 8002548:	f000 fcf2 	bl	8002f30 <HAL_UART_MspInit>
 800254c:	2324      	movs	r3, #36	; 0x24
 800254e:	2101      	movs	r1, #1
 8002550:	6822      	ldr	r2, [r4, #0]
 8002552:	702b      	strb	r3, [r5, #0]
 8002554:	6813      	ldr	r3, [r2, #0]
 8002556:	0020      	movs	r0, r4
 8002558:	438b      	bics	r3, r1
 800255a:	6013      	str	r3, [r2, #0]
 800255c:	f7ff fefa 	bl	8002354 <UART_SetConfig>
 8002560:	2801      	cmp	r0, #1
 8002562:	d0e6      	beq.n	8002532 <HAL_UART_Init+0x6>
 8002564:	6a63      	ldr	r3, [r4, #36]	; 0x24
 8002566:	2b00      	cmp	r3, #0
 8002568:	d002      	beq.n	8002570 <HAL_UART_Init+0x44>
 800256a:	0020      	movs	r0, r4
 800256c:	f7ff ff76 	bl	800245c <UART_AdvFeatureConfig>
 8002570:	6823      	ldr	r3, [r4, #0]
 8002572:	490b      	ldr	r1, [pc, #44]	; (80025a0 <HAL_UART_Init+0x74>)
 8002574:	685a      	ldr	r2, [r3, #4]
 8002576:	2000      	movs	r0, #0
 8002578:	400a      	ands	r2, r1
 800257a:	2108      	movs	r1, #8
 800257c:	605a      	str	r2, [r3, #4]
 800257e:	689a      	ldr	r2, [r3, #8]
 8002580:	438a      	bics	r2, r1
 8002582:	609a      	str	r2, [r3, #8]
 8002584:	2201      	movs	r2, #1
 8002586:	6819      	ldr	r1, [r3, #0]
 8002588:	430a      	orrs	r2, r1
 800258a:	601a      	str	r2, [r3, #0]
 800258c:	0022      	movs	r2, r4
 800258e:	2320      	movs	r3, #32
 8002590:	66e0      	str	r0, [r4, #108]	; 0x6c
 8002592:	326a      	adds	r2, #106	; 0x6a
 8002594:	3468      	adds	r4, #104	; 0x68
 8002596:	702b      	strb	r3, [r5, #0]
 8002598:	7013      	strb	r3, [r2, #0]
 800259a:	7020      	strb	r0, [r4, #0]
 800259c:	e7ca      	b.n	8002534 <HAL_UART_Init+0x8>
 800259e:	46c0      	nop			; (mov r8, r8)
 80025a0:	fffff7ff 	.word	0xfffff7ff

080025a4 <UART_Transmit_IT>:
 80025a4:	0003      	movs	r3, r0
 80025a6:	b530      	push	{r4, r5, lr}
 80025a8:	3369      	adds	r3, #105	; 0x69
 80025aa:	781b      	ldrb	r3, [r3, #0]
 80025ac:	0002      	movs	r2, r0
 80025ae:	2002      	movs	r0, #2
 80025b0:	2b21      	cmp	r3, #33	; 0x21
 80025b2:	d10f      	bne.n	80025d4 <UART_Transmit_IT+0x30>
 80025b4:	0014      	movs	r4, r2
 80025b6:	3452      	adds	r4, #82	; 0x52
 80025b8:	8823      	ldrh	r3, [r4, #0]
 80025ba:	6811      	ldr	r1, [r2, #0]
 80025bc:	b29b      	uxth	r3, r3
 80025be:	2b00      	cmp	r3, #0
 80025c0:	d109      	bne.n	80025d6 <UART_Transmit_IT+0x32>
 80025c2:	680a      	ldr	r2, [r1, #0]
 80025c4:	307e      	adds	r0, #126	; 0x7e
 80025c6:	4382      	bics	r2, r0
 80025c8:	600a      	str	r2, [r1, #0]
 80025ca:	2240      	movs	r2, #64	; 0x40
 80025cc:	6808      	ldr	r0, [r1, #0]
 80025ce:	4302      	orrs	r2, r0
 80025d0:	600a      	str	r2, [r1, #0]
 80025d2:	2000      	movs	r0, #0
 80025d4:	bd30      	pop	{r4, r5, pc}
 80025d6:	2080      	movs	r0, #128	; 0x80
 80025d8:	6895      	ldr	r5, [r2, #8]
 80025da:	0140      	lsls	r0, r0, #5
 80025dc:	6cd3      	ldr	r3, [r2, #76]	; 0x4c
 80025de:	4285      	cmp	r5, r0
 80025e0:	d10d      	bne.n	80025fe <UART_Transmit_IT+0x5a>
 80025e2:	6910      	ldr	r0, [r2, #16]
 80025e4:	2800      	cmp	r0, #0
 80025e6:	d10a      	bne.n	80025fe <UART_Transmit_IT+0x5a>
 80025e8:	8818      	ldrh	r0, [r3, #0]
 80025ea:	3302      	adds	r3, #2
 80025ec:	05c0      	lsls	r0, r0, #23
 80025ee:	0dc0      	lsrs	r0, r0, #23
 80025f0:	8508      	strh	r0, [r1, #40]	; 0x28
 80025f2:	64d3      	str	r3, [r2, #76]	; 0x4c
 80025f4:	8823      	ldrh	r3, [r4, #0]
 80025f6:	3b01      	subs	r3, #1
 80025f8:	b29b      	uxth	r3, r3
 80025fa:	8023      	strh	r3, [r4, #0]
 80025fc:	e7e9      	b.n	80025d2 <UART_Transmit_IT+0x2e>
 80025fe:	1c58      	adds	r0, r3, #1
 8002600:	64d0      	str	r0, [r2, #76]	; 0x4c
 8002602:	781b      	ldrb	r3, [r3, #0]
 8002604:	850b      	strh	r3, [r1, #40]	; 0x28
 8002606:	e7f5      	b.n	80025f4 <UART_Transmit_IT+0x50>

08002608 <UART_EndTransmit_IT>:
 8002608:	2140      	movs	r1, #64	; 0x40
 800260a:	6802      	ldr	r2, [r0, #0]
 800260c:	b510      	push	{r4, lr}
 800260e:	6813      	ldr	r3, [r2, #0]
 8002610:	438b      	bics	r3, r1
 8002612:	6013      	str	r3, [r2, #0]
 8002614:	0003      	movs	r3, r0
 8002616:	2220      	movs	r2, #32
 8002618:	3369      	adds	r3, #105	; 0x69
 800261a:	701a      	strb	r2, [r3, #0]
 800261c:	f000 f952 	bl	80028c4 <HAL_UART_TxCpltCallback>
 8002620:	2000      	movs	r0, #0
 8002622:	bd10      	pop	{r4, pc}

08002624 <UART_Receive_IT>:
 8002624:	0002      	movs	r2, r0
 8002626:	b570      	push	{r4, r5, r6, lr}
 8002628:	326a      	adds	r2, #106	; 0x6a
 800262a:	7811      	ldrb	r1, [r2, #0]
 800262c:	6803      	ldr	r3, [r0, #0]
 800262e:	2922      	cmp	r1, #34	; 0x22
 8002630:	d12d      	bne.n	800268e <UART_Receive_IT+0x6a>
 8002632:	0001      	movs	r1, r0
 8002634:	2480      	movs	r4, #128	; 0x80
 8002636:	315c      	adds	r1, #92	; 0x5c
 8002638:	880d      	ldrh	r5, [r1, #0]
 800263a:	8c99      	ldrh	r1, [r3, #36]	; 0x24
 800263c:	0164      	lsls	r4, r4, #5
 800263e:	4029      	ands	r1, r5
 8002640:	6885      	ldr	r5, [r0, #8]
 8002642:	6d43      	ldr	r3, [r0, #84]	; 0x54
 8002644:	42a5      	cmp	r5, r4
 8002646:	d11e      	bne.n	8002686 <UART_Receive_IT+0x62>
 8002648:	6904      	ldr	r4, [r0, #16]
 800264a:	2c00      	cmp	r4, #0
 800264c:	d11b      	bne.n	8002686 <UART_Receive_IT+0x62>
 800264e:	8019      	strh	r1, [r3, #0]
 8002650:	3302      	adds	r3, #2
 8002652:	6543      	str	r3, [r0, #84]	; 0x54
 8002654:	0001      	movs	r1, r0
 8002656:	2400      	movs	r4, #0
 8002658:	315a      	adds	r1, #90	; 0x5a
 800265a:	880b      	ldrh	r3, [r1, #0]
 800265c:	3b01      	subs	r3, #1
 800265e:	b29b      	uxth	r3, r3
 8002660:	800b      	strh	r3, [r1, #0]
 8002662:	42a3      	cmp	r3, r4
 8002664:	d10d      	bne.n	8002682 <UART_Receive_IT+0x5e>
 8002666:	6803      	ldr	r3, [r0, #0]
 8002668:	4d0c      	ldr	r5, [pc, #48]	; (800269c <UART_Receive_IT+0x78>)
 800266a:	6819      	ldr	r1, [r3, #0]
 800266c:	4029      	ands	r1, r5
 800266e:	6019      	str	r1, [r3, #0]
 8002670:	6899      	ldr	r1, [r3, #8]
 8002672:	3523      	adds	r5, #35	; 0x23
 8002674:	35ff      	adds	r5, #255	; 0xff
 8002676:	43a9      	bics	r1, r5
 8002678:	6099      	str	r1, [r3, #8]
 800267a:	2320      	movs	r3, #32
 800267c:	7013      	strb	r3, [r2, #0]
 800267e:	f000 f8e5 	bl	800284c <HAL_UART_RxCpltCallback>
 8002682:	0020      	movs	r0, r4
 8002684:	bd70      	pop	{r4, r5, r6, pc}
 8002686:	1c5c      	adds	r4, r3, #1
 8002688:	6544      	str	r4, [r0, #84]	; 0x54
 800268a:	7019      	strb	r1, [r3, #0]
 800268c:	e7e2      	b.n	8002654 <UART_Receive_IT+0x30>
 800268e:	2208      	movs	r2, #8
 8002690:	6999      	ldr	r1, [r3, #24]
 8002692:	2402      	movs	r4, #2
 8002694:	430a      	orrs	r2, r1
 8002696:	619a      	str	r2, [r3, #24]
 8002698:	e7f3      	b.n	8002682 <UART_Receive_IT+0x5e>
 800269a:	46c0      	nop			; (mov r8, r8)
 800269c:	fffffedf 	.word	0xfffffedf

080026a0 <HAL_UART_IRQHandler>:
 80026a0:	220f      	movs	r2, #15
 80026a2:	b570      	push	{r4, r5, r6, lr}
 80026a4:	0004      	movs	r4, r0
 80026a6:	6800      	ldr	r0, [r0, #0]
 80026a8:	69c3      	ldr	r3, [r0, #28]
 80026aa:	6801      	ldr	r1, [r0, #0]
 80026ac:	401a      	ands	r2, r3
 80026ae:	d108      	bne.n	80026c2 <HAL_UART_IRQHandler+0x22>
 80026b0:	2520      	movs	r5, #32
 80026b2:	422b      	tst	r3, r5
 80026b4:	d005      	beq.n	80026c2 <HAL_UART_IRQHandler+0x22>
 80026b6:	4229      	tst	r1, r5
 80026b8:	d003      	beq.n	80026c2 <HAL_UART_IRQHandler+0x22>
 80026ba:	0020      	movs	r0, r4
 80026bc:	f7ff ffb2 	bl	8002624 <UART_Receive_IT>
 80026c0:	bd70      	pop	{r4, r5, r6, pc}
 80026c2:	6885      	ldr	r5, [r0, #8]
 80026c4:	2a00      	cmp	r2, #0
 80026c6:	d060      	beq.n	800278a <HAL_UART_IRQHandler+0xea>
 80026c8:	2201      	movs	r2, #1
 80026ca:	4015      	ands	r5, r2
 80026cc:	d103      	bne.n	80026d6 <HAL_UART_IRQHandler+0x36>
 80026ce:	2690      	movs	r6, #144	; 0x90
 80026d0:	0076      	lsls	r6, r6, #1
 80026d2:	4231      	tst	r1, r6
 80026d4:	d059      	beq.n	800278a <HAL_UART_IRQHandler+0xea>
 80026d6:	4213      	tst	r3, r2
 80026d8:	d005      	beq.n	80026e6 <HAL_UART_IRQHandler+0x46>
 80026da:	05ce      	lsls	r6, r1, #23
 80026dc:	d503      	bpl.n	80026e6 <HAL_UART_IRQHandler+0x46>
 80026de:	6202      	str	r2, [r0, #32]
 80026e0:	6ee6      	ldr	r6, [r4, #108]	; 0x6c
 80026e2:	4332      	orrs	r2, r6
 80026e4:	66e2      	str	r2, [r4, #108]	; 0x6c
 80026e6:	2202      	movs	r2, #2
 80026e8:	4213      	tst	r3, r2
 80026ea:	d006      	beq.n	80026fa <HAL_UART_IRQHandler+0x5a>
 80026ec:	2d00      	cmp	r5, #0
 80026ee:	d004      	beq.n	80026fa <HAL_UART_IRQHandler+0x5a>
 80026f0:	6202      	str	r2, [r0, #32]
 80026f2:	6ee6      	ldr	r6, [r4, #108]	; 0x6c
 80026f4:	1892      	adds	r2, r2, r2
 80026f6:	4332      	orrs	r2, r6
 80026f8:	66e2      	str	r2, [r4, #108]	; 0x6c
 80026fa:	2204      	movs	r2, #4
 80026fc:	4213      	tst	r3, r2
 80026fe:	d006      	beq.n	800270e <HAL_UART_IRQHandler+0x6e>
 8002700:	2d00      	cmp	r5, #0
 8002702:	d004      	beq.n	800270e <HAL_UART_IRQHandler+0x6e>
 8002704:	6202      	str	r2, [r0, #32]
 8002706:	6ee6      	ldr	r6, [r4, #108]	; 0x6c
 8002708:	3a02      	subs	r2, #2
 800270a:	4332      	orrs	r2, r6
 800270c:	66e2      	str	r2, [r4, #108]	; 0x6c
 800270e:	071a      	lsls	r2, r3, #28
 8002710:	d508      	bpl.n	8002724 <HAL_UART_IRQHandler+0x84>
 8002712:	068a      	lsls	r2, r1, #26
 8002714:	d401      	bmi.n	800271a <HAL_UART_IRQHandler+0x7a>
 8002716:	2d00      	cmp	r5, #0
 8002718:	d004      	beq.n	8002724 <HAL_UART_IRQHandler+0x84>
 800271a:	2208      	movs	r2, #8
 800271c:	6202      	str	r2, [r0, #32]
 800271e:	6ee0      	ldr	r0, [r4, #108]	; 0x6c
 8002720:	4302      	orrs	r2, r0
 8002722:	66e2      	str	r2, [r4, #108]	; 0x6c
 8002724:	6ee2      	ldr	r2, [r4, #108]	; 0x6c
 8002726:	2a00      	cmp	r2, #0
 8002728:	d0ca      	beq.n	80026c0 <HAL_UART_IRQHandler+0x20>
 800272a:	2220      	movs	r2, #32
 800272c:	4213      	tst	r3, r2
 800272e:	d004      	beq.n	800273a <HAL_UART_IRQHandler+0x9a>
 8002730:	4211      	tst	r1, r2
 8002732:	d002      	beq.n	800273a <HAL_UART_IRQHandler+0x9a>
 8002734:	0020      	movs	r0, r4
 8002736:	f7ff ff75 	bl	8002624 <UART_Receive_IT>
 800273a:	6ee3      	ldr	r3, [r4, #108]	; 0x6c
 800273c:	0020      	movs	r0, r4
 800273e:	071b      	lsls	r3, r3, #28
 8002740:	d404      	bmi.n	800274c <HAL_UART_IRQHandler+0xac>
 8002742:	6823      	ldr	r3, [r4, #0]
 8002744:	689d      	ldr	r5, [r3, #8]
 8002746:	2340      	movs	r3, #64	; 0x40
 8002748:	401d      	ands	r5, r3
 800274a:	d01a      	beq.n	8002782 <HAL_UART_IRQHandler+0xe2>
 800274c:	f7ff fcdc 	bl	8002108 <UART_EndRxTransfer>
 8002750:	2140      	movs	r1, #64	; 0x40
 8002752:	6823      	ldr	r3, [r4, #0]
 8002754:	689a      	ldr	r2, [r3, #8]
 8002756:	420a      	tst	r2, r1
 8002758:	d00f      	beq.n	800277a <HAL_UART_IRQHandler+0xda>
 800275a:	689a      	ldr	r2, [r3, #8]
 800275c:	6e60      	ldr	r0, [r4, #100]	; 0x64
 800275e:	438a      	bics	r2, r1
 8002760:	609a      	str	r2, [r3, #8]
 8002762:	2800      	cmp	r0, #0
 8002764:	d009      	beq.n	800277a <HAL_UART_IRQHandler+0xda>
 8002766:	4b13      	ldr	r3, [pc, #76]	; (80027b4 <HAL_UART_IRQHandler+0x114>)
 8002768:	6343      	str	r3, [r0, #52]	; 0x34
 800276a:	f7fe fd6a 	bl	8001242 <HAL_DMA_Abort_IT>
 800276e:	2800      	cmp	r0, #0
 8002770:	d0a6      	beq.n	80026c0 <HAL_UART_IRQHandler+0x20>
 8002772:	6e60      	ldr	r0, [r4, #100]	; 0x64
 8002774:	6b43      	ldr	r3, [r0, #52]	; 0x34
 8002776:	4798      	blx	r3
 8002778:	e7a2      	b.n	80026c0 <HAL_UART_IRQHandler+0x20>
 800277a:	0020      	movs	r0, r4
 800277c:	f7ff fdb0 	bl	80022e0 <HAL_UART_ErrorCallback>
 8002780:	e79e      	b.n	80026c0 <HAL_UART_IRQHandler+0x20>
 8002782:	f7ff fdad 	bl	80022e0 <HAL_UART_ErrorCallback>
 8002786:	66e5      	str	r5, [r4, #108]	; 0x6c
 8002788:	e79a      	b.n	80026c0 <HAL_UART_IRQHandler+0x20>
 800278a:	2280      	movs	r2, #128	; 0x80
 800278c:	4213      	tst	r3, r2
 800278e:	d005      	beq.n	800279c <HAL_UART_IRQHandler+0xfc>
 8002790:	4211      	tst	r1, r2
 8002792:	d003      	beq.n	800279c <HAL_UART_IRQHandler+0xfc>
 8002794:	0020      	movs	r0, r4
 8002796:	f7ff ff05 	bl	80025a4 <UART_Transmit_IT>
 800279a:	e791      	b.n	80026c0 <HAL_UART_IRQHandler+0x20>
 800279c:	2240      	movs	r2, #64	; 0x40
 800279e:	4213      	tst	r3, r2
 80027a0:	d100      	bne.n	80027a4 <HAL_UART_IRQHandler+0x104>
 80027a2:	e78d      	b.n	80026c0 <HAL_UART_IRQHandler+0x20>
 80027a4:	4211      	tst	r1, r2
 80027a6:	d100      	bne.n	80027aa <HAL_UART_IRQHandler+0x10a>
 80027a8:	e78a      	b.n	80026c0 <HAL_UART_IRQHandler+0x20>
 80027aa:	0020      	movs	r0, r4
 80027ac:	f7ff ff2c 	bl	8002608 <UART_EndTransmit_IT>
 80027b0:	e786      	b.n	80026c0 <HAL_UART_IRQHandler+0x20>
 80027b2:	46c0      	nop			; (mov r8, r8)
 80027b4:	0800233d 	.word	0x0800233d

080027b8 <get_current_potentiometer>:
 80027b8:	b5f8      	push	{r3, r4, r5, r6, r7, lr}
 80027ba:	4b18      	ldr	r3, [pc, #96]	; (800281c <get_current_potentiometer+0x64>)
 80027bc:	4a18      	ldr	r2, [pc, #96]	; (8002820 <get_current_potentiometer+0x68>)
 80027be:	681b      	ldr	r3, [r3, #0]
 80027c0:	4c18      	ldr	r4, [pc, #96]	; (8002824 <get_current_potentiometer+0x6c>)
 80027c2:	685d      	ldr	r5, [r3, #4]
 80027c4:	6015      	str	r5, [r2, #0]
 80027c6:	6818      	ldr	r0, [r3, #0]
 80027c8:	4a17      	ldr	r2, [pc, #92]	; (8002828 <get_current_potentiometer+0x70>)
 80027ca:	4b18      	ldr	r3, [pc, #96]	; (800282c <get_current_potentiometer+0x74>)
 80027cc:	6020      	str	r0, [r4, #0]
 80027ce:	681e      	ldr	r6, [r3, #0]
 80027d0:	685f      	ldr	r7, [r3, #4]
 80027d2:	6016      	str	r6, [r2, #0]
 80027d4:	6057      	str	r7, [r2, #4]
 80027d6:	4e16      	ldr	r6, [pc, #88]	; (8002830 <get_current_potentiometer+0x78>)
 80027d8:	6831      	ldr	r1, [r6, #0]
 80027da:	6872      	ldr	r2, [r6, #4]
 80027dc:	6019      	str	r1, [r3, #0]
 80027de:	605a      	str	r2, [r3, #4]
 80027e0:	4b14      	ldr	r3, [pc, #80]	; (8002834 <get_current_potentiometer+0x7c>)
 80027e2:	681b      	ldr	r3, [r3, #0]
 80027e4:	1ac0      	subs	r0, r0, r3
 80027e6:	f7fd fe4d 	bl	8000484 <__aeabi_i2f>
 80027ea:	4913      	ldr	r1, [pc, #76]	; (8002838 <get_current_potentiometer+0x80>)
 80027ec:	f7fd fd2a 	bl	8000244 <__aeabi_fmul>
 80027f0:	f7fe f95a 	bl	8000aa8 <__aeabi_f2d>
 80027f4:	2200      	movs	r2, #0
 80027f6:	4b11      	ldr	r3, [pc, #68]	; (800283c <get_current_potentiometer+0x84>)
 80027f8:	6030      	str	r0, [r6, #0]
 80027fa:	6071      	str	r1, [r6, #4]
 80027fc:	701a      	strb	r2, [r3, #0]
 80027fe:	4e10      	ldr	r6, [pc, #64]	; (8002840 <get_current_potentiometer+0x88>)
 8002800:	4b10      	ldr	r3, [pc, #64]	; (8002844 <get_current_potentiometer+0x8c>)
 8002802:	002a      	movs	r2, r5
 8002804:	0031      	movs	r1, r6
 8002806:	6818      	ldr	r0, [r3, #0]
 8002808:	f000 ff38 	bl	800367c <siprintf>
 800280c:	4b0e      	ldr	r3, [pc, #56]	; (8002848 <get_current_potentiometer+0x90>)
 800280e:	0031      	movs	r1, r6
 8002810:	6822      	ldr	r2, [r4, #0]
 8002812:	6818      	ldr	r0, [r3, #0]
 8002814:	f000 ff32 	bl	800367c <siprintf>
 8002818:	bdf8      	pop	{r3, r4, r5, r6, r7, pc}
 800281a:	46c0      	nop			; (mov r8, r8)
 800281c:	200000ac 	.word	0x200000ac
 8002820:	2000010c 	.word	0x2000010c
 8002824:	20000110 	.word	0x20000110
 8002828:	200000d8 	.word	0x200000d8
 800282c:	200000c8 	.word	0x200000c8
 8002830:	200000f0 	.word	0x200000f0
 8002834:	20000028 	.word	0x20000028
 8002838:	3ac88a48 	.word	0x3ac88a48
 800283c:	20000144 	.word	0x20000144
 8002840:	08003e14 	.word	0x08003e14
 8002844:	20000124 	.word	0x20000124
 8002848:	20000118 	.word	0x20000118

0800284c <HAL_UART_RxCpltCallback>:
 800284c:	2201      	movs	r2, #1
 800284e:	4b01      	ldr	r3, [pc, #4]	; (8002854 <HAL_UART_RxCpltCallback+0x8>)
 8002850:	701a      	strb	r2, [r3, #0]
 8002852:	4770      	bx	lr
 8002854:	20000145 	.word	0x20000145

08002858 <HAL_GPIO_EXTI_Callback>:
 8002858:	2201      	movs	r2, #1
 800285a:	4b01      	ldr	r3, [pc, #4]	; (8002860 <HAL_GPIO_EXTI_Callback+0x8>)
 800285c:	701a      	strb	r2, [r3, #0]
 800285e:	4770      	bx	lr
 8002860:	200000bf 	.word	0x200000bf

08002864 <HAL_TIM_PeriodElapsedCallback>:
 8002864:	4a09      	ldr	r2, [pc, #36]	; (800288c <HAL_TIM_PeriodElapsedCallback+0x28>)
 8002866:	6803      	ldr	r3, [r0, #0]
 8002868:	6812      	ldr	r2, [r2, #0]
 800286a:	4293      	cmp	r3, r2
 800286c:	d103      	bne.n	8002876 <HAL_TIM_PeriodElapsedCallback+0x12>
 800286e:	2201      	movs	r2, #1
 8002870:	4b07      	ldr	r3, [pc, #28]	; (8002890 <HAL_TIM_PeriodElapsedCallback+0x2c>)
 8002872:	701a      	strb	r2, [r3, #0]
 8002874:	4770      	bx	lr
 8002876:	4a07      	ldr	r2, [pc, #28]	; (8002894 <HAL_TIM_PeriodElapsedCallback+0x30>)
 8002878:	6812      	ldr	r2, [r2, #0]
 800287a:	4293      	cmp	r3, r2
 800287c:	d1fa      	bne.n	8002874 <HAL_TIM_PeriodElapsedCallback+0x10>
 800287e:	2301      	movs	r3, #1
 8002880:	4a05      	ldr	r2, [pc, #20]	; (8002898 <HAL_TIM_PeriodElapsedCallback+0x34>)
 8002882:	7013      	strb	r3, [r2, #0]
 8002884:	4a05      	ldr	r2, [pc, #20]	; (800289c <HAL_TIM_PeriodElapsedCallback+0x38>)
 8002886:	7013      	strb	r3, [r2, #0]
 8002888:	e7f4      	b.n	8002874 <HAL_TIM_PeriodElapsedCallback+0x10>
 800288a:	46c0      	nop			; (mov r8, r8)
 800288c:	20000320 	.word	0x20000320
 8002890:	20000024 	.word	0x20000024
 8002894:	20000250 	.word	0x20000250
 8002898:	200000b0 	.word	0x200000b0
 800289c:	200000bc 	.word	0x200000bc

080028a0 <HAL_TIM_OC_DelayElapsedCallback>:
 80028a0:	2201      	movs	r2, #1
 80028a2:	4b01      	ldr	r3, [pc, #4]	; (80028a8 <HAL_TIM_OC_DelayElapsedCallback+0x8>)
 80028a4:	701a      	strb	r2, [r3, #0]
 80028a6:	4770      	bx	lr
 80028a8:	200000e8 	.word	0x200000e8

080028ac <HAL_TIM_IC_CaptureCallback>:
 80028ac:	2201      	movs	r2, #1
 80028ae:	4b01      	ldr	r3, [pc, #4]	; (80028b4 <HAL_TIM_IC_CaptureCallback+0x8>)
 80028b0:	701a      	strb	r2, [r3, #0]
 80028b2:	4770      	bx	lr
 80028b4:	200000e8 	.word	0x200000e8

080028b8 <HAL_TIM_PWM_PulseFinishedCallback>:
 80028b8:	2201      	movs	r2, #1
 80028ba:	4b01      	ldr	r3, [pc, #4]	; (80028c0 <HAL_TIM_PWM_PulseFinishedCallback+0x8>)
 80028bc:	701a      	strb	r2, [r3, #0]
 80028be:	4770      	bx	lr
 80028c0:	200000e8 	.word	0x200000e8

080028c4 <HAL_UART_TxCpltCallback>:
 80028c4:	4b07      	ldr	r3, [pc, #28]	; (80028e4 <HAL_UART_TxCpltCallback+0x20>)
 80028c6:	b510      	push	{r4, lr}
 80028c8:	6818      	ldr	r0, [r3, #0]
 80028ca:	2208      	movs	r2, #8
 80028cc:	2100      	movs	r1, #0
 80028ce:	f000 fe12 	bl	80034f6 <memset>
 80028d2:	2100      	movs	r1, #0
 80028d4:	4b04      	ldr	r3, [pc, #16]	; (80028e8 <HAL_UART_TxCpltCallback+0x24>)
 80028d6:	2228      	movs	r2, #40	; 0x28
 80028d8:	7019      	strb	r1, [r3, #0]
 80028da:	4b04      	ldr	r3, [pc, #16]	; (80028ec <HAL_UART_TxCpltCallback+0x28>)
 80028dc:	6818      	ldr	r0, [r3, #0]
 80028de:	f000 fe0a 	bl	80034f6 <memset>
 80028e2:	bd10      	pop	{r4, pc}
 80028e4:	20000104 	.word	0x20000104
 80028e8:	20000108 	.word	0x20000108
 80028ec:	200000b8 	.word	0x200000b8

080028f0 <read_motor_position>:
 80028f0:	b570      	push	{r4, r5, r6, lr}
 80028f2:	4b16      	ldr	r3, [pc, #88]	; (800294c <read_motor_position+0x5c>)
 80028f4:	4a16      	ldr	r2, [pc, #88]	; (8002950 <read_motor_position+0x60>)
 80028f6:	4c17      	ldr	r4, [pc, #92]	; (8002954 <read_motor_position+0x64>)
 80028f8:	4d17      	ldr	r5, [pc, #92]	; (8002958 <read_motor_position+0x68>)
 80028fa:	6818      	ldr	r0, [r3, #0]
 80028fc:	6859      	ldr	r1, [r3, #4]
 80028fe:	6010      	str	r0, [r2, #0]
 8002900:	6051      	str	r1, [r2, #4]
 8002902:	6829      	ldr	r1, [r5, #0]
 8002904:	686a      	ldr	r2, [r5, #4]
 8002906:	6019      	str	r1, [r3, #0]
 8002908:	605a      	str	r2, [r3, #4]
 800290a:	4b14      	ldr	r3, [pc, #80]	; (800295c <read_motor_position+0x6c>)
 800290c:	7822      	ldrb	r2, [r4, #0]
 800290e:	2120      	movs	r1, #32
 8002910:	4813      	ldr	r0, [pc, #76]	; (8002960 <read_motor_position+0x70>)
 8002912:	701a      	strb	r2, [r3, #0]
 8002914:	f7fe fdb2 	bl	800147c <HAL_GPIO_ReadPin>
 8002918:	4e12      	ldr	r6, [pc, #72]	; (8002964 <read_motor_position+0x74>)
 800291a:	6823      	ldr	r3, [r4, #0]
 800291c:	2801      	cmp	r0, #1
 800291e:	d112      	bne.n	8002946 <read_motor_position+0x56>
 8002920:	1e58      	subs	r0, r3, #1
 8002922:	6020      	str	r0, [r4, #0]
 8002924:	f7fe f87e 	bl	8000a24 <__aeabi_i2d>
 8002928:	0002      	movs	r2, r0
 800292a:	000b      	movs	r3, r1
 800292c:	6830      	ldr	r0, [r6, #0]
 800292e:	6871      	ldr	r1, [r6, #4]
 8002930:	f7fd fdf8 	bl	8000524 <__aeabi_dmul>
 8002934:	4b0c      	ldr	r3, [pc, #48]	; (8002968 <read_motor_position+0x78>)
 8002936:	6028      	str	r0, [r5, #0]
 8002938:	6069      	str	r1, [r5, #4]
 800293a:	6822      	ldr	r2, [r4, #0]
 800293c:	490b      	ldr	r1, [pc, #44]	; (800296c <read_motor_position+0x7c>)
 800293e:	6818      	ldr	r0, [r3, #0]
 8002940:	f000 fe9c 	bl	800367c <siprintf>
 8002944:	bd70      	pop	{r4, r5, r6, pc}
 8002946:	1c58      	adds	r0, r3, #1
 8002948:	e7eb      	b.n	8002922 <read_motor_position+0x32>
 800294a:	46c0      	nop			; (mov r8, r8)
 800294c:	200000d0 	.word	0x200000d0
 8002950:	200000e0 	.word	0x200000e0
 8002954:	20000100 	.word	0x20000100
 8002958:	200000f8 	.word	0x200000f8
 800295c:	200000c0 	.word	0x200000c0
 8002960:	48000400 	.word	0x48000400
 8002964:	20000010 	.word	0x20000010
 8002968:	2000011c 	.word	0x2000011c
 800296c:	08003e18 	.word	0x08003e18

08002970 <output_torque>:
 8002970:	b570      	push	{r4, r5, r6, lr}
 8002972:	0002      	movs	r2, r0
 8002974:	000c      	movs	r4, r1
 8002976:	4d07      	ldr	r5, [pc, #28]	; (8002994 <output_torque+0x24>)
 8002978:	291e      	cmp	r1, #30
 800297a:	d903      	bls.n	8002984 <output_torque+0x14>
 800297c:	2264      	movs	r2, #100	; 0x64
 800297e:	682b      	ldr	r3, [r5, #0]
 8002980:	639a      	str	r2, [r3, #56]	; 0x38
 8002982:	bd70      	pop	{r4, r5, r6, pc}
 8002984:	2090      	movs	r0, #144	; 0x90
 8002986:	2120      	movs	r1, #32
 8002988:	05c0      	lsls	r0, r0, #23
 800298a:	f7fe fd7d 	bl	8001488 <HAL_GPIO_WritePin>
 800298e:	682b      	ldr	r3, [r5, #0]
 8002990:	639c      	str	r4, [r3, #56]	; 0x38
 8002992:	e7f6      	b.n	8002982 <output_torque+0x12>
 8002994:	2000015c 	.word	0x2000015c

08002998 <startPeripherals>:
 8002998:	b510      	push	{r4, lr}
 800299a:	4c12      	ldr	r4, [pc, #72]	; (80029e4 <startPeripherals+0x4c>)
 800299c:	0020      	movs	r0, r4
 800299e:	f7fe fb23 	bl	8000fe8 <HAL_ADCEx_Calibration_Start>
 80029a2:	4b11      	ldr	r3, [pc, #68]	; (80029e8 <startPeripherals+0x50>)
 80029a4:	2202      	movs	r2, #2
 80029a6:	6819      	ldr	r1, [r3, #0]
 80029a8:	0020      	movs	r0, r4
 80029aa:	f7fe fa0f 	bl	8000dcc <HAL_ADC_Start_DMA>
 80029ae:	480f      	ldr	r0, [pc, #60]	; (80029ec <startPeripherals+0x54>)
 80029b0:	f7ff f970 	bl	8001c94 <HAL_TIM_Base_Start_IT>
 80029b4:	480e      	ldr	r0, [pc, #56]	; (80029f0 <startPeripherals+0x58>)
 80029b6:	f7ff f96d 	bl	8001c94 <HAL_TIM_Base_Start_IT>
 80029ba:	4c0e      	ldr	r4, [pc, #56]	; (80029f4 <startPeripherals+0x5c>)
 80029bc:	2104      	movs	r1, #4
 80029be:	0020      	movs	r0, r4
 80029c0:	f7ff fb40 	bl	8002044 <HAL_TIM_PWM_Start_IT>
 80029c4:	2200      	movs	r2, #0
 80029c6:	6823      	ldr	r3, [r4, #0]
 80029c8:	490b      	ldr	r1, [pc, #44]	; (80029f8 <startPeripherals+0x60>)
 80029ca:	639a      	str	r2, [r3, #56]	; 0x38
 80029cc:	480b      	ldr	r0, [pc, #44]	; (80029fc <startPeripherals+0x64>)
 80029ce:	3201      	adds	r2, #1
 80029d0:	f7ff fbd8 	bl	8002184 <HAL_UART_Receive_IT>
 80029d4:	2090      	movs	r0, #144	; 0x90
 80029d6:	2201      	movs	r2, #1
 80029d8:	2108      	movs	r1, #8
 80029da:	05c0      	lsls	r0, r0, #23
 80029dc:	f7fe fd54 	bl	8001488 <HAL_GPIO_WritePin>
 80029e0:	bd10      	pop	{r4, pc}
 80029e2:	46c0      	nop			; (mov r8, r8)
 80029e4:	200002d4 	.word	0x200002d4
 80029e8:	200000ac 	.word	0x200000ac
 80029ec:	20000250 	.word	0x20000250
 80029f0:	20000320 	.word	0x20000320
 80029f4:	2000015c 	.word	0x2000015c
 80029f8:	20000109 	.word	0x20000109
 80029fc:	200001e0 	.word	0x200001e0

08002a00 <init_variables>:
 8002a00:	b570      	push	{r4, r5, r6, lr}
 8002a02:	2008      	movs	r0, #8
 8002a04:	2408      	movs	r4, #8
 8002a06:	f000 fd63 	bl	80034d0 <malloc>
 8002a0a:	4b31      	ldr	r3, [pc, #196]	; (8002ad0 <init_variables+0xd0>)
 8002a0c:	0022      	movs	r2, r4
 8002a0e:	2100      	movs	r1, #0
 8002a10:	6018      	str	r0, [r3, #0]
 8002a12:	f000 fd70 	bl	80034f6 <memset>
 8002a16:	0020      	movs	r0, r4
 8002a18:	f000 fd5a 	bl	80034d0 <malloc>
 8002a1c:	4b2d      	ldr	r3, [pc, #180]	; (8002ad4 <init_variables+0xd4>)
 8002a1e:	0022      	movs	r2, r4
 8002a20:	2100      	movs	r1, #0
 8002a22:	6018      	str	r0, [r3, #0]
 8002a24:	f000 fd67 	bl	80034f6 <memset>
 8002a28:	2048      	movs	r0, #72	; 0x48
 8002a2a:	f000 fd51 	bl	80034d0 <malloc>
 8002a2e:	4b2a      	ldr	r3, [pc, #168]	; (8002ad8 <init_variables+0xd8>)
 8002a30:	2248      	movs	r2, #72	; 0x48
 8002a32:	2100      	movs	r1, #0
 8002a34:	0005      	movs	r5, r0
 8002a36:	6018      	str	r0, [r3, #0]
 8002a38:	f000 fd5d 	bl	80034f6 <memset>
 8002a3c:	4b27      	ldr	r3, [pc, #156]	; (8002adc <init_variables+0xdc>)
 8002a3e:	681e      	ldr	r6, [r3, #0]
 8002a40:	0030      	movs	r0, r6
 8002a42:	f7fd fb61 	bl	8000108 <strlen>
 8002a46:	0031      	movs	r1, r6
 8002a48:	0002      	movs	r2, r0
 8002a4a:	0028      	movs	r0, r5
 8002a4c:	f000 fd4a 	bl	80034e4 <memcpy>
 8002a50:	0020      	movs	r0, r4
 8002a52:	f000 fd3d 	bl	80034d0 <malloc>
 8002a56:	2400      	movs	r4, #0
 8002a58:	4b21      	ldr	r3, [pc, #132]	; (8002ae0 <init_variables+0xe0>)
 8002a5a:	8004      	strh	r4, [r0, #0]
 8002a5c:	6018      	str	r0, [r3, #0]
 8002a5e:	20c8      	movs	r0, #200	; 0xc8
 8002a60:	0080      	lsls	r0, r0, #2
 8002a62:	f000 fd35 	bl	80034d0 <malloc>
 8002a66:	4b1f      	ldr	r3, [pc, #124]	; (8002ae4 <init_variables+0xe4>)
 8002a68:	0021      	movs	r1, r4
 8002a6a:	2264      	movs	r2, #100	; 0x64
 8002a6c:	6018      	str	r0, [r3, #0]
 8002a6e:	f000 fd42 	bl	80034f6 <memset>
 8002a72:	2005      	movs	r0, #5
 8002a74:	f000 fd2c 	bl	80034d0 <malloc>
 8002a78:	4b1b      	ldr	r3, [pc, #108]	; (8002ae8 <init_variables+0xe8>)
 8002a7a:	0021      	movs	r1, r4
 8002a7c:	2205      	movs	r2, #5
 8002a7e:	6018      	str	r0, [r3, #0]
 8002a80:	f000 fd39 	bl	80034f6 <memset>
 8002a84:	200a      	movs	r0, #10
 8002a86:	f000 fd23 	bl	80034d0 <malloc>
 8002a8a:	4b18      	ldr	r3, [pc, #96]	; (8002aec <init_variables+0xec>)
 8002a8c:	0021      	movs	r1, r4
 8002a8e:	220a      	movs	r2, #10
 8002a90:	6018      	str	r0, [r3, #0]
 8002a92:	f000 fd30 	bl	80034f6 <memset>
 8002a96:	2020      	movs	r0, #32
 8002a98:	f000 fd1a 	bl	80034d0 <malloc>
 8002a9c:	4b14      	ldr	r3, [pc, #80]	; (8002af0 <init_variables+0xf0>)
 8002a9e:	0021      	movs	r1, r4
 8002aa0:	2220      	movs	r2, #32
 8002aa2:	0005      	movs	r5, r0
 8002aa4:	6018      	str	r0, [r3, #0]
 8002aa6:	f000 fd26 	bl	80034f6 <memset>
 8002aaa:	2004      	movs	r0, #4
 8002aac:	f000 fd10 	bl	80034d0 <malloc>
 8002ab0:	4b10      	ldr	r3, [pc, #64]	; (8002af4 <init_variables+0xf4>)
 8002ab2:	6004      	str	r4, [r0, #0]
 8002ab4:	6018      	str	r0, [r3, #0]
 8002ab6:	2004      	movs	r0, #4
 8002ab8:	f000 fd0a 	bl	80034d0 <malloc>
 8002abc:	4b0e      	ldr	r3, [pc, #56]	; (8002af8 <init_variables+0xf8>)
 8002abe:	6004      	str	r4, [r0, #0]
 8002ac0:	6018      	str	r0, [r3, #0]
 8002ac2:	4b0e      	ldr	r3, [pc, #56]	; (8002afc <init_variables+0xfc>)
 8002ac4:	0028      	movs	r0, r5
 8002ac6:	681a      	ldr	r2, [r3, #0]
 8002ac8:	490d      	ldr	r1, [pc, #52]	; (8002b00 <init_variables+0x100>)
 8002aca:	f000 fdd7 	bl	800367c <siprintf>
 8002ace:	bd70      	pop	{r4, r5, r6, pc}
 8002ad0:	20000104 	.word	0x20000104
 8002ad4:	20000148 	.word	0x20000148
 8002ad8:	200000b8 	.word	0x200000b8
 8002adc:	20000018 	.word	0x20000018
 8002ae0:	200000ac 	.word	0x200000ac
 8002ae4:	200000b4 	.word	0x200000b4
 8002ae8:	20000114 	.word	0x20000114
 8002aec:	20000118 	.word	0x20000118
 8002af0:	2000011c 	.word	0x2000011c
 8002af4:	20000124 	.word	0x20000124
 8002af8:	20000120 	.word	0x20000120
 8002afc:	20000100 	.word	0x20000100
 8002b00:	08003e18 	.word	0x08003e18

08002b04 <SystemClock_Config>:
 8002b04:	2312      	movs	r3, #18
 8002b06:	b530      	push	{r4, r5, lr}
 8002b08:	b095      	sub	sp, #84	; 0x54
 8002b0a:	9308      	str	r3, [sp, #32]
 8002b0c:	22a0      	movs	r2, #160	; 0xa0
 8002b0e:	3b02      	subs	r3, #2
 8002b10:	2401      	movs	r4, #1
 8002b12:	930c      	str	r3, [sp, #48]	; 0x30
 8002b14:	930e      	str	r3, [sp, #56]	; 0x38
 8002b16:	2502      	movs	r5, #2
 8002b18:	2300      	movs	r3, #0
 8002b1a:	0392      	lsls	r2, r2, #14
 8002b1c:	a808      	add	r0, sp, #32
 8002b1e:	940b      	str	r4, [sp, #44]	; 0x2c
 8002b20:	940d      	str	r4, [sp, #52]	; 0x34
 8002b22:	9510      	str	r5, [sp, #64]	; 0x40
 8002b24:	9311      	str	r3, [sp, #68]	; 0x44
 8002b26:	9212      	str	r2, [sp, #72]	; 0x48
 8002b28:	9313      	str	r3, [sp, #76]	; 0x4c
 8002b2a:	f7fe fcbf 	bl	80014ac <HAL_RCC_OscConfig>
 8002b2e:	2800      	cmp	r0, #0
 8002b30:	d000      	beq.n	8002b34 <SystemClock_Config+0x30>
 8002b32:	e7fe      	b.n	8002b32 <SystemClock_Config+0x2e>
 8002b34:	2307      	movs	r3, #7
 8002b36:	9002      	str	r0, [sp, #8]
 8002b38:	9003      	str	r0, [sp, #12]
 8002b3a:	0021      	movs	r1, r4
 8002b3c:	4668      	mov	r0, sp
 8002b3e:	9300      	str	r3, [sp, #0]
 8002b40:	9501      	str	r5, [sp, #4]
 8002b42:	f7fe fec7 	bl	80018d4 <HAL_RCC_ClockConfig>
 8002b46:	2800      	cmp	r0, #0
 8002b48:	d000      	beq.n	8002b4c <SystemClock_Config+0x48>
 8002b4a:	e7fe      	b.n	8002b4a <SystemClock_Config+0x46>
 8002b4c:	9006      	str	r0, [sp, #24]
 8002b4e:	a804      	add	r0, sp, #16
 8002b50:	9404      	str	r4, [sp, #16]
 8002b52:	f7fe ff6b 	bl	8001a2c <HAL_RCCEx_PeriphCLKConfig>
 8002b56:	1e04      	subs	r4, r0, #0
 8002b58:	d000      	beq.n	8002b5c <SystemClock_Config+0x58>
 8002b5a:	e7fe      	b.n	8002b5a <SystemClock_Config+0x56>
 8002b5c:	f7fe ff50 	bl	8001a00 <HAL_RCC_GetHCLKFreq>
 8002b60:	21fa      	movs	r1, #250	; 0xfa
 8002b62:	0089      	lsls	r1, r1, #2
 8002b64:	f7fd fae2 	bl	800012c <__udivsi3>
 8002b68:	f7fe facc 	bl	8001104 <HAL_SYSTICK_Config>
 8002b6c:	2004      	movs	r0, #4
 8002b6e:	f7fe fae3 	bl	8001138 <HAL_SYSTICK_CLKSourceConfig>
 8002b72:	2001      	movs	r0, #1
 8002b74:	0022      	movs	r2, r4
 8002b76:	0021      	movs	r1, r4
 8002b78:	4240      	negs	r0, r0
 8002b7a:	f7fe fa89 	bl	8001090 <HAL_NVIC_SetPriority>
 8002b7e:	b015      	add	sp, #84	; 0x54
 8002b80:	bd30      	pop	{r4, r5, pc}
	...

08002b84 <main>:
 8002b84:	b5f0      	push	{r4, r5, r6, r7, lr}
 8002b86:	b08d      	sub	sp, #52	; 0x34
 8002b88:	f7fe f810 	bl	8000bac <HAL_Init>
 8002b8c:	f7ff ffba 	bl	8002b04 <SystemClock_Config>
 8002b90:	2180      	movs	r1, #128	; 0x80
 8002b92:	4c75      	ldr	r4, [pc, #468]	; (8002d68 <main+0x1e4>)
 8002b94:	0289      	lsls	r1, r1, #10
 8002b96:	6962      	ldr	r2, [r4, #20]
 8002b98:	2090      	movs	r0, #144	; 0x90
 8002b9a:	430a      	orrs	r2, r1
 8002b9c:	6162      	str	r2, [r4, #20]
 8002b9e:	6963      	ldr	r3, [r4, #20]
 8002ba0:	05c0      	lsls	r0, r0, #23
 8002ba2:	400b      	ands	r3, r1
 8002ba4:	2180      	movs	r1, #128	; 0x80
 8002ba6:	9301      	str	r3, [sp, #4]
 8002ba8:	9b01      	ldr	r3, [sp, #4]
 8002baa:	6962      	ldr	r2, [r4, #20]
 8002bac:	02c9      	lsls	r1, r1, #11
 8002bae:	430a      	orrs	r2, r1
 8002bb0:	6162      	str	r2, [r4, #20]
 8002bb2:	6963      	ldr	r3, [r4, #20]
 8002bb4:	2200      	movs	r2, #0
 8002bb6:	400b      	ands	r3, r1
 8002bb8:	9302      	str	r3, [sp, #8]
 8002bba:	2138      	movs	r1, #56	; 0x38
 8002bbc:	9b02      	ldr	r3, [sp, #8]
 8002bbe:	f7fe fc63 	bl	8001488 <HAL_GPIO_WritePin>
 8002bc2:	2090      	movs	r0, #144	; 0x90
 8002bc4:	2500      	movs	r5, #0
 8002bc6:	2701      	movs	r7, #1
 8002bc8:	2338      	movs	r3, #56	; 0x38
 8002bca:	a905      	add	r1, sp, #20
 8002bcc:	05c0      	lsls	r0, r0, #23
 8002bce:	9305      	str	r3, [sp, #20]
 8002bd0:	9706      	str	r7, [sp, #24]
 8002bd2:	9507      	str	r5, [sp, #28]
 8002bd4:	9508      	str	r5, [sp, #32]
 8002bd6:	f7fe fba1 	bl	800131c <HAL_GPIO_Init>
 8002bda:	2310      	movs	r3, #16
 8002bdc:	9305      	str	r3, [sp, #20]
 8002bde:	4b63      	ldr	r3, [pc, #396]	; (8002d6c <main+0x1e8>)
 8002be0:	a905      	add	r1, sp, #20
 8002be2:	4863      	ldr	r0, [pc, #396]	; (8002d70 <main+0x1ec>)
 8002be4:	9306      	str	r3, [sp, #24]
 8002be6:	9507      	str	r5, [sp, #28]
 8002be8:	f7fe fb98 	bl	800131c <HAL_GPIO_Init>
 8002bec:	2320      	movs	r3, #32
 8002bee:	a905      	add	r1, sp, #20
 8002bf0:	485f      	ldr	r0, [pc, #380]	; (8002d70 <main+0x1ec>)
 8002bf2:	9305      	str	r3, [sp, #20]
 8002bf4:	9506      	str	r5, [sp, #24]
 8002bf6:	9507      	str	r5, [sp, #28]
 8002bf8:	f7fe fb90 	bl	800131c <HAL_GPIO_Init>
 8002bfc:	002a      	movs	r2, r5
 8002bfe:	0029      	movs	r1, r5
 8002c00:	2007      	movs	r0, #7
 8002c02:	f7fe fa45 	bl	8001090 <HAL_NVIC_SetPriority>
 8002c06:	2007      	movs	r0, #7
 8002c08:	f7fe fa72 	bl	80010f0 <HAL_NVIC_EnableIRQ>
 8002c0c:	6963      	ldr	r3, [r4, #20]
 8002c0e:	002a      	movs	r2, r5
 8002c10:	433b      	orrs	r3, r7
 8002c12:	6163      	str	r3, [r4, #20]
 8002c14:	6963      	ldr	r3, [r4, #20]
 8002c16:	0039      	movs	r1, r7
 8002c18:	403b      	ands	r3, r7
 8002c1a:	9300      	str	r3, [sp, #0]
 8002c1c:	2009      	movs	r0, #9
 8002c1e:	9b00      	ldr	r3, [sp, #0]
 8002c20:	f7fe fa36 	bl	8001090 <HAL_NVIC_SetPriority>
 8002c24:	2009      	movs	r0, #9
 8002c26:	f7fe fa63 	bl	80010f0 <HAL_NVIC_EnableIRQ>
 8002c2a:	002a      	movs	r2, r5
 8002c2c:	0039      	movs	r1, r7
 8002c2e:	200a      	movs	r0, #10
 8002c30:	f7fe fa2e 	bl	8001090 <HAL_NVIC_SetPriority>
 8002c34:	200a      	movs	r0, #10
 8002c36:	f7fe fa5b 	bl	80010f0 <HAL_NVIC_EnableIRQ>
 8002c3a:	4c4e      	ldr	r4, [pc, #312]	; (8002d74 <main+0x1f0>)
 8002c3c:	4b4e      	ldr	r3, [pc, #312]	; (8002d78 <main+0x1f4>)
 8002c3e:	2604      	movs	r6, #4
 8002c40:	6023      	str	r3, [r4, #0]
 8002c42:	23c2      	movs	r3, #194	; 0xc2
 8002c44:	0020      	movs	r0, r4
 8002c46:	33ff      	adds	r3, #255	; 0xff
 8002c48:	6065      	str	r5, [r4, #4]
 8002c4a:	60a5      	str	r5, [r4, #8]
 8002c4c:	60e5      	str	r5, [r4, #12]
 8002c4e:	6127      	str	r7, [r4, #16]
 8002c50:	6166      	str	r6, [r4, #20]
 8002c52:	61a5      	str	r5, [r4, #24]
 8002c54:	61e5      	str	r5, [r4, #28]
 8002c56:	6227      	str	r7, [r4, #32]
 8002c58:	6265      	str	r5, [r4, #36]	; 0x24
 8002c5a:	62a3      	str	r3, [r4, #40]	; 0x28
 8002c5c:	62e5      	str	r5, [r4, #44]	; 0x2c
 8002c5e:	6327      	str	r7, [r4, #48]	; 0x30
 8002c60:	6367      	str	r7, [r4, #52]	; 0x34
 8002c62:	f7fe f80d 	bl	8000c80 <HAL_ADC_Init>
 8002c66:	42a8      	cmp	r0, r5
 8002c68:	d000      	beq.n	8002c6c <main+0xe8>
 8002c6a:	e7fe      	b.n	8002c6a <main+0xe6>
 8002c6c:	2308      	movs	r3, #8
 8002c6e:	9305      	str	r3, [sp, #20]
 8002c70:	2380      	movs	r3, #128	; 0x80
 8002c72:	015b      	lsls	r3, r3, #5
 8002c74:	9306      	str	r3, [sp, #24]
 8002c76:	2307      	movs	r3, #7
 8002c78:	a905      	add	r1, sp, #20
 8002c7a:	0020      	movs	r0, r4
 8002c7c:	9307      	str	r3, [sp, #28]
 8002c7e:	f7fe f93d 	bl	8000efc <HAL_ADC_ConfigChannel>
 8002c82:	2800      	cmp	r0, #0
 8002c84:	d000      	beq.n	8002c88 <main+0x104>
 8002c86:	e7fe      	b.n	8002c86 <main+0x102>
 8002c88:	2309      	movs	r3, #9
 8002c8a:	a905      	add	r1, sp, #20
 8002c8c:	0020      	movs	r0, r4
 8002c8e:	9305      	str	r3, [sp, #20]
 8002c90:	f7fe f934 	bl	8000efc <HAL_ADC_ConfigChannel>
 8002c94:	2800      	cmp	r0, #0
 8002c96:	d000      	beq.n	8002c9a <main+0x116>
 8002c98:	e7fe      	b.n	8002c98 <main+0x114>
 8002c9a:	4b38      	ldr	r3, [pc, #224]	; (8002d7c <main+0x1f8>)
 8002c9c:	4a38      	ldr	r2, [pc, #224]	; (8002d80 <main+0x1fc>)
 8002c9e:	6098      	str	r0, [r3, #8]
 8002ca0:	601a      	str	r2, [r3, #0]
 8002ca2:	22e1      	movs	r2, #225	; 0xe1
 8002ca4:	0292      	lsls	r2, r2, #10
 8002ca6:	605a      	str	r2, [r3, #4]
 8002ca8:	220c      	movs	r2, #12
 8002caa:	60d8      	str	r0, [r3, #12]
 8002cac:	6118      	str	r0, [r3, #16]
 8002cae:	6198      	str	r0, [r3, #24]
 8002cb0:	61d8      	str	r0, [r3, #28]
 8002cb2:	6218      	str	r0, [r3, #32]
 8002cb4:	6258      	str	r0, [r3, #36]	; 0x24
 8002cb6:	0018      	movs	r0, r3
 8002cb8:	615a      	str	r2, [r3, #20]
 8002cba:	f7ff fc37 	bl	800252c <HAL_UART_Init>
 8002cbe:	2800      	cmp	r0, #0
 8002cc0:	d000      	beq.n	8002cc4 <main+0x140>
 8002cc2:	e7fe      	b.n	8002cc2 <main+0x13e>
 8002cc4:	4c2f      	ldr	r4, [pc, #188]	; (8002d84 <main+0x200>)
 8002cc6:	4b30      	ldr	r3, [pc, #192]	; (8002d88 <main+0x204>)
 8002cc8:	60a0      	str	r0, [r4, #8]
 8002cca:	6023      	str	r3, [r4, #0]
 8002ccc:	2330      	movs	r3, #48	; 0x30
 8002cce:	6120      	str	r0, [r4, #16]
 8002cd0:	6063      	str	r3, [r4, #4]
 8002cd2:	61a0      	str	r0, [r4, #24]
 8002cd4:	3333      	adds	r3, #51	; 0x33
 8002cd6:	0020      	movs	r0, r4
 8002cd8:	60e3      	str	r3, [r4, #12]
 8002cda:	f7ff f8e6 	bl	8001eaa <HAL_TIM_PWM_Init>
 8002cde:	2800      	cmp	r0, #0
 8002ce0:	d000      	beq.n	8002ce4 <main+0x160>
 8002ce2:	e7fe      	b.n	8002ce2 <main+0x15e>
 8002ce4:	9003      	str	r0, [sp, #12]
 8002ce6:	9004      	str	r0, [sp, #16]
 8002ce8:	a903      	add	r1, sp, #12
 8002cea:	0020      	movs	r0, r4
 8002cec:	f7ff f9e8 	bl	80020c0 <HAL_TIMEx_MasterConfigSynchronization>
 8002cf0:	2800      	cmp	r0, #0
 8002cf2:	d000      	beq.n	8002cf6 <main+0x172>
 8002cf4:	e7fe      	b.n	8002cf4 <main+0x170>
 8002cf6:	2360      	movs	r3, #96	; 0x60
 8002cf8:	9006      	str	r0, [sp, #24]
 8002cfa:	9007      	str	r0, [sp, #28]
 8002cfc:	9009      	str	r0, [sp, #36]	; 0x24
 8002cfe:	0032      	movs	r2, r6
 8002d00:	a905      	add	r1, sp, #20
 8002d02:	0020      	movs	r0, r4
 8002d04:	9305      	str	r3, [sp, #20]
 8002d06:	f7ff f927 	bl	8001f58 <HAL_TIM_PWM_ConfigChannel>
 8002d0a:	1e05      	subs	r5, r0, #0
 8002d0c:	d000      	beq.n	8002d10 <main+0x18c>
 8002d0e:	e7fe      	b.n	8002d0e <main+0x18a>
 8002d10:	0020      	movs	r0, r4
 8002d12:	f000 f8f5 	bl	8002f00 <HAL_TIM_MspPostInit>
 8002d16:	481d      	ldr	r0, [pc, #116]	; (8002d8c <main+0x208>)
 8002d18:	4b1d      	ldr	r3, [pc, #116]	; (8002d90 <main+0x20c>)
 8002d1a:	24fa      	movs	r4, #250	; 0xfa
 8002d1c:	6003      	str	r3, [r0, #0]
 8002d1e:	23c0      	movs	r3, #192	; 0xc0
 8002d20:	00a4      	lsls	r4, r4, #2
 8002d22:	6043      	str	r3, [r0, #4]
 8002d24:	6085      	str	r5, [r0, #8]
 8002d26:	60c4      	str	r4, [r0, #12]
 8002d28:	6105      	str	r5, [r0, #16]
 8002d2a:	6185      	str	r5, [r0, #24]
 8002d2c:	f7ff f8a2 	bl	8001e74 <HAL_TIM_Base_Init>
 8002d30:	2800      	cmp	r0, #0
 8002d32:	d000      	beq.n	8002d36 <main+0x1b2>
 8002d34:	e7fe      	b.n	8002d34 <main+0x1b0>
 8002d36:	4b17      	ldr	r3, [pc, #92]	; (8002d94 <main+0x210>)
 8002d38:	4a17      	ldr	r2, [pc, #92]	; (8002d98 <main+0x214>)
 8002d3a:	6098      	str	r0, [r3, #8]
 8002d3c:	601a      	str	r2, [r3, #0]
 8002d3e:	22c0      	movs	r2, #192	; 0xc0
 8002d40:	6118      	str	r0, [r3, #16]
 8002d42:	0052      	lsls	r2, r2, #1
 8002d44:	6158      	str	r0, [r3, #20]
 8002d46:	6198      	str	r0, [r3, #24]
 8002d48:	0018      	movs	r0, r3
 8002d4a:	605a      	str	r2, [r3, #4]
 8002d4c:	60dc      	str	r4, [r3, #12]
 8002d4e:	f7ff f891 	bl	8001e74 <HAL_TIM_Base_Init>
 8002d52:	2800      	cmp	r0, #0
 8002d54:	d000      	beq.n	8002d58 <main+0x1d4>
 8002d56:	e7fe      	b.n	8002d56 <main+0x1d2>
 8002d58:	f7ff fe52 	bl	8002a00 <init_variables>
 8002d5c:	f7ff fe1c 	bl	8002998 <startPeripherals>
 8002d60:	f000 fb04 	bl	800336c <user_main>
 8002d64:	e7fc      	b.n	8002d60 <main+0x1dc>
 8002d66:	46c0      	nop			; (mov r8, r8)
 8002d68:	40021000 	.word	0x40021000
 8002d6c:	10310000 	.word	0x10310000
 8002d70:	48000400 	.word	0x48000400
 8002d74:	200002d4 	.word	0x200002d4
 8002d78:	40012400 	.word	0x40012400
 8002d7c:	200001e0 	.word	0x200001e0
 8002d80:	40013800 	.word	0x40013800
 8002d84:	2000015c 	.word	0x2000015c
 8002d88:	40000400 	.word	0x40000400
 8002d8c:	20000250 	.word	0x20000250
 8002d90:	40002000 	.word	0x40002000
 8002d94:	20000320 	.word	0x20000320
 8002d98:	40014400 	.word	0x40014400

08002d9c <_Error_Handler>:
 8002d9c:	e7fe      	b.n	8002d9c <_Error_Handler>
	...

08002da0 <HAL_MspInit>:
 8002da0:	b507      	push	{r0, r1, r2, lr}
 8002da2:	2001      	movs	r0, #1
 8002da4:	4a0c      	ldr	r2, [pc, #48]	; (8002dd8 <HAL_MspInit+0x38>)
 8002da6:	6991      	ldr	r1, [r2, #24]
 8002da8:	4301      	orrs	r1, r0
 8002daa:	6191      	str	r1, [r2, #24]
 8002dac:	6993      	ldr	r3, [r2, #24]
 8002dae:	2200      	movs	r2, #0
 8002db0:	4003      	ands	r3, r0
 8002db2:	0011      	movs	r1, r2
 8002db4:	9301      	str	r3, [sp, #4]
 8002db6:	3806      	subs	r0, #6
 8002db8:	9b01      	ldr	r3, [sp, #4]
 8002dba:	f7fe f969 	bl	8001090 <HAL_NVIC_SetPriority>
 8002dbe:	2200      	movs	r2, #0
 8002dc0:	2002      	movs	r0, #2
 8002dc2:	0011      	movs	r1, r2
 8002dc4:	4240      	negs	r0, r0
 8002dc6:	f7fe f963 	bl	8001090 <HAL_NVIC_SetPriority>
 8002dca:	2200      	movs	r2, #0
 8002dcc:	2001      	movs	r0, #1
 8002dce:	0011      	movs	r1, r2
 8002dd0:	4240      	negs	r0, r0
 8002dd2:	f7fe f95d 	bl	8001090 <HAL_NVIC_SetPriority>
 8002dd6:	bd07      	pop	{r0, r1, r2, pc}
 8002dd8:	40021000 	.word	0x40021000

08002ddc <HAL_ADC_MspInit>:
 8002ddc:	b5f0      	push	{r4, r5, r6, r7, lr}
 8002dde:	4b1b      	ldr	r3, [pc, #108]	; (8002e4c <HAL_ADC_MspInit+0x70>)
 8002de0:	6802      	ldr	r2, [r0, #0]
 8002de2:	b087      	sub	sp, #28
 8002de4:	0005      	movs	r5, r0
 8002de6:	429a      	cmp	r2, r3
 8002de8:	d12d      	bne.n	8002e46 <HAL_ADC_MspInit+0x6a>
 8002dea:	2680      	movs	r6, #128	; 0x80
 8002dec:	4b18      	ldr	r3, [pc, #96]	; (8002e50 <HAL_ADC_MspInit+0x74>)
 8002dee:	00b6      	lsls	r6, r6, #2
 8002df0:	699a      	ldr	r2, [r3, #24]
 8002df2:	2700      	movs	r7, #0
 8002df4:	4332      	orrs	r2, r6
 8002df6:	619a      	str	r2, [r3, #24]
 8002df8:	699b      	ldr	r3, [r3, #24]
 8002dfa:	4816      	ldr	r0, [pc, #88]	; (8002e54 <HAL_ADC_MspInit+0x78>)
 8002dfc:	4033      	ands	r3, r6
 8002dfe:	9300      	str	r3, [sp, #0]
 8002e00:	9b00      	ldr	r3, [sp, #0]
 8002e02:	2303      	movs	r3, #3
 8002e04:	a901      	add	r1, sp, #4
 8002e06:	9301      	str	r3, [sp, #4]
 8002e08:	9302      	str	r3, [sp, #8]
 8002e0a:	9703      	str	r7, [sp, #12]
 8002e0c:	f7fe fa86 	bl	800131c <HAL_GPIO_Init>
 8002e10:	4c11      	ldr	r4, [pc, #68]	; (8002e58 <HAL_ADC_MspInit+0x7c>)
 8002e12:	4b12      	ldr	r3, [pc, #72]	; (8002e5c <HAL_ADC_MspInit+0x80>)
 8002e14:	0020      	movs	r0, r4
 8002e16:	6023      	str	r3, [r4, #0]
 8002e18:	2380      	movs	r3, #128	; 0x80
 8002e1a:	60e3      	str	r3, [r4, #12]
 8002e1c:	2380      	movs	r3, #128	; 0x80
 8002e1e:	011b      	lsls	r3, r3, #4
 8002e20:	6163      	str	r3, [r4, #20]
 8002e22:	2320      	movs	r3, #32
 8002e24:	61a3      	str	r3, [r4, #24]
 8002e26:	2380      	movs	r3, #128	; 0x80
 8002e28:	019b      	lsls	r3, r3, #6
 8002e2a:	6067      	str	r7, [r4, #4]
 8002e2c:	60a7      	str	r7, [r4, #8]
 8002e2e:	6126      	str	r6, [r4, #16]
 8002e30:	61e3      	str	r3, [r4, #28]
 8002e32:	f7fe f995 	bl	8001160 <HAL_DMA_Init>
 8002e36:	42b8      	cmp	r0, r7
 8002e38:	d003      	beq.n	8002e42 <HAL_ADC_MspInit+0x66>
 8002e3a:	216b      	movs	r1, #107	; 0x6b
 8002e3c:	4808      	ldr	r0, [pc, #32]	; (8002e60 <HAL_ADC_MspInit+0x84>)
 8002e3e:	f7ff ffad 	bl	8002d9c <_Error_Handler>
 8002e42:	63ec      	str	r4, [r5, #60]	; 0x3c
 8002e44:	6265      	str	r5, [r4, #36]	; 0x24
 8002e46:	b007      	add	sp, #28
 8002e48:	bdf0      	pop	{r4, r5, r6, r7, pc}
 8002e4a:	46c0      	nop			; (mov r8, r8)
 8002e4c:	40012400 	.word	0x40012400
 8002e50:	40021000 	.word	0x40021000
 8002e54:	48000400 	.word	0x48000400
 8002e58:	20000290 	.word	0x20000290
 8002e5c:	40020008 	.word	0x40020008
 8002e60:	08003e1b 	.word	0x08003e1b

08002e64 <HAL_TIM_PWM_MspInit>:
 8002e64:	b507      	push	{r0, r1, r2, lr}
 8002e66:	4b0b      	ldr	r3, [pc, #44]	; (8002e94 <HAL_TIM_PWM_MspInit+0x30>)
 8002e68:	6802      	ldr	r2, [r0, #0]
 8002e6a:	429a      	cmp	r2, r3
 8002e6c:	d110      	bne.n	8002e90 <HAL_TIM_PWM_MspInit+0x2c>
 8002e6e:	2002      	movs	r0, #2
 8002e70:	4a09      	ldr	r2, [pc, #36]	; (8002e98 <HAL_TIM_PWM_MspInit+0x34>)
 8002e72:	69d1      	ldr	r1, [r2, #28]
 8002e74:	4301      	orrs	r1, r0
 8002e76:	61d1      	str	r1, [r2, #28]
 8002e78:	69d3      	ldr	r3, [r2, #28]
 8002e7a:	2101      	movs	r1, #1
 8002e7c:	4003      	ands	r3, r0
 8002e7e:	9301      	str	r3, [sp, #4]
 8002e80:	300e      	adds	r0, #14
 8002e82:	2200      	movs	r2, #0
 8002e84:	9b01      	ldr	r3, [sp, #4]
 8002e86:	f7fe f903 	bl	8001090 <HAL_NVIC_SetPriority>
 8002e8a:	2010      	movs	r0, #16
 8002e8c:	f7fe f930 	bl	80010f0 <HAL_NVIC_EnableIRQ>
 8002e90:	bd07      	pop	{r0, r1, r2, pc}
 8002e92:	46c0      	nop			; (mov r8, r8)
 8002e94:	40000400 	.word	0x40000400
 8002e98:	40021000 	.word	0x40021000

08002e9c <HAL_TIM_Base_MspInit>:
 8002e9c:	b507      	push	{r0, r1, r2, lr}
 8002e9e:	6803      	ldr	r3, [r0, #0]
 8002ea0:	4a14      	ldr	r2, [pc, #80]	; (8002ef4 <HAL_TIM_Base_MspInit+0x58>)
 8002ea2:	4293      	cmp	r3, r2
 8002ea4:	d112      	bne.n	8002ecc <HAL_TIM_Base_MspInit+0x30>
 8002ea6:	2080      	movs	r0, #128	; 0x80
 8002ea8:	4a13      	ldr	r2, [pc, #76]	; (8002ef8 <HAL_TIM_Base_MspInit+0x5c>)
 8002eaa:	0040      	lsls	r0, r0, #1
 8002eac:	69d1      	ldr	r1, [r2, #28]
 8002eae:	4301      	orrs	r1, r0
 8002eb0:	61d1      	str	r1, [r2, #28]
 8002eb2:	69d3      	ldr	r3, [r2, #28]
 8002eb4:	2101      	movs	r1, #1
 8002eb6:	4003      	ands	r3, r0
 8002eb8:	9300      	str	r3, [sp, #0]
 8002eba:	38ed      	subs	r0, #237	; 0xed
 8002ebc:	2200      	movs	r2, #0
 8002ebe:	9b00      	ldr	r3, [sp, #0]
 8002ec0:	f7fe f8e6 	bl	8001090 <HAL_NVIC_SetPriority>
 8002ec4:	2013      	movs	r0, #19
 8002ec6:	f7fe f913 	bl	80010f0 <HAL_NVIC_EnableIRQ>
 8002eca:	bd07      	pop	{r0, r1, r2, pc}
 8002ecc:	4a0b      	ldr	r2, [pc, #44]	; (8002efc <HAL_TIM_Base_MspInit+0x60>)
 8002ece:	4293      	cmp	r3, r2
 8002ed0:	d1fb      	bne.n	8002eca <HAL_TIM_Base_MspInit+0x2e>
 8002ed2:	2080      	movs	r0, #128	; 0x80
 8002ed4:	4a08      	ldr	r2, [pc, #32]	; (8002ef8 <HAL_TIM_Base_MspInit+0x5c>)
 8002ed6:	0280      	lsls	r0, r0, #10
 8002ed8:	6991      	ldr	r1, [r2, #24]
 8002eda:	4301      	orrs	r1, r0
 8002edc:	6191      	str	r1, [r2, #24]
 8002ede:	6993      	ldr	r3, [r2, #24]
 8002ee0:	2200      	movs	r2, #0
 8002ee2:	4003      	ands	r3, r0
 8002ee4:	9301      	str	r3, [sp, #4]
 8002ee6:	2015      	movs	r0, #21
 8002ee8:	0011      	movs	r1, r2
 8002eea:	9b01      	ldr	r3, [sp, #4]
 8002eec:	f7fe f8d0 	bl	8001090 <HAL_NVIC_SetPriority>
 8002ef0:	2015      	movs	r0, #21
 8002ef2:	e7e8      	b.n	8002ec6 <HAL_TIM_Base_MspInit+0x2a>
 8002ef4:	40002000 	.word	0x40002000
 8002ef8:	40021000 	.word	0x40021000
 8002efc:	40014400 	.word	0x40014400

08002f00 <HAL_TIM_MspPostInit>:
 8002f00:	b57f      	push	{r0, r1, r2, r3, r4, r5, r6, lr}
 8002f02:	4b0a      	ldr	r3, [pc, #40]	; (8002f2c <HAL_TIM_MspPostInit+0x2c>)
 8002f04:	6802      	ldr	r2, [r0, #0]
 8002f06:	429a      	cmp	r2, r3
 8002f08:	d10d      	bne.n	8002f26 <HAL_TIM_MspPostInit+0x26>
 8002f0a:	2380      	movs	r3, #128	; 0x80
 8002f0c:	9301      	str	r3, [sp, #4]
 8002f0e:	3b7e      	subs	r3, #126	; 0x7e
 8002f10:	9302      	str	r3, [sp, #8]
 8002f12:	2090      	movs	r0, #144	; 0x90
 8002f14:	2300      	movs	r3, #0
 8002f16:	a901      	add	r1, sp, #4
 8002f18:	9303      	str	r3, [sp, #12]
 8002f1a:	9304      	str	r3, [sp, #16]
 8002f1c:	05c0      	lsls	r0, r0, #23
 8002f1e:	3301      	adds	r3, #1
 8002f20:	9305      	str	r3, [sp, #20]
 8002f22:	f7fe f9fb 	bl	800131c <HAL_GPIO_Init>
 8002f26:	b007      	add	sp, #28
 8002f28:	bd00      	pop	{pc}
 8002f2a:	46c0      	nop			; (mov r8, r8)
 8002f2c:	40000400 	.word	0x40000400

08002f30 <HAL_UART_MspInit>:
 8002f30:	b570      	push	{r4, r5, r6, lr}
 8002f32:	4b22      	ldr	r3, [pc, #136]	; (8002fbc <HAL_UART_MspInit+0x8c>)
 8002f34:	6802      	ldr	r2, [r0, #0]
 8002f36:	b086      	sub	sp, #24
 8002f38:	0006      	movs	r6, r0
 8002f3a:	429a      	cmp	r2, r3
 8002f3c:	d13b      	bne.n	8002fb6 <HAL_UART_MspInit+0x86>
 8002f3e:	2080      	movs	r0, #128	; 0x80
 8002f40:	4a1f      	ldr	r2, [pc, #124]	; (8002fc0 <HAL_UART_MspInit+0x90>)
 8002f42:	01c0      	lsls	r0, r0, #7
 8002f44:	6991      	ldr	r1, [r2, #24]
 8002f46:	2500      	movs	r5, #0
 8002f48:	4301      	orrs	r1, r0
 8002f4a:	6191      	str	r1, [r2, #24]
 8002f4c:	6993      	ldr	r3, [r2, #24]
 8002f4e:	a901      	add	r1, sp, #4
 8002f50:	4003      	ands	r3, r0
 8002f52:	9300      	str	r3, [sp, #0]
 8002f54:	9b00      	ldr	r3, [sp, #0]
 8002f56:	23c0      	movs	r3, #192	; 0xc0
 8002f58:	00db      	lsls	r3, r3, #3
 8002f5a:	9301      	str	r3, [sp, #4]
 8002f5c:	2302      	movs	r3, #2
 8002f5e:	2090      	movs	r0, #144	; 0x90
 8002f60:	9302      	str	r3, [sp, #8]
 8002f62:	3301      	adds	r3, #1
 8002f64:	9304      	str	r3, [sp, #16]
 8002f66:	05c0      	lsls	r0, r0, #23
 8002f68:	3b02      	subs	r3, #2
 8002f6a:	9305      	str	r3, [sp, #20]
 8002f6c:	9503      	str	r5, [sp, #12]
 8002f6e:	f7fe f9d5 	bl	800131c <HAL_GPIO_Init>
 8002f72:	4c14      	ldr	r4, [pc, #80]	; (8002fc4 <HAL_UART_MspInit+0x94>)
 8002f74:	4b14      	ldr	r3, [pc, #80]	; (8002fc8 <HAL_UART_MspInit+0x98>)
 8002f76:	0020      	movs	r0, r4
 8002f78:	6023      	str	r3, [r4, #0]
 8002f7a:	2310      	movs	r3, #16
 8002f7c:	6063      	str	r3, [r4, #4]
 8002f7e:	3370      	adds	r3, #112	; 0x70
 8002f80:	60e3      	str	r3, [r4, #12]
 8002f82:	2380      	movs	r3, #128	; 0x80
 8002f84:	019b      	lsls	r3, r3, #6
 8002f86:	60a5      	str	r5, [r4, #8]
 8002f88:	6125      	str	r5, [r4, #16]
 8002f8a:	6165      	str	r5, [r4, #20]
 8002f8c:	61a5      	str	r5, [r4, #24]
 8002f8e:	61e3      	str	r3, [r4, #28]
 8002f90:	f7fe f8e6 	bl	8001160 <HAL_DMA_Init>
 8002f94:	42a8      	cmp	r0, r5
 8002f96:	d004      	beq.n	8002fa2 <HAL_UART_MspInit+0x72>
 8002f98:	213c      	movs	r1, #60	; 0x3c
 8002f9a:	480c      	ldr	r0, [pc, #48]	; (8002fcc <HAL_UART_MspInit+0x9c>)
 8002f9c:	31ff      	adds	r1, #255	; 0xff
 8002f9e:	f7ff fefd 	bl	8002d9c <_Error_Handler>
 8002fa2:	2200      	movs	r2, #0
 8002fa4:	201b      	movs	r0, #27
 8002fa6:	6634      	str	r4, [r6, #96]	; 0x60
 8002fa8:	0011      	movs	r1, r2
 8002faa:	6266      	str	r6, [r4, #36]	; 0x24
 8002fac:	f7fe f870 	bl	8001090 <HAL_NVIC_SetPriority>
 8002fb0:	201b      	movs	r0, #27
 8002fb2:	f7fe f89d 	bl	80010f0 <HAL_NVIC_EnableIRQ>
 8002fb6:	b006      	add	sp, #24
 8002fb8:	bd70      	pop	{r4, r5, r6, pc}
 8002fba:	46c0      	nop			; (mov r8, r8)
 8002fbc:	40013800 	.word	0x40013800
 8002fc0:	40021000 	.word	0x40021000
 8002fc4:	2000019c 	.word	0x2000019c
 8002fc8:	4002001c 	.word	0x4002001c
 8002fcc:	08003e1b 	.word	0x08003e1b

08002fd0 <NMI_Handler>:
 8002fd0:	4770      	bx	lr

08002fd2 <HardFault_Handler>:
 8002fd2:	e7fe      	b.n	8002fd2 <HardFault_Handler>

08002fd4 <SVC_Handler>:
 8002fd4:	4770      	bx	lr

08002fd6 <PendSV_Handler>:
 8002fd6:	4770      	bx	lr

08002fd8 <SysTick_Handler>:
 8002fd8:	b510      	push	{r4, lr}
 8002fda:	f7fd fdf7 	bl	8000bcc <HAL_IncTick>
 8002fde:	f7fe f8ba 	bl	8001156 <HAL_SYSTICK_IRQHandler>
 8002fe2:	bd10      	pop	{r4, pc}

08002fe4 <EXTI4_15_IRQHandler>:
 8002fe4:	b510      	push	{r4, lr}
 8002fe6:	2010      	movs	r0, #16
 8002fe8:	f7fe fa54 	bl	8001494 <HAL_GPIO_EXTI_IRQHandler>
 8002fec:	bd10      	pop	{r4, pc}
	...

08002ff0 <DMA1_Channel1_IRQHandler>:
 8002ff0:	b510      	push	{r4, lr}
 8002ff2:	4802      	ldr	r0, [pc, #8]	; (8002ffc <DMA1_Channel1_IRQHandler+0xc>)
 8002ff4:	f7fe f948 	bl	8001288 <HAL_DMA_IRQHandler>
 8002ff8:	bd10      	pop	{r4, pc}
 8002ffa:	46c0      	nop			; (mov r8, r8)
 8002ffc:	20000290 	.word	0x20000290

08003000 <DMA1_Channel2_3_IRQHandler>:
 8003000:	b510      	push	{r4, lr}
 8003002:	4802      	ldr	r0, [pc, #8]	; (800300c <DMA1_Channel2_3_IRQHandler+0xc>)
 8003004:	f7fe f940 	bl	8001288 <HAL_DMA_IRQHandler>
 8003008:	bd10      	pop	{r4, pc}
 800300a:	46c0      	nop			; (mov r8, r8)
 800300c:	2000019c 	.word	0x2000019c

08003010 <TIM3_IRQHandler>:
 8003010:	b510      	push	{r4, lr}
 8003012:	4802      	ldr	r0, [pc, #8]	; (800301c <TIM3_IRQHandler+0xc>)
 8003014:	f7fe fe49 	bl	8001caa <HAL_TIM_IRQHandler>
 8003018:	bd10      	pop	{r4, pc}
 800301a:	46c0      	nop			; (mov r8, r8)
 800301c:	2000015c 	.word	0x2000015c

08003020 <TIM14_IRQHandler>:
 8003020:	b510      	push	{r4, lr}
 8003022:	4802      	ldr	r0, [pc, #8]	; (800302c <TIM14_IRQHandler+0xc>)
 8003024:	f7fe fe41 	bl	8001caa <HAL_TIM_IRQHandler>
 8003028:	bd10      	pop	{r4, pc}
 800302a:	46c0      	nop			; (mov r8, r8)
 800302c:	20000250 	.word	0x20000250

08003030 <TIM16_IRQHandler>:
 8003030:	b510      	push	{r4, lr}
 8003032:	4802      	ldr	r0, [pc, #8]	; (800303c <TIM16_IRQHandler+0xc>)
 8003034:	f7fe fe39 	bl	8001caa <HAL_TIM_IRQHandler>
 8003038:	bd10      	pop	{r4, pc}
 800303a:	46c0      	nop			; (mov r8, r8)
 800303c:	20000320 	.word	0x20000320

08003040 <USART1_IRQHandler>:
 8003040:	b510      	push	{r4, lr}
 8003042:	4802      	ldr	r0, [pc, #8]	; (800304c <USART1_IRQHandler+0xc>)
 8003044:	f7ff fb2c 	bl	80026a0 <HAL_UART_IRQHandler>
 8003048:	bd10      	pop	{r4, pc}
 800304a:	46c0      	nop			; (mov r8, r8)
 800304c:	200001e0 	.word	0x200001e0

08003050 <SystemInit>:
 8003050:	2101      	movs	r1, #1
 8003052:	4b11      	ldr	r3, [pc, #68]	; (8003098 <SystemInit+0x48>)
 8003054:	4811      	ldr	r0, [pc, #68]	; (800309c <SystemInit+0x4c>)
 8003056:	681a      	ldr	r2, [r3, #0]
 8003058:	430a      	orrs	r2, r1
 800305a:	601a      	str	r2, [r3, #0]
 800305c:	685a      	ldr	r2, [r3, #4]
 800305e:	4002      	ands	r2, r0
 8003060:	605a      	str	r2, [r3, #4]
 8003062:	681a      	ldr	r2, [r3, #0]
 8003064:	480e      	ldr	r0, [pc, #56]	; (80030a0 <SystemInit+0x50>)
 8003066:	4002      	ands	r2, r0
 8003068:	601a      	str	r2, [r3, #0]
 800306a:	681a      	ldr	r2, [r3, #0]
 800306c:	480d      	ldr	r0, [pc, #52]	; (80030a4 <SystemInit+0x54>)
 800306e:	4002      	ands	r2, r0
 8003070:	601a      	str	r2, [r3, #0]
 8003072:	685a      	ldr	r2, [r3, #4]
 8003074:	480c      	ldr	r0, [pc, #48]	; (80030a8 <SystemInit+0x58>)
 8003076:	4002      	ands	r2, r0
 8003078:	200f      	movs	r0, #15
 800307a:	605a      	str	r2, [r3, #4]
 800307c:	6ada      	ldr	r2, [r3, #44]	; 0x2c
 800307e:	4382      	bics	r2, r0
 8003080:	62da      	str	r2, [r3, #44]	; 0x2c
 8003082:	6b1a      	ldr	r2, [r3, #48]	; 0x30
 8003084:	4809      	ldr	r0, [pc, #36]	; (80030ac <SystemInit+0x5c>)
 8003086:	4002      	ands	r2, r0
 8003088:	631a      	str	r2, [r3, #48]	; 0x30
 800308a:	6b5a      	ldr	r2, [r3, #52]	; 0x34
 800308c:	438a      	bics	r2, r1
 800308e:	635a      	str	r2, [r3, #52]	; 0x34
 8003090:	2200      	movs	r2, #0
 8003092:	609a      	str	r2, [r3, #8]
 8003094:	4770      	bx	lr
 8003096:	46c0      	nop			; (mov r8, r8)
 8003098:	40021000 	.word	0x40021000
 800309c:	08ffb80c 	.word	0x08ffb80c
 80030a0:	fef6ffff 	.word	0xfef6ffff
 80030a4:	fffbffff 	.word	0xfffbffff
 80030a8:	ffc0ffff 	.word	0xffc0ffff
 80030ac:	fffffeec 	.word	0xfffffeec

080030b0 <data_aquisition>:
 80030b0:	b5f0      	push	{r4, r5, r6, r7, lr}
 80030b2:	4e49      	ldr	r6, [pc, #292]	; (80031d8 <data_aquisition+0x128>)
 80030b4:	b085      	sub	sp, #20
 80030b6:	6833      	ldr	r3, [r6, #0]
 80030b8:	0018      	movs	r0, r3
 80030ba:	9300      	str	r3, [sp, #0]
 80030bc:	f7fd f824 	bl	8000108 <strlen>
 80030c0:	4b46      	ldr	r3, [pc, #280]	; (80031dc <data_aquisition+0x12c>)
 80030c2:	4c47      	ldr	r4, [pc, #284]	; (80031e0 <data_aquisition+0x130>)
 80030c4:	681b      	ldr	r3, [r3, #0]
 80030c6:	9002      	str	r0, [sp, #8]
 80030c8:	6020      	str	r0, [r4, #0]
 80030ca:	0018      	movs	r0, r3
 80030cc:	9301      	str	r3, [sp, #4]
 80030ce:	f7fd f81b 	bl	8000108 <strlen>
 80030d2:	4d44      	ldr	r5, [pc, #272]	; (80031e4 <data_aquisition+0x134>)
 80030d4:	4b44      	ldr	r3, [pc, #272]	; (80031e8 <data_aquisition+0x138>)
 80030d6:	9003      	str	r0, [sp, #12]
 80030d8:	6028      	str	r0, [r5, #0]
 80030da:	6818      	ldr	r0, [r3, #0]
 80030dc:	f7fd f814 	bl	8000108 <strlen>
 80030e0:	4f42      	ldr	r7, [pc, #264]	; (80031ec <data_aquisition+0x13c>)
 80030e2:	4b43      	ldr	r3, [pc, #268]	; (80031f0 <data_aquisition+0x140>)
 80030e4:	6038      	str	r0, [r7, #0]
 80030e6:	6818      	ldr	r0, [r3, #0]
 80030e8:	f7fd f80e 	bl	8000108 <strlen>
 80030ec:	4b41      	ldr	r3, [pc, #260]	; (80031f4 <data_aquisition+0x144>)
 80030ee:	6018      	str	r0, [r3, #0]
 80030f0:	4b41      	ldr	r3, [pc, #260]	; (80031f8 <data_aquisition+0x148>)
 80030f2:	6818      	ldr	r0, [r3, #0]
 80030f4:	f7fd f808 	bl	8000108 <strlen>
 80030f8:	9a02      	ldr	r2, [sp, #8]
 80030fa:	4b40      	ldr	r3, [pc, #256]	; (80031fc <data_aquisition+0x14c>)
 80030fc:	4694      	mov	ip, r2
 80030fe:	6018      	str	r0, [r3, #0]
 8003100:	9b00      	ldr	r3, [sp, #0]
 8003102:	9a03      	ldr	r2, [sp, #12]
 8003104:	4463      	add	r3, ip
 8003106:	9901      	ldr	r1, [sp, #4]
 8003108:	0018      	movs	r0, r3
 800310a:	f000 f9eb 	bl	80034e4 <memcpy>
 800310e:	4b3c      	ldr	r3, [pc, #240]	; (8003200 <data_aquisition+0x150>)
 8003110:	6829      	ldr	r1, [r5, #0]
 8003112:	681b      	ldr	r3, [r3, #0]
 8003114:	781a      	ldrb	r2, [r3, #0]
 8003116:	9300      	str	r3, [sp, #0]
 8003118:	6833      	ldr	r3, [r6, #0]
 800311a:	185b      	adds	r3, r3, r1
 800311c:	6821      	ldr	r1, [r4, #0]
 800311e:	545a      	strb	r2, [r3, r1]
 8003120:	682b      	ldr	r3, [r5, #0]
 8003122:	6822      	ldr	r2, [r4, #0]
 8003124:	1898      	adds	r0, r3, r2
 8003126:	6833      	ldr	r3, [r6, #0]
 8003128:	3001      	adds	r0, #1
 800312a:	1818      	adds	r0, r3, r0
 800312c:	4b2e      	ldr	r3, [pc, #184]	; (80031e8 <data_aquisition+0x138>)
 800312e:	683a      	ldr	r2, [r7, #0]
 8003130:	6819      	ldr	r1, [r3, #0]
 8003132:	f000 f9d7 	bl	80034e4 <memcpy>
 8003136:	4b32      	ldr	r3, [pc, #200]	; (8003200 <data_aquisition+0x150>)
 8003138:	6839      	ldr	r1, [r7, #0]
 800313a:	681b      	ldr	r3, [r3, #0]
 800313c:	781a      	ldrb	r2, [r3, #0]
 800313e:	6833      	ldr	r3, [r6, #0]
 8003140:	185b      	adds	r3, r3, r1
 8003142:	6829      	ldr	r1, [r5, #0]
 8003144:	185b      	adds	r3, r3, r1
 8003146:	6821      	ldr	r1, [r4, #0]
 8003148:	185b      	adds	r3, r3, r1
 800314a:	705a      	strb	r2, [r3, #1]
 800314c:	683b      	ldr	r3, [r7, #0]
 800314e:	682a      	ldr	r2, [r5, #0]
 8003150:	1898      	adds	r0, r3, r2
 8003152:	6823      	ldr	r3, [r4, #0]
 8003154:	3002      	adds	r0, #2
 8003156:	18c0      	adds	r0, r0, r3
 8003158:	6833      	ldr	r3, [r6, #0]
 800315a:	1818      	adds	r0, r3, r0
 800315c:	4b24      	ldr	r3, [pc, #144]	; (80031f0 <data_aquisition+0x140>)
 800315e:	6819      	ldr	r1, [r3, #0]
 8003160:	4b24      	ldr	r3, [pc, #144]	; (80031f4 <data_aquisition+0x144>)
 8003162:	681b      	ldr	r3, [r3, #0]
 8003164:	001a      	movs	r2, r3
 8003166:	9300      	str	r3, [sp, #0]
 8003168:	f000 f9bc 	bl	80034e4 <memcpy>
 800316c:	4b24      	ldr	r3, [pc, #144]	; (8003200 <data_aquisition+0x150>)
 800316e:	6839      	ldr	r1, [r7, #0]
 8003170:	681b      	ldr	r3, [r3, #0]
 8003172:	781a      	ldrb	r2, [r3, #0]
 8003174:	4b1f      	ldr	r3, [pc, #124]	; (80031f4 <data_aquisition+0x144>)
 8003176:	681b      	ldr	r3, [r3, #0]
 8003178:	9300      	str	r3, [sp, #0]
 800317a:	6833      	ldr	r3, [r6, #0]
 800317c:	185b      	adds	r3, r3, r1
 800317e:	9900      	ldr	r1, [sp, #0]
 8003180:	185b      	adds	r3, r3, r1
 8003182:	6829      	ldr	r1, [r5, #0]
 8003184:	185b      	adds	r3, r3, r1
 8003186:	6821      	ldr	r1, [r4, #0]
 8003188:	185b      	adds	r3, r3, r1
 800318a:	709a      	strb	r2, [r3, #2]
 800318c:	683b      	ldr	r3, [r7, #0]
 800318e:	682a      	ldr	r2, [r5, #0]
 8003190:	1898      	adds	r0, r3, r2
 8003192:	4b18      	ldr	r3, [pc, #96]	; (80031f4 <data_aquisition+0x144>)
 8003194:	3003      	adds	r0, #3
 8003196:	681b      	ldr	r3, [r3, #0]
 8003198:	18c0      	adds	r0, r0, r3
 800319a:	6823      	ldr	r3, [r4, #0]
 800319c:	18c0      	adds	r0, r0, r3
 800319e:	6833      	ldr	r3, [r6, #0]
 80031a0:	1818      	adds	r0, r3, r0
 80031a2:	4b15      	ldr	r3, [pc, #84]	; (80031f8 <data_aquisition+0x148>)
 80031a4:	6819      	ldr	r1, [r3, #0]
 80031a6:	4b15      	ldr	r3, [pc, #84]	; (80031fc <data_aquisition+0x14c>)
 80031a8:	681b      	ldr	r3, [r3, #0]
 80031aa:	001a      	movs	r2, r3
 80031ac:	9300      	str	r3, [sp, #0]
 80031ae:	f000 f999 	bl	80034e4 <memcpy>
 80031b2:	4b14      	ldr	r3, [pc, #80]	; (8003204 <data_aquisition+0x154>)
 80031b4:	6832      	ldr	r2, [r6, #0]
 80031b6:	681b      	ldr	r3, [r3, #0]
 80031b8:	683e      	ldr	r6, [r7, #0]
 80031ba:	7819      	ldrb	r1, [r3, #0]
 80031bc:	4b0f      	ldr	r3, [pc, #60]	; (80031fc <data_aquisition+0x14c>)
 80031be:	480d      	ldr	r0, [pc, #52]	; (80031f4 <data_aquisition+0x144>)
 80031c0:	681f      	ldr	r7, [r3, #0]
 80031c2:	1992      	adds	r2, r2, r6
 80031c4:	682b      	ldr	r3, [r5, #0]
 80031c6:	19d7      	adds	r7, r2, r7
 80031c8:	6805      	ldr	r5, [r0, #0]
 80031ca:	18fb      	adds	r3, r7, r3
 80031cc:	6820      	ldr	r0, [r4, #0]
 80031ce:	195b      	adds	r3, r3, r5
 80031d0:	181b      	adds	r3, r3, r0
 80031d2:	70d9      	strb	r1, [r3, #3]
 80031d4:	b005      	add	sp, #20
 80031d6:	bdf0      	pop	{r4, r5, r6, r7, pc}
 80031d8:	200000b8 	.word	0x200000b8
 80031dc:	20000120 	.word	0x20000120
 80031e0:	20000128 	.word	0x20000128
 80031e4:	20000134 	.word	0x20000134
 80031e8:	20000118 	.word	0x20000118
 80031ec:	2000012c 	.word	0x2000012c
 80031f0:	2000011c 	.word	0x2000011c
 80031f4:	20000130 	.word	0x20000130
 80031f8:	20000124 	.word	0x20000124
 80031fc:	20000138 	.word	0x20000138
 8003200:	20000008 	.word	0x20000008
 8003204:	20000020 	.word	0x20000020

08003208 <uart_request>:
 8003208:	b5f8      	push	{r3, r4, r5, r6, r7, lr}
 800320a:	4e4b      	ldr	r6, [pc, #300]	; (8003338 <uart_request+0x130>)
 800320c:	4f4b      	ldr	r7, [pc, #300]	; (800333c <uart_request+0x134>)
 800320e:	4b4c      	ldr	r3, [pc, #304]	; (8003340 <uart_request+0x138>)
 8003210:	7839      	ldrb	r1, [r7, #0]
 8003212:	781a      	ldrb	r2, [r3, #0]
 8003214:	6830      	ldr	r0, [r6, #0]
 8003216:	5481      	strb	r1, [r0, r2]
 8003218:	6834      	ldr	r4, [r6, #0]
 800321a:	7822      	ldrb	r2, [r4, #0]
 800321c:	2a24      	cmp	r2, #36	; 0x24
 800321e:	d102      	bne.n	8003226 <uart_request+0x1e>
 8003220:	781a      	ldrb	r2, [r3, #0]
 8003222:	3201      	adds	r2, #1
 8003224:	701a      	strb	r2, [r3, #0]
 8003226:	781a      	ldrb	r2, [r3, #0]
 8003228:	2a0a      	cmp	r2, #10
 800322a:	d901      	bls.n	8003230 <uart_request+0x28>
 800322c:	2200      	movs	r2, #0
 800322e:	701a      	strb	r2, [r3, #0]
 8003230:	7822      	ldrb	r2, [r4, #0]
 8003232:	4d44      	ldr	r5, [pc, #272]	; (8003344 <uart_request+0x13c>)
 8003234:	2a24      	cmp	r2, #36	; 0x24
 8003236:	d14a      	bne.n	80032ce <uart_request+0xc6>
 8003238:	781a      	ldrb	r2, [r3, #0]
 800323a:	18a3      	adds	r3, r4, r2
 800323c:	3b01      	subs	r3, #1
 800323e:	781b      	ldrb	r3, [r3, #0]
 8003240:	2b0a      	cmp	r3, #10
 8003242:	d144      	bne.n	80032ce <uart_request+0xc6>
 8003244:	2a02      	cmp	r2, #2
 8003246:	d942      	bls.n	80032ce <uart_request+0xc6>
 8003248:	7860      	ldrb	r0, [r4, #1]
 800324a:	3841      	subs	r0, #65	; 0x41
 800324c:	2817      	cmp	r0, #23
 800324e:	d83e      	bhi.n	80032ce <uart_request+0xc6>
 8003250:	f7fc ff62 	bl	8000118 <__gnu_thumb1_case_uqi>
 8003254:	353d221f 	.word	0x353d221f
 8003258:	5d55433d 	.word	0x5d55433d
 800325c:	3d3d3d66 	.word	0x3d3d3d66
 8003260:	3d3d3d3d 	.word	0x3d3d3d3d
 8003264:	3d3d3d3d 	.word	0x3d3d3d3d
 8003268:	0c3d3d3d 	.word	0x0c3d3d3d
 800326c:	4b36      	ldr	r3, [pc, #216]	; (8003348 <uart_request+0x140>)
 800326e:	681a      	ldr	r2, [r3, #0]
 8003270:	2300      	movs	r3, #0
 8003272:	6353      	str	r3, [r2, #52]	; 0x34
 8003274:	4a35      	ldr	r2, [pc, #212]	; (800334c <uart_request+0x144>)
 8003276:	7013      	strb	r3, [r2, #0]
 8003278:	4a35      	ldr	r2, [pc, #212]	; (8003350 <uart_request+0x148>)
 800327a:	7013      	strb	r3, [r2, #0]
 800327c:	4a35      	ldr	r2, [pc, #212]	; (8003354 <uart_request+0x14c>)
 800327e:	7013      	strb	r3, [r2, #0]
 8003280:	0020      	movs	r0, r4
 8003282:	f7fc ff41 	bl	8000108 <strlen>
 8003286:	0021      	movs	r1, r4
 8003288:	b282      	uxth	r2, r0
 800328a:	0028      	movs	r0, r5
 800328c:	f7fe ff4c 	bl	8002128 <HAL_UART_Transmit_IT>
 8003290:	e01d      	b.n	80032ce <uart_request+0xc6>
 8003292:	4b31      	ldr	r3, [pc, #196]	; (8003358 <uart_request+0x150>)
 8003294:	681c      	ldr	r4, [r3, #0]
 8003296:	e7f3      	b.n	8003280 <uart_request+0x78>
 8003298:	78e3      	ldrb	r3, [r4, #3]
 800329a:	2b31      	cmp	r3, #49	; 0x31
 800329c:	d10b      	bne.n	80032b6 <uart_request+0xae>
 800329e:	0020      	movs	r0, r4
 80032a0:	f7fc ff32 	bl	8000108 <strlen>
 80032a4:	0021      	movs	r1, r4
 80032a6:	b282      	uxth	r2, r0
 80032a8:	0028      	movs	r0, r5
 80032aa:	f7fe ff3d 	bl	8002128 <HAL_UART_Transmit_IT>
 80032ae:	2201      	movs	r2, #1
 80032b0:	4b26      	ldr	r3, [pc, #152]	; (800334c <uart_request+0x144>)
 80032b2:	701a      	strb	r2, [r3, #0]
 80032b4:	e00b      	b.n	80032ce <uart_request+0xc6>
 80032b6:	2b30      	cmp	r3, #48	; 0x30
 80032b8:	d109      	bne.n	80032ce <uart_request+0xc6>
 80032ba:	2200      	movs	r2, #0
 80032bc:	e7f8      	b.n	80032b0 <uart_request+0xa8>
 80032be:	78a3      	ldrb	r3, [r4, #2]
 80032c0:	2b01      	cmp	r3, #1
 80032c2:	d102      	bne.n	80032ca <uart_request+0xc2>
 80032c4:	4a25      	ldr	r2, [pc, #148]	; (800335c <uart_request+0x154>)
 80032c6:	7013      	strb	r3, [r2, #0]
 80032c8:	e001      	b.n	80032ce <uart_request+0xc6>
 80032ca:	2b00      	cmp	r3, #0
 80032cc:	d0fa      	beq.n	80032c4 <uart_request+0xbc>
 80032ce:	0039      	movs	r1, r7
 80032d0:	0028      	movs	r0, r5
 80032d2:	2201      	movs	r2, #1
 80032d4:	f7fe ff56 	bl	8002184 <HAL_UART_Receive_IT>
 80032d8:	bdf8      	pop	{r3, r4, r5, r6, r7, pc}
 80032da:	0020      	movs	r0, r4
 80032dc:	f7fc ff14 	bl	8000108 <strlen>
 80032e0:	0002      	movs	r2, r0
 80032e2:	4b1f      	ldr	r3, [pc, #124]	; (8003360 <uart_request+0x158>)
 80032e4:	1ce1      	adds	r1, r4, #3
 80032e6:	6818      	ldr	r0, [r3, #0]
 80032e8:	3a04      	subs	r2, #4
 80032ea:	f000 f8fb 	bl	80034e4 <memcpy>
 80032ee:	4b1d      	ldr	r3, [pc, #116]	; (8003364 <uart_request+0x15c>)
 80032f0:	7819      	ldrb	r1, [r3, #0]
 80032f2:	4b1d      	ldr	r3, [pc, #116]	; (8003368 <uart_request+0x160>)
 80032f4:	7818      	ldrb	r0, [r3, #0]
 80032f6:	f7ff fb3b 	bl	8002970 <output_torque>
 80032fa:	6834      	ldr	r4, [r6, #0]
 80032fc:	e7c0      	b.n	8003280 <uart_request+0x78>
 80032fe:	78e3      	ldrb	r3, [r4, #3]
 8003300:	2b01      	cmp	r3, #1
 8003302:	d101      	bne.n	8003308 <uart_request+0x100>
 8003304:	4a12      	ldr	r2, [pc, #72]	; (8003350 <uart_request+0x148>)
 8003306:	e7de      	b.n	80032c6 <uart_request+0xbe>
 8003308:	2b00      	cmp	r3, #0
 800330a:	d1e0      	bne.n	80032ce <uart_request+0xc6>
 800330c:	e7fa      	b.n	8003304 <uart_request+0xfc>
 800330e:	78e3      	ldrb	r3, [r4, #3]
 8003310:	2201      	movs	r2, #1
 8003312:	2b31      	cmp	r3, #49	; 0x31
 8003314:	d002      	beq.n	800331c <uart_request+0x114>
 8003316:	2b30      	cmp	r3, #48	; 0x30
 8003318:	d1d9      	bne.n	80032ce <uart_request+0xc6>
 800331a:	2200      	movs	r2, #0
 800331c:	4b0d      	ldr	r3, [pc, #52]	; (8003354 <uart_request+0x14c>)
 800331e:	e7c8      	b.n	80032b2 <uart_request+0xaa>
 8003320:	78e3      	ldrb	r3, [r4, #3]
 8003322:	2001      	movs	r0, #1
 8003324:	2b31      	cmp	r3, #49	; 0x31
 8003326:	d002      	beq.n	800332e <uart_request+0x126>
 8003328:	2b30      	cmp	r3, #48	; 0x30
 800332a:	d1e6      	bne.n	80032fa <uart_request+0xf2>
 800332c:	2000      	movs	r0, #0
 800332e:	4b0e      	ldr	r3, [pc, #56]	; (8003368 <uart_request+0x160>)
 8003330:	7018      	strb	r0, [r3, #0]
 8003332:	4b0c      	ldr	r3, [pc, #48]	; (8003364 <uart_request+0x15c>)
 8003334:	7819      	ldrb	r1, [r3, #0]
 8003336:	e7de      	b.n	80032f6 <uart_request+0xee>
 8003338:	20000104 	.word	0x20000104
 800333c:	20000109 	.word	0x20000109
 8003340:	20000108 	.word	0x20000108
 8003344:	200001e0 	.word	0x200001e0
 8003348:	2000015c 	.word	0x2000015c
 800334c:	200000be 	.word	0x200000be
 8003350:	2000001d 	.word	0x2000001d
 8003354:	2000001c 	.word	0x2000001c
 8003358:	20000004 	.word	0x20000004
 800335c:	2000013c 	.word	0x2000013c
 8003360:	20000114 	.word	0x20000114
 8003364:	200000bd 	.word	0x200000bd
 8003368:	200000c1 	.word	0x200000c1

0800336c <user_main>:
 800336c:	b570      	push	{r4, r5, r6, lr}
 800336e:	4b24      	ldr	r3, [pc, #144]	; (8003400 <user_main+0x94>)
 8003370:	781a      	ldrb	r2, [r3, #0]
 8003372:	2a01      	cmp	r2, #1
 8003374:	d103      	bne.n	800337e <user_main+0x12>
 8003376:	2200      	movs	r2, #0
 8003378:	701a      	strb	r2, [r3, #0]
 800337a:	f7ff ff45 	bl	8003208 <uart_request>
 800337e:	4b21      	ldr	r3, [pc, #132]	; (8003404 <user_main+0x98>)
 8003380:	781b      	ldrb	r3, [r3, #0]
 8003382:	2b01      	cmp	r3, #1
 8003384:	d107      	bne.n	8003396 <user_main+0x2a>
 8003386:	4b20      	ldr	r3, [pc, #128]	; (8003408 <user_main+0x9c>)
 8003388:	781a      	ldrb	r2, [r3, #0]
 800338a:	2a01      	cmp	r2, #1
 800338c:	d103      	bne.n	8003396 <user_main+0x2a>
 800338e:	2200      	movs	r2, #0
 8003390:	701a      	strb	r2, [r3, #0]
 8003392:	f7ff faad 	bl	80028f0 <read_motor_position>
 8003396:	4b1d      	ldr	r3, [pc, #116]	; (800340c <user_main+0xa0>)
 8003398:	781b      	ldrb	r3, [r3, #0]
 800339a:	2b01      	cmp	r3, #1
 800339c:	d107      	bne.n	80033ae <user_main+0x42>
 800339e:	4b1c      	ldr	r3, [pc, #112]	; (8003410 <user_main+0xa4>)
 80033a0:	781a      	ldrb	r2, [r3, #0]
 80033a2:	2a01      	cmp	r2, #1
 80033a4:	d103      	bne.n	80033ae <user_main+0x42>
 80033a6:	2200      	movs	r2, #0
 80033a8:	701a      	strb	r2, [r3, #0]
 80033aa:	f7ff fa05 	bl	80027b8 <get_current_potentiometer>
 80033ae:	4c19      	ldr	r4, [pc, #100]	; (8003414 <user_main+0xa8>)
 80033b0:	7823      	ldrb	r3, [r4, #0]
 80033b2:	2b00      	cmp	r3, #0
 80033b4:	d010      	beq.n	80033d8 <user_main+0x6c>
 80033b6:	4d18      	ldr	r5, [pc, #96]	; (8003418 <user_main+0xac>)
 80033b8:	782b      	ldrb	r3, [r5, #0]
 80033ba:	2b01      	cmp	r3, #1
 80033bc:	d10c      	bne.n	80033d8 <user_main+0x6c>
 80033be:	4b17      	ldr	r3, [pc, #92]	; (800341c <user_main+0xb0>)
 80033c0:	4917      	ldr	r1, [pc, #92]	; (8003420 <user_main+0xb4>)
 80033c2:	681a      	ldr	r2, [r3, #0]
 80033c4:	3201      	adds	r2, #1
 80033c6:	601a      	str	r2, [r3, #0]
 80033c8:	4b16      	ldr	r3, [pc, #88]	; (8003424 <user_main+0xb8>)
 80033ca:	6818      	ldr	r0, [r3, #0]
 80033cc:	f000 f956 	bl	800367c <siprintf>
 80033d0:	2300      	movs	r3, #0
 80033d2:	702b      	strb	r3, [r5, #0]
 80033d4:	f7ff fe6c 	bl	80030b0 <data_aquisition>
 80033d8:	4b13      	ldr	r3, [pc, #76]	; (8003428 <user_main+0xbc>)
 80033da:	781a      	ldrb	r2, [r3, #0]
 80033dc:	2a00      	cmp	r2, #0
 80033de:	d00e      	beq.n	80033fe <user_main+0x92>
 80033e0:	7822      	ldrb	r2, [r4, #0]
 80033e2:	2a00      	cmp	r2, #0
 80033e4:	d00b      	beq.n	80033fe <user_main+0x92>
 80033e6:	2200      	movs	r2, #0
 80033e8:	701a      	strb	r2, [r3, #0]
 80033ea:	4b10      	ldr	r3, [pc, #64]	; (800342c <user_main+0xc0>)
 80033ec:	681c      	ldr	r4, [r3, #0]
 80033ee:	0020      	movs	r0, r4
 80033f0:	f7fc fe8a 	bl	8000108 <strlen>
 80033f4:	0021      	movs	r1, r4
 80033f6:	b282      	uxth	r2, r0
 80033f8:	480d      	ldr	r0, [pc, #52]	; (8003430 <user_main+0xc4>)
 80033fa:	f7fe ff0d 	bl	8002218 <HAL_UART_Transmit_DMA>
 80033fe:	bd70      	pop	{r4, r5, r6, pc}
 8003400:	20000145 	.word	0x20000145
 8003404:	2000001d 	.word	0x2000001d
 8003408:	200000bf 	.word	0x200000bf
 800340c:	2000001c 	.word	0x2000001c
 8003410:	200000b0 	.word	0x200000b0
 8003414:	200000be 	.word	0x200000be
 8003418:	200000bc 	.word	0x200000bc
 800341c:	20000140 	.word	0x20000140
 8003420:	08003e14 	.word	0x08003e14
 8003424:	20000120 	.word	0x20000120
 8003428:	20000024 	.word	0x20000024
 800342c:	200000b8 	.word	0x200000b8
 8003430:	200001e0 	.word	0x200001e0

08003434 <Reset_Handler>:
 8003434:	480d      	ldr	r0, [pc, #52]	; (800346c <LoopForever+0x2>)
 8003436:	4685      	mov	sp, r0
 8003438:	480d      	ldr	r0, [pc, #52]	; (8003470 <LoopForever+0x6>)
 800343a:	490e      	ldr	r1, [pc, #56]	; (8003474 <LoopForever+0xa>)
 800343c:	4a0e      	ldr	r2, [pc, #56]	; (8003478 <LoopForever+0xe>)
 800343e:	2300      	movs	r3, #0
 8003440:	e002      	b.n	8003448 <LoopCopyDataInit>

08003442 <CopyDataInit>:
 8003442:	58d4      	ldr	r4, [r2, r3]
 8003444:	50c4      	str	r4, [r0, r3]
 8003446:	3304      	adds	r3, #4

08003448 <LoopCopyDataInit>:
 8003448:	18c4      	adds	r4, r0, r3
 800344a:	428c      	cmp	r4, r1
 800344c:	d3f9      	bcc.n	8003442 <CopyDataInit>
 800344e:	4a0b      	ldr	r2, [pc, #44]	; (800347c <LoopForever+0x12>)
 8003450:	4c0b      	ldr	r4, [pc, #44]	; (8003480 <LoopForever+0x16>)
 8003452:	2300      	movs	r3, #0
 8003454:	e001      	b.n	800345a <LoopFillZerobss>

08003456 <FillZerobss>:
 8003456:	6013      	str	r3, [r2, #0]
 8003458:	3204      	adds	r2, #4

0800345a <LoopFillZerobss>:
 800345a:	42a2      	cmp	r2, r4
 800345c:	d3fb      	bcc.n	8003456 <FillZerobss>
 800345e:	f7ff fdf7 	bl	8003050 <SystemInit>
 8003462:	f000 f811 	bl	8003488 <__libc_init_array>
 8003466:	f7ff fb8d 	bl	8002b84 <main>

0800346a <LoopForever>:
 800346a:	e7fe      	b.n	800346a <LoopForever>
 800346c:	20001000 	.word	0x20001000
 8003470:	20000000 	.word	0x20000000
 8003474:	20000090 	.word	0x20000090
 8003478:	08003eb8 	.word	0x08003eb8
 800347c:	20000090 	.word	0x20000090
 8003480:	20000364 	.word	0x20000364

08003484 <ADC1_IRQHandler>:
 8003484:	e7fe      	b.n	8003484 <ADC1_IRQHandler>
	...

08003488 <__libc_init_array>:
 8003488:	b570      	push	{r4, r5, r6, lr}
 800348a:	2600      	movs	r6, #0
 800348c:	4d0c      	ldr	r5, [pc, #48]	; (80034c0 <__libc_init_array+0x38>)
 800348e:	4c0d      	ldr	r4, [pc, #52]	; (80034c4 <__libc_init_array+0x3c>)
 8003490:	1b64      	subs	r4, r4, r5
 8003492:	10a4      	asrs	r4, r4, #2
 8003494:	42a6      	cmp	r6, r4
 8003496:	d109      	bne.n	80034ac <__libc_init_array+0x24>
 8003498:	2600      	movs	r6, #0
 800349a:	f000 fc5d 	bl	8003d58 <_init>
 800349e:	4d0a      	ldr	r5, [pc, #40]	; (80034c8 <__libc_init_array+0x40>)
 80034a0:	4c0a      	ldr	r4, [pc, #40]	; (80034cc <__libc_init_array+0x44>)
 80034a2:	1b64      	subs	r4, r4, r5
 80034a4:	10a4      	asrs	r4, r4, #2
 80034a6:	42a6      	cmp	r6, r4
 80034a8:	d105      	bne.n	80034b6 <__libc_init_array+0x2e>
 80034aa:	bd70      	pop	{r4, r5, r6, pc}
 80034ac:	00b3      	lsls	r3, r6, #2
 80034ae:	58eb      	ldr	r3, [r5, r3]
 80034b0:	4798      	blx	r3
 80034b2:	3601      	adds	r6, #1
 80034b4:	e7ee      	b.n	8003494 <__libc_init_array+0xc>
 80034b6:	00b3      	lsls	r3, r6, #2
 80034b8:	58eb      	ldr	r3, [r5, r3]
 80034ba:	4798      	blx	r3
 80034bc:	3601      	adds	r6, #1
 80034be:	e7f2      	b.n	80034a6 <__libc_init_array+0x1e>
 80034c0:	08003eb0 	.word	0x08003eb0
 80034c4:	08003eb0 	.word	0x08003eb0
 80034c8:	08003eb0 	.word	0x08003eb0
 80034cc:	08003eb4 	.word	0x08003eb4

080034d0 <malloc>:
 80034d0:	b510      	push	{r4, lr}
 80034d2:	4b03      	ldr	r3, [pc, #12]	; (80034e0 <malloc+0x10>)
 80034d4:	0001      	movs	r1, r0
 80034d6:	6818      	ldr	r0, [r3, #0]
 80034d8:	f000 f860 	bl	800359c <_malloc_r>
 80034dc:	bd10      	pop	{r4, pc}
 80034de:	46c0      	nop			; (mov r8, r8)
 80034e0:	2000002c 	.word	0x2000002c

080034e4 <memcpy>:
 80034e4:	2300      	movs	r3, #0
 80034e6:	b510      	push	{r4, lr}
 80034e8:	429a      	cmp	r2, r3
 80034ea:	d100      	bne.n	80034ee <memcpy+0xa>
 80034ec:	bd10      	pop	{r4, pc}
 80034ee:	5ccc      	ldrb	r4, [r1, r3]
 80034f0:	54c4      	strb	r4, [r0, r3]
 80034f2:	3301      	adds	r3, #1
 80034f4:	e7f8      	b.n	80034e8 <memcpy+0x4>

080034f6 <memset>:
 80034f6:	0003      	movs	r3, r0
 80034f8:	1882      	adds	r2, r0, r2
 80034fa:	4293      	cmp	r3, r2
 80034fc:	d100      	bne.n	8003500 <memset+0xa>
 80034fe:	4770      	bx	lr
 8003500:	7019      	strb	r1, [r3, #0]
 8003502:	3301      	adds	r3, #1
 8003504:	e7f9      	b.n	80034fa <memset+0x4>
	...

08003508 <_free_r>:
 8003508:	b570      	push	{r4, r5, r6, lr}
 800350a:	0005      	movs	r5, r0
 800350c:	2900      	cmp	r1, #0
 800350e:	d010      	beq.n	8003532 <_free_r+0x2a>
 8003510:	1f0c      	subs	r4, r1, #4
 8003512:	6823      	ldr	r3, [r4, #0]
 8003514:	2b00      	cmp	r3, #0
 8003516:	da00      	bge.n	800351a <_free_r+0x12>
 8003518:	18e4      	adds	r4, r4, r3
 800351a:	0028      	movs	r0, r5
 800351c:	f000 f8d0 	bl	80036c0 <__malloc_lock>
 8003520:	4a1d      	ldr	r2, [pc, #116]	; (8003598 <_free_r+0x90>)
 8003522:	6813      	ldr	r3, [r2, #0]
 8003524:	2b00      	cmp	r3, #0
 8003526:	d105      	bne.n	8003534 <_free_r+0x2c>
 8003528:	6063      	str	r3, [r4, #4]
 800352a:	6014      	str	r4, [r2, #0]
 800352c:	0028      	movs	r0, r5
 800352e:	f000 f8c8 	bl	80036c2 <__malloc_unlock>
 8003532:	bd70      	pop	{r4, r5, r6, pc}
 8003534:	42a3      	cmp	r3, r4
 8003536:	d909      	bls.n	800354c <_free_r+0x44>
 8003538:	6821      	ldr	r1, [r4, #0]
 800353a:	1860      	adds	r0, r4, r1
 800353c:	4283      	cmp	r3, r0
 800353e:	d1f3      	bne.n	8003528 <_free_r+0x20>
 8003540:	6818      	ldr	r0, [r3, #0]
 8003542:	685b      	ldr	r3, [r3, #4]
 8003544:	1841      	adds	r1, r0, r1
 8003546:	6021      	str	r1, [r4, #0]
 8003548:	e7ee      	b.n	8003528 <_free_r+0x20>
 800354a:	0013      	movs	r3, r2
 800354c:	685a      	ldr	r2, [r3, #4]
 800354e:	2a00      	cmp	r2, #0
 8003550:	d001      	beq.n	8003556 <_free_r+0x4e>
 8003552:	42a2      	cmp	r2, r4
 8003554:	d9f9      	bls.n	800354a <_free_r+0x42>
 8003556:	6819      	ldr	r1, [r3, #0]
 8003558:	1858      	adds	r0, r3, r1
 800355a:	42a0      	cmp	r0, r4
 800355c:	d10b      	bne.n	8003576 <_free_r+0x6e>
 800355e:	6820      	ldr	r0, [r4, #0]
 8003560:	1809      	adds	r1, r1, r0
 8003562:	1858      	adds	r0, r3, r1
 8003564:	6019      	str	r1, [r3, #0]
 8003566:	4282      	cmp	r2, r0
 8003568:	d1e0      	bne.n	800352c <_free_r+0x24>
 800356a:	6810      	ldr	r0, [r2, #0]
 800356c:	6852      	ldr	r2, [r2, #4]
 800356e:	1841      	adds	r1, r0, r1
 8003570:	6019      	str	r1, [r3, #0]
 8003572:	605a      	str	r2, [r3, #4]
 8003574:	e7da      	b.n	800352c <_free_r+0x24>
 8003576:	42a0      	cmp	r0, r4
 8003578:	d902      	bls.n	8003580 <_free_r+0x78>
 800357a:	230c      	movs	r3, #12
 800357c:	602b      	str	r3, [r5, #0]
 800357e:	e7d5      	b.n	800352c <_free_r+0x24>
 8003580:	6821      	ldr	r1, [r4, #0]
 8003582:	1860      	adds	r0, r4, r1
 8003584:	4282      	cmp	r2, r0
 8003586:	d103      	bne.n	8003590 <_free_r+0x88>
 8003588:	6810      	ldr	r0, [r2, #0]
 800358a:	6852      	ldr	r2, [r2, #4]
 800358c:	1841      	adds	r1, r0, r1
 800358e:	6021      	str	r1, [r4, #0]
 8003590:	6062      	str	r2, [r4, #4]
 8003592:	605c      	str	r4, [r3, #4]
 8003594:	e7ca      	b.n	800352c <_free_r+0x24>
 8003596:	46c0      	nop			; (mov r8, r8)
 8003598:	2000014c 	.word	0x2000014c

0800359c <_malloc_r>:
 800359c:	2303      	movs	r3, #3
 800359e:	b570      	push	{r4, r5, r6, lr}
 80035a0:	1ccd      	adds	r5, r1, #3
 80035a2:	439d      	bics	r5, r3
 80035a4:	3508      	adds	r5, #8
 80035a6:	0006      	movs	r6, r0
 80035a8:	2d0c      	cmp	r5, #12
 80035aa:	d21e      	bcs.n	80035ea <_malloc_r+0x4e>
 80035ac:	250c      	movs	r5, #12
 80035ae:	42a9      	cmp	r1, r5
 80035b0:	d81d      	bhi.n	80035ee <_malloc_r+0x52>
 80035b2:	0030      	movs	r0, r6
 80035b4:	f000 f884 	bl	80036c0 <__malloc_lock>
 80035b8:	4a25      	ldr	r2, [pc, #148]	; (8003650 <_malloc_r+0xb4>)
 80035ba:	6814      	ldr	r4, [r2, #0]
 80035bc:	0021      	movs	r1, r4
 80035be:	2900      	cmp	r1, #0
 80035c0:	d119      	bne.n	80035f6 <_malloc_r+0x5a>
 80035c2:	4c24      	ldr	r4, [pc, #144]	; (8003654 <_malloc_r+0xb8>)
 80035c4:	6823      	ldr	r3, [r4, #0]
 80035c6:	2b00      	cmp	r3, #0
 80035c8:	d103      	bne.n	80035d2 <_malloc_r+0x36>
 80035ca:	0030      	movs	r0, r6
 80035cc:	f000 f844 	bl	8003658 <_sbrk_r>
 80035d0:	6020      	str	r0, [r4, #0]
 80035d2:	0029      	movs	r1, r5
 80035d4:	0030      	movs	r0, r6
 80035d6:	f000 f83f 	bl	8003658 <_sbrk_r>
 80035da:	1c43      	adds	r3, r0, #1
 80035dc:	d12c      	bne.n	8003638 <_malloc_r+0x9c>
 80035de:	230c      	movs	r3, #12
 80035e0:	0030      	movs	r0, r6
 80035e2:	6033      	str	r3, [r6, #0]
 80035e4:	f000 f86d 	bl	80036c2 <__malloc_unlock>
 80035e8:	e003      	b.n	80035f2 <_malloc_r+0x56>
 80035ea:	2d00      	cmp	r5, #0
 80035ec:	dadf      	bge.n	80035ae <_malloc_r+0x12>
 80035ee:	230c      	movs	r3, #12
 80035f0:	6033      	str	r3, [r6, #0]
 80035f2:	2000      	movs	r0, #0
 80035f4:	bd70      	pop	{r4, r5, r6, pc}
 80035f6:	680b      	ldr	r3, [r1, #0]
 80035f8:	1b5b      	subs	r3, r3, r5
 80035fa:	d41a      	bmi.n	8003632 <_malloc_r+0x96>
 80035fc:	2b0b      	cmp	r3, #11
 80035fe:	d903      	bls.n	8003608 <_malloc_r+0x6c>
 8003600:	600b      	str	r3, [r1, #0]
 8003602:	18cc      	adds	r4, r1, r3
 8003604:	6025      	str	r5, [r4, #0]
 8003606:	e003      	b.n	8003610 <_malloc_r+0x74>
 8003608:	428c      	cmp	r4, r1
 800360a:	d10e      	bne.n	800362a <_malloc_r+0x8e>
 800360c:	6863      	ldr	r3, [r4, #4]
 800360e:	6013      	str	r3, [r2, #0]
 8003610:	0030      	movs	r0, r6
 8003612:	f000 f856 	bl	80036c2 <__malloc_unlock>
 8003616:	0020      	movs	r0, r4
 8003618:	2207      	movs	r2, #7
 800361a:	300b      	adds	r0, #11
 800361c:	1d23      	adds	r3, r4, #4
 800361e:	4390      	bics	r0, r2
 8003620:	1ac3      	subs	r3, r0, r3
 8003622:	d0e7      	beq.n	80035f4 <_malloc_r+0x58>
 8003624:	425a      	negs	r2, r3
 8003626:	50e2      	str	r2, [r4, r3]
 8003628:	e7e4      	b.n	80035f4 <_malloc_r+0x58>
 800362a:	684b      	ldr	r3, [r1, #4]
 800362c:	6063      	str	r3, [r4, #4]
 800362e:	000c      	movs	r4, r1
 8003630:	e7ee      	b.n	8003610 <_malloc_r+0x74>
 8003632:	000c      	movs	r4, r1
 8003634:	6849      	ldr	r1, [r1, #4]
 8003636:	e7c2      	b.n	80035be <_malloc_r+0x22>
 8003638:	2303      	movs	r3, #3
 800363a:	1cc4      	adds	r4, r0, #3
 800363c:	439c      	bics	r4, r3
 800363e:	42a0      	cmp	r0, r4
 8003640:	d0e0      	beq.n	8003604 <_malloc_r+0x68>
 8003642:	1a21      	subs	r1, r4, r0
 8003644:	0030      	movs	r0, r6
 8003646:	f000 f807 	bl	8003658 <_sbrk_r>
 800364a:	1c43      	adds	r3, r0, #1
 800364c:	d1da      	bne.n	8003604 <_malloc_r+0x68>
 800364e:	e7c6      	b.n	80035de <_malloc_r+0x42>
 8003650:	2000014c 	.word	0x2000014c
 8003654:	20000150 	.word	0x20000150

08003658 <_sbrk_r>:
 8003658:	2300      	movs	r3, #0
 800365a:	b570      	push	{r4, r5, r6, lr}
 800365c:	4c06      	ldr	r4, [pc, #24]	; (8003678 <_sbrk_r+0x20>)
 800365e:	0005      	movs	r5, r0
 8003660:	0008      	movs	r0, r1
 8003662:	6023      	str	r3, [r4, #0]
 8003664:	f000 fb68 	bl	8003d38 <_sbrk>
 8003668:	1c43      	adds	r3, r0, #1
 800366a:	d103      	bne.n	8003674 <_sbrk_r+0x1c>
 800366c:	6823      	ldr	r3, [r4, #0]
 800366e:	2b00      	cmp	r3, #0
 8003670:	d000      	beq.n	8003674 <_sbrk_r+0x1c>
 8003672:	602b      	str	r3, [r5, #0]
 8003674:	bd70      	pop	{r4, r5, r6, pc}
 8003676:	46c0      	nop			; (mov r8, r8)
 8003678:	20000360 	.word	0x20000360

0800367c <siprintf>:
 800367c:	b40e      	push	{r1, r2, r3}
 800367e:	b510      	push	{r4, lr}
 8003680:	b09d      	sub	sp, #116	; 0x74
 8003682:	a902      	add	r1, sp, #8
 8003684:	9002      	str	r0, [sp, #8]
 8003686:	6108      	str	r0, [r1, #16]
 8003688:	480b      	ldr	r0, [pc, #44]	; (80036b8 <siprintf+0x3c>)
 800368a:	2482      	movs	r4, #130	; 0x82
 800368c:	6088      	str	r0, [r1, #8]
 800368e:	6148      	str	r0, [r1, #20]
 8003690:	2001      	movs	r0, #1
 8003692:	4240      	negs	r0, r0
 8003694:	ab1f      	add	r3, sp, #124	; 0x7c
 8003696:	81c8      	strh	r0, [r1, #14]
 8003698:	4808      	ldr	r0, [pc, #32]	; (80036bc <siprintf+0x40>)
 800369a:	cb04      	ldmia	r3!, {r2}
 800369c:	00a4      	lsls	r4, r4, #2
 800369e:	6800      	ldr	r0, [r0, #0]
 80036a0:	9301      	str	r3, [sp, #4]
 80036a2:	818c      	strh	r4, [r1, #12]
 80036a4:	f000 f870 	bl	8003788 <_svfiprintf_r>
 80036a8:	2300      	movs	r3, #0
 80036aa:	9a02      	ldr	r2, [sp, #8]
 80036ac:	7013      	strb	r3, [r2, #0]
 80036ae:	b01d      	add	sp, #116	; 0x74
 80036b0:	bc10      	pop	{r4}
 80036b2:	bc08      	pop	{r3}
 80036b4:	b003      	add	sp, #12
 80036b6:	4718      	bx	r3
 80036b8:	7fffffff 	.word	0x7fffffff
 80036bc:	2000002c 	.word	0x2000002c

080036c0 <__malloc_lock>:
 80036c0:	4770      	bx	lr

080036c2 <__malloc_unlock>:
 80036c2:	4770      	bx	lr

080036c4 <__ssputs_r>:
 80036c4:	b5f0      	push	{r4, r5, r6, r7, lr}
 80036c6:	688e      	ldr	r6, [r1, #8]
 80036c8:	b085      	sub	sp, #20
 80036ca:	0007      	movs	r7, r0
 80036cc:	000c      	movs	r4, r1
 80036ce:	9203      	str	r2, [sp, #12]
 80036d0:	9301      	str	r3, [sp, #4]
 80036d2:	429e      	cmp	r6, r3
 80036d4:	d839      	bhi.n	800374a <__ssputs_r+0x86>
 80036d6:	2390      	movs	r3, #144	; 0x90
 80036d8:	898a      	ldrh	r2, [r1, #12]
 80036da:	00db      	lsls	r3, r3, #3
 80036dc:	421a      	tst	r2, r3
 80036de:	d034      	beq.n	800374a <__ssputs_r+0x86>
 80036e0:	2503      	movs	r5, #3
 80036e2:	6909      	ldr	r1, [r1, #16]
 80036e4:	6823      	ldr	r3, [r4, #0]
 80036e6:	1a5b      	subs	r3, r3, r1
 80036e8:	9302      	str	r3, [sp, #8]
 80036ea:	6963      	ldr	r3, [r4, #20]
 80036ec:	9802      	ldr	r0, [sp, #8]
 80036ee:	435d      	muls	r5, r3
 80036f0:	0feb      	lsrs	r3, r5, #31
 80036f2:	195d      	adds	r5, r3, r5
 80036f4:	9b01      	ldr	r3, [sp, #4]
 80036f6:	106d      	asrs	r5, r5, #1
 80036f8:	3301      	adds	r3, #1
 80036fa:	181b      	adds	r3, r3, r0
 80036fc:	42ab      	cmp	r3, r5
 80036fe:	d900      	bls.n	8003702 <__ssputs_r+0x3e>
 8003700:	001d      	movs	r5, r3
 8003702:	0553      	lsls	r3, r2, #21
 8003704:	d532      	bpl.n	800376c <__ssputs_r+0xa8>
 8003706:	0029      	movs	r1, r5
 8003708:	0038      	movs	r0, r7
 800370a:	f7ff ff47 	bl	800359c <_malloc_r>
 800370e:	1e06      	subs	r6, r0, #0
 8003710:	d109      	bne.n	8003726 <__ssputs_r+0x62>
 8003712:	230c      	movs	r3, #12
 8003714:	603b      	str	r3, [r7, #0]
 8003716:	2340      	movs	r3, #64	; 0x40
 8003718:	2001      	movs	r0, #1
 800371a:	89a2      	ldrh	r2, [r4, #12]
 800371c:	4240      	negs	r0, r0
 800371e:	4313      	orrs	r3, r2
 8003720:	81a3      	strh	r3, [r4, #12]
 8003722:	b005      	add	sp, #20
 8003724:	bdf0      	pop	{r4, r5, r6, r7, pc}
 8003726:	9a02      	ldr	r2, [sp, #8]
 8003728:	6921      	ldr	r1, [r4, #16]
 800372a:	f7ff fedb 	bl	80034e4 <memcpy>
 800372e:	89a3      	ldrh	r3, [r4, #12]
 8003730:	4a14      	ldr	r2, [pc, #80]	; (8003784 <__ssputs_r+0xc0>)
 8003732:	401a      	ands	r2, r3
 8003734:	2380      	movs	r3, #128	; 0x80
 8003736:	4313      	orrs	r3, r2
 8003738:	81a3      	strh	r3, [r4, #12]
 800373a:	9b02      	ldr	r3, [sp, #8]
 800373c:	6126      	str	r6, [r4, #16]
 800373e:	18f6      	adds	r6, r6, r3
 8003740:	6026      	str	r6, [r4, #0]
 8003742:	6165      	str	r5, [r4, #20]
 8003744:	9e01      	ldr	r6, [sp, #4]
 8003746:	1aed      	subs	r5, r5, r3
 8003748:	60a5      	str	r5, [r4, #8]
 800374a:	9b01      	ldr	r3, [sp, #4]
 800374c:	42b3      	cmp	r3, r6
 800374e:	d200      	bcs.n	8003752 <__ssputs_r+0x8e>
 8003750:	001e      	movs	r6, r3
 8003752:	0032      	movs	r2, r6
 8003754:	9903      	ldr	r1, [sp, #12]
 8003756:	6820      	ldr	r0, [r4, #0]
 8003758:	f000 faad 	bl	8003cb6 <memmove>
 800375c:	68a3      	ldr	r3, [r4, #8]
 800375e:	2000      	movs	r0, #0
 8003760:	1b9b      	subs	r3, r3, r6
 8003762:	60a3      	str	r3, [r4, #8]
 8003764:	6823      	ldr	r3, [r4, #0]
 8003766:	199e      	adds	r6, r3, r6
 8003768:	6026      	str	r6, [r4, #0]
 800376a:	e7da      	b.n	8003722 <__ssputs_r+0x5e>
 800376c:	002a      	movs	r2, r5
 800376e:	0038      	movs	r0, r7
 8003770:	f000 fab3 	bl	8003cda <_realloc_r>
 8003774:	1e06      	subs	r6, r0, #0
 8003776:	d1e0      	bne.n	800373a <__ssputs_r+0x76>
 8003778:	6921      	ldr	r1, [r4, #16]
 800377a:	0038      	movs	r0, r7
 800377c:	f7ff fec4 	bl	8003508 <_free_r>
 8003780:	e7c7      	b.n	8003712 <__ssputs_r+0x4e>
 8003782:	46c0      	nop			; (mov r8, r8)
 8003784:	fffffb7f 	.word	0xfffffb7f

08003788 <_svfiprintf_r>:
 8003788:	b5f0      	push	{r4, r5, r6, r7, lr}
 800378a:	b09f      	sub	sp, #124	; 0x7c
 800378c:	9002      	str	r0, [sp, #8]
 800378e:	9305      	str	r3, [sp, #20]
 8003790:	898b      	ldrh	r3, [r1, #12]
 8003792:	000f      	movs	r7, r1
 8003794:	0016      	movs	r6, r2
 8003796:	061b      	lsls	r3, r3, #24
 8003798:	d511      	bpl.n	80037be <_svfiprintf_r+0x36>
 800379a:	690b      	ldr	r3, [r1, #16]
 800379c:	2b00      	cmp	r3, #0
 800379e:	d10e      	bne.n	80037be <_svfiprintf_r+0x36>
 80037a0:	2140      	movs	r1, #64	; 0x40
 80037a2:	f7ff fefb 	bl	800359c <_malloc_r>
 80037a6:	6038      	str	r0, [r7, #0]
 80037a8:	6138      	str	r0, [r7, #16]
 80037aa:	2800      	cmp	r0, #0
 80037ac:	d105      	bne.n	80037ba <_svfiprintf_r+0x32>
 80037ae:	230c      	movs	r3, #12
 80037b0:	9a02      	ldr	r2, [sp, #8]
 80037b2:	3801      	subs	r0, #1
 80037b4:	6013      	str	r3, [r2, #0]
 80037b6:	b01f      	add	sp, #124	; 0x7c
 80037b8:	bdf0      	pop	{r4, r5, r6, r7, pc}
 80037ba:	2340      	movs	r3, #64	; 0x40
 80037bc:	617b      	str	r3, [r7, #20]
 80037be:	2300      	movs	r3, #0
 80037c0:	ad06      	add	r5, sp, #24
 80037c2:	616b      	str	r3, [r5, #20]
 80037c4:	3320      	adds	r3, #32
 80037c6:	766b      	strb	r3, [r5, #25]
 80037c8:	3310      	adds	r3, #16
 80037ca:	76ab      	strb	r3, [r5, #26]
 80037cc:	0034      	movs	r4, r6
 80037ce:	7823      	ldrb	r3, [r4, #0]
 80037d0:	2b00      	cmp	r3, #0
 80037d2:	d147      	bne.n	8003864 <_svfiprintf_r+0xdc>
 80037d4:	1ba3      	subs	r3, r4, r6
 80037d6:	9304      	str	r3, [sp, #16]
 80037d8:	d00d      	beq.n	80037f6 <_svfiprintf_r+0x6e>
 80037da:	1ba3      	subs	r3, r4, r6
 80037dc:	0032      	movs	r2, r6
 80037de:	0039      	movs	r1, r7
 80037e0:	9802      	ldr	r0, [sp, #8]
 80037e2:	f7ff ff6f 	bl	80036c4 <__ssputs_r>
 80037e6:	1c43      	adds	r3, r0, #1
 80037e8:	d100      	bne.n	80037ec <_svfiprintf_r+0x64>
 80037ea:	e0b5      	b.n	8003958 <_svfiprintf_r+0x1d0>
 80037ec:	696a      	ldr	r2, [r5, #20]
 80037ee:	9b04      	ldr	r3, [sp, #16]
 80037f0:	4694      	mov	ip, r2
 80037f2:	4463      	add	r3, ip
 80037f4:	616b      	str	r3, [r5, #20]
 80037f6:	7823      	ldrb	r3, [r4, #0]
 80037f8:	2b00      	cmp	r3, #0
 80037fa:	d100      	bne.n	80037fe <_svfiprintf_r+0x76>
 80037fc:	e0ac      	b.n	8003958 <_svfiprintf_r+0x1d0>
 80037fe:	2201      	movs	r2, #1
 8003800:	2300      	movs	r3, #0
 8003802:	4252      	negs	r2, r2
 8003804:	606a      	str	r2, [r5, #4]
 8003806:	a902      	add	r1, sp, #8
 8003808:	3254      	adds	r2, #84	; 0x54
 800380a:	1852      	adds	r2, r2, r1
 800380c:	3401      	adds	r4, #1
 800380e:	602b      	str	r3, [r5, #0]
 8003810:	60eb      	str	r3, [r5, #12]
 8003812:	60ab      	str	r3, [r5, #8]
 8003814:	7013      	strb	r3, [r2, #0]
 8003816:	65ab      	str	r3, [r5, #88]	; 0x58
 8003818:	4e58      	ldr	r6, [pc, #352]	; (800397c <_svfiprintf_r+0x1f4>)
 800381a:	2205      	movs	r2, #5
 800381c:	7821      	ldrb	r1, [r4, #0]
 800381e:	0030      	movs	r0, r6
 8003820:	f000 fa3e 	bl	8003ca0 <memchr>
 8003824:	1c62      	adds	r2, r4, #1
 8003826:	2800      	cmp	r0, #0
 8003828:	d120      	bne.n	800386c <_svfiprintf_r+0xe4>
 800382a:	6829      	ldr	r1, [r5, #0]
 800382c:	06cb      	lsls	r3, r1, #27
 800382e:	d504      	bpl.n	800383a <_svfiprintf_r+0xb2>
 8003830:	2353      	movs	r3, #83	; 0x53
 8003832:	ae02      	add	r6, sp, #8
 8003834:	3020      	adds	r0, #32
 8003836:	199b      	adds	r3, r3, r6
 8003838:	7018      	strb	r0, [r3, #0]
 800383a:	070b      	lsls	r3, r1, #28
 800383c:	d504      	bpl.n	8003848 <_svfiprintf_r+0xc0>
 800383e:	2353      	movs	r3, #83	; 0x53
 8003840:	202b      	movs	r0, #43	; 0x2b
 8003842:	ae02      	add	r6, sp, #8
 8003844:	199b      	adds	r3, r3, r6
 8003846:	7018      	strb	r0, [r3, #0]
 8003848:	7823      	ldrb	r3, [r4, #0]
 800384a:	2b2a      	cmp	r3, #42	; 0x2a
 800384c:	d016      	beq.n	800387c <_svfiprintf_r+0xf4>
 800384e:	2000      	movs	r0, #0
 8003850:	210a      	movs	r1, #10
 8003852:	9b09      	ldr	r3, [sp, #36]	; 0x24
 8003854:	7822      	ldrb	r2, [r4, #0]
 8003856:	3a30      	subs	r2, #48	; 0x30
 8003858:	2a09      	cmp	r2, #9
 800385a:	d955      	bls.n	8003908 <_svfiprintf_r+0x180>
 800385c:	2800      	cmp	r0, #0
 800385e:	d015      	beq.n	800388c <_svfiprintf_r+0x104>
 8003860:	9309      	str	r3, [sp, #36]	; 0x24
 8003862:	e013      	b.n	800388c <_svfiprintf_r+0x104>
 8003864:	2b25      	cmp	r3, #37	; 0x25
 8003866:	d0b5      	beq.n	80037d4 <_svfiprintf_r+0x4c>
 8003868:	3401      	adds	r4, #1
 800386a:	e7b0      	b.n	80037ce <_svfiprintf_r+0x46>
 800386c:	2301      	movs	r3, #1
 800386e:	1b80      	subs	r0, r0, r6
 8003870:	4083      	lsls	r3, r0
 8003872:	6829      	ldr	r1, [r5, #0]
 8003874:	0014      	movs	r4, r2
 8003876:	430b      	orrs	r3, r1
 8003878:	602b      	str	r3, [r5, #0]
 800387a:	e7cd      	b.n	8003818 <_svfiprintf_r+0x90>
 800387c:	9b05      	ldr	r3, [sp, #20]
 800387e:	1d18      	adds	r0, r3, #4
 8003880:	681b      	ldr	r3, [r3, #0]
 8003882:	9005      	str	r0, [sp, #20]
 8003884:	2b00      	cmp	r3, #0
 8003886:	db39      	blt.n	80038fc <_svfiprintf_r+0x174>
 8003888:	9309      	str	r3, [sp, #36]	; 0x24
 800388a:	0014      	movs	r4, r2
 800388c:	7823      	ldrb	r3, [r4, #0]
 800388e:	2b2e      	cmp	r3, #46	; 0x2e
 8003890:	d10b      	bne.n	80038aa <_svfiprintf_r+0x122>
 8003892:	7863      	ldrb	r3, [r4, #1]
 8003894:	1c62      	adds	r2, r4, #1
 8003896:	2b2a      	cmp	r3, #42	; 0x2a
 8003898:	d13e      	bne.n	8003918 <_svfiprintf_r+0x190>
 800389a:	9b05      	ldr	r3, [sp, #20]
 800389c:	3402      	adds	r4, #2
 800389e:	1d1a      	adds	r2, r3, #4
 80038a0:	681b      	ldr	r3, [r3, #0]
 80038a2:	9205      	str	r2, [sp, #20]
 80038a4:	2b00      	cmp	r3, #0
 80038a6:	db34      	blt.n	8003912 <_svfiprintf_r+0x18a>
 80038a8:	9307      	str	r3, [sp, #28]
 80038aa:	4e35      	ldr	r6, [pc, #212]	; (8003980 <_svfiprintf_r+0x1f8>)
 80038ac:	7821      	ldrb	r1, [r4, #0]
 80038ae:	2203      	movs	r2, #3
 80038b0:	0030      	movs	r0, r6
 80038b2:	f000 f9f5 	bl	8003ca0 <memchr>
 80038b6:	2800      	cmp	r0, #0
 80038b8:	d006      	beq.n	80038c8 <_svfiprintf_r+0x140>
 80038ba:	2340      	movs	r3, #64	; 0x40
 80038bc:	1b80      	subs	r0, r0, r6
 80038be:	4083      	lsls	r3, r0
 80038c0:	682a      	ldr	r2, [r5, #0]
 80038c2:	3401      	adds	r4, #1
 80038c4:	4313      	orrs	r3, r2
 80038c6:	602b      	str	r3, [r5, #0]
 80038c8:	7821      	ldrb	r1, [r4, #0]
 80038ca:	2206      	movs	r2, #6
 80038cc:	482d      	ldr	r0, [pc, #180]	; (8003984 <_svfiprintf_r+0x1fc>)
 80038ce:	1c66      	adds	r6, r4, #1
 80038d0:	7629      	strb	r1, [r5, #24]
 80038d2:	f000 f9e5 	bl	8003ca0 <memchr>
 80038d6:	2800      	cmp	r0, #0
 80038d8:	d046      	beq.n	8003968 <_svfiprintf_r+0x1e0>
 80038da:	4b2b      	ldr	r3, [pc, #172]	; (8003988 <_svfiprintf_r+0x200>)
 80038dc:	2b00      	cmp	r3, #0
 80038de:	d12f      	bne.n	8003940 <_svfiprintf_r+0x1b8>
 80038e0:	6829      	ldr	r1, [r5, #0]
 80038e2:	9b05      	ldr	r3, [sp, #20]
 80038e4:	2207      	movs	r2, #7
 80038e6:	05c9      	lsls	r1, r1, #23
 80038e8:	d528      	bpl.n	800393c <_svfiprintf_r+0x1b4>
 80038ea:	189b      	adds	r3, r3, r2
 80038ec:	4393      	bics	r3, r2
 80038ee:	3308      	adds	r3, #8
 80038f0:	9305      	str	r3, [sp, #20]
 80038f2:	696b      	ldr	r3, [r5, #20]
 80038f4:	9a03      	ldr	r2, [sp, #12]
 80038f6:	189b      	adds	r3, r3, r2
 80038f8:	616b      	str	r3, [r5, #20]
 80038fa:	e767      	b.n	80037cc <_svfiprintf_r+0x44>
 80038fc:	425b      	negs	r3, r3
 80038fe:	60eb      	str	r3, [r5, #12]
 8003900:	2302      	movs	r3, #2
 8003902:	430b      	orrs	r3, r1
 8003904:	602b      	str	r3, [r5, #0]
 8003906:	e7c0      	b.n	800388a <_svfiprintf_r+0x102>
 8003908:	434b      	muls	r3, r1
 800390a:	3401      	adds	r4, #1
 800390c:	189b      	adds	r3, r3, r2
 800390e:	2001      	movs	r0, #1
 8003910:	e7a0      	b.n	8003854 <_svfiprintf_r+0xcc>
 8003912:	2301      	movs	r3, #1
 8003914:	425b      	negs	r3, r3
 8003916:	e7c7      	b.n	80038a8 <_svfiprintf_r+0x120>
 8003918:	2300      	movs	r3, #0
 800391a:	0014      	movs	r4, r2
 800391c:	200a      	movs	r0, #10
 800391e:	001a      	movs	r2, r3
 8003920:	606b      	str	r3, [r5, #4]
 8003922:	7821      	ldrb	r1, [r4, #0]
 8003924:	3930      	subs	r1, #48	; 0x30
 8003926:	2909      	cmp	r1, #9
 8003928:	d903      	bls.n	8003932 <_svfiprintf_r+0x1aa>
 800392a:	2b00      	cmp	r3, #0
 800392c:	d0bd      	beq.n	80038aa <_svfiprintf_r+0x122>
 800392e:	9207      	str	r2, [sp, #28]
 8003930:	e7bb      	b.n	80038aa <_svfiprintf_r+0x122>
 8003932:	4342      	muls	r2, r0
 8003934:	3401      	adds	r4, #1
 8003936:	1852      	adds	r2, r2, r1
 8003938:	2301      	movs	r3, #1
 800393a:	e7f2      	b.n	8003922 <_svfiprintf_r+0x19a>
 800393c:	3307      	adds	r3, #7
 800393e:	e7d5      	b.n	80038ec <_svfiprintf_r+0x164>
 8003940:	ab05      	add	r3, sp, #20
 8003942:	9300      	str	r3, [sp, #0]
 8003944:	003a      	movs	r2, r7
 8003946:	4b11      	ldr	r3, [pc, #68]	; (800398c <_svfiprintf_r+0x204>)
 8003948:	0029      	movs	r1, r5
 800394a:	9802      	ldr	r0, [sp, #8]
 800394c:	e000      	b.n	8003950 <_svfiprintf_r+0x1c8>
 800394e:	bf00      	nop
 8003950:	9003      	str	r0, [sp, #12]
 8003952:	9b03      	ldr	r3, [sp, #12]
 8003954:	3301      	adds	r3, #1
 8003956:	d1cc      	bne.n	80038f2 <_svfiprintf_r+0x16a>
 8003958:	89bb      	ldrh	r3, [r7, #12]
 800395a:	980b      	ldr	r0, [sp, #44]	; 0x2c
 800395c:	065b      	lsls	r3, r3, #25
 800395e:	d400      	bmi.n	8003962 <_svfiprintf_r+0x1da>
 8003960:	e729      	b.n	80037b6 <_svfiprintf_r+0x2e>
 8003962:	2001      	movs	r0, #1
 8003964:	4240      	negs	r0, r0
 8003966:	e726      	b.n	80037b6 <_svfiprintf_r+0x2e>
 8003968:	ab05      	add	r3, sp, #20
 800396a:	9300      	str	r3, [sp, #0]
 800396c:	003a      	movs	r2, r7
 800396e:	4b07      	ldr	r3, [pc, #28]	; (800398c <_svfiprintf_r+0x204>)
 8003970:	0029      	movs	r1, r5
 8003972:	9802      	ldr	r0, [sp, #8]
 8003974:	f000 f87a 	bl	8003a6c <_printf_i>
 8003978:	e7ea      	b.n	8003950 <_svfiprintf_r+0x1c8>
 800397a:	46c0      	nop			; (mov r8, r8)
 800397c:	08003e7b 	.word	0x08003e7b
 8003980:	08003e81 	.word	0x08003e81
 8003984:	08003e85 	.word	0x08003e85
 8003988:	00000000 	.word	0x00000000
 800398c:	080036c5 	.word	0x080036c5

08003990 <_printf_common>:
 8003990:	b5f7      	push	{r0, r1, r2, r4, r5, r6, r7, lr}
 8003992:	0015      	movs	r5, r2
 8003994:	9301      	str	r3, [sp, #4]
 8003996:	688a      	ldr	r2, [r1, #8]
 8003998:	690b      	ldr	r3, [r1, #16]
 800399a:	9000      	str	r0, [sp, #0]
 800399c:	000c      	movs	r4, r1
 800399e:	4293      	cmp	r3, r2
 80039a0:	da00      	bge.n	80039a4 <_printf_common+0x14>
 80039a2:	0013      	movs	r3, r2
 80039a4:	0022      	movs	r2, r4
 80039a6:	602b      	str	r3, [r5, #0]
 80039a8:	3243      	adds	r2, #67	; 0x43
 80039aa:	7812      	ldrb	r2, [r2, #0]
 80039ac:	2a00      	cmp	r2, #0
 80039ae:	d001      	beq.n	80039b4 <_printf_common+0x24>
 80039b0:	3301      	adds	r3, #1
 80039b2:	602b      	str	r3, [r5, #0]
 80039b4:	6823      	ldr	r3, [r4, #0]
 80039b6:	069b      	lsls	r3, r3, #26
 80039b8:	d502      	bpl.n	80039c0 <_printf_common+0x30>
 80039ba:	682b      	ldr	r3, [r5, #0]
 80039bc:	3302      	adds	r3, #2
 80039be:	602b      	str	r3, [r5, #0]
 80039c0:	2706      	movs	r7, #6
 80039c2:	6823      	ldr	r3, [r4, #0]
 80039c4:	401f      	ands	r7, r3
 80039c6:	d027      	beq.n	8003a18 <_printf_common+0x88>
 80039c8:	0023      	movs	r3, r4
 80039ca:	3343      	adds	r3, #67	; 0x43
 80039cc:	781b      	ldrb	r3, [r3, #0]
 80039ce:	1e5a      	subs	r2, r3, #1
 80039d0:	4193      	sbcs	r3, r2
 80039d2:	6822      	ldr	r2, [r4, #0]
 80039d4:	0692      	lsls	r2, r2, #26
 80039d6:	d430      	bmi.n	8003a3a <_printf_common+0xaa>
 80039d8:	0022      	movs	r2, r4
 80039da:	9901      	ldr	r1, [sp, #4]
 80039dc:	3243      	adds	r2, #67	; 0x43
 80039de:	9800      	ldr	r0, [sp, #0]
 80039e0:	9e08      	ldr	r6, [sp, #32]
 80039e2:	47b0      	blx	r6
 80039e4:	1c43      	adds	r3, r0, #1
 80039e6:	d025      	beq.n	8003a34 <_printf_common+0xa4>
 80039e8:	2306      	movs	r3, #6
 80039ea:	6820      	ldr	r0, [r4, #0]
 80039ec:	682a      	ldr	r2, [r5, #0]
 80039ee:	68e1      	ldr	r1, [r4, #12]
 80039f0:	4003      	ands	r3, r0
 80039f2:	2500      	movs	r5, #0
 80039f4:	2b04      	cmp	r3, #4
 80039f6:	d103      	bne.n	8003a00 <_printf_common+0x70>
 80039f8:	1a8d      	subs	r5, r1, r2
 80039fa:	43eb      	mvns	r3, r5
 80039fc:	17db      	asrs	r3, r3, #31
 80039fe:	401d      	ands	r5, r3
 8003a00:	68a3      	ldr	r3, [r4, #8]
 8003a02:	6922      	ldr	r2, [r4, #16]
 8003a04:	4293      	cmp	r3, r2
 8003a06:	dd01      	ble.n	8003a0c <_printf_common+0x7c>
 8003a08:	1a9b      	subs	r3, r3, r2
 8003a0a:	18ed      	adds	r5, r5, r3
 8003a0c:	2700      	movs	r7, #0
 8003a0e:	42bd      	cmp	r5, r7
 8003a10:	d120      	bne.n	8003a54 <_printf_common+0xc4>
 8003a12:	2000      	movs	r0, #0
 8003a14:	e010      	b.n	8003a38 <_printf_common+0xa8>
 8003a16:	3701      	adds	r7, #1
 8003a18:	68e3      	ldr	r3, [r4, #12]
 8003a1a:	682a      	ldr	r2, [r5, #0]
 8003a1c:	1a9b      	subs	r3, r3, r2
 8003a1e:	429f      	cmp	r7, r3
 8003a20:	dad2      	bge.n	80039c8 <_printf_common+0x38>
 8003a22:	0022      	movs	r2, r4
 8003a24:	2301      	movs	r3, #1
 8003a26:	3219      	adds	r2, #25
 8003a28:	9901      	ldr	r1, [sp, #4]
 8003a2a:	9800      	ldr	r0, [sp, #0]
 8003a2c:	9e08      	ldr	r6, [sp, #32]
 8003a2e:	47b0      	blx	r6
 8003a30:	1c43      	adds	r3, r0, #1
 8003a32:	d1f0      	bne.n	8003a16 <_printf_common+0x86>
 8003a34:	2001      	movs	r0, #1
 8003a36:	4240      	negs	r0, r0
 8003a38:	bdfe      	pop	{r1, r2, r3, r4, r5, r6, r7, pc}
 8003a3a:	2030      	movs	r0, #48	; 0x30
 8003a3c:	18e1      	adds	r1, r4, r3
 8003a3e:	3143      	adds	r1, #67	; 0x43
 8003a40:	7008      	strb	r0, [r1, #0]
 8003a42:	0021      	movs	r1, r4
 8003a44:	1c5a      	adds	r2, r3, #1
 8003a46:	3145      	adds	r1, #69	; 0x45
 8003a48:	7809      	ldrb	r1, [r1, #0]
 8003a4a:	18a2      	adds	r2, r4, r2
 8003a4c:	3243      	adds	r2, #67	; 0x43
 8003a4e:	3302      	adds	r3, #2
 8003a50:	7011      	strb	r1, [r2, #0]
 8003a52:	e7c1      	b.n	80039d8 <_printf_common+0x48>
 8003a54:	0022      	movs	r2, r4
 8003a56:	2301      	movs	r3, #1
 8003a58:	321a      	adds	r2, #26
 8003a5a:	9901      	ldr	r1, [sp, #4]
 8003a5c:	9800      	ldr	r0, [sp, #0]
 8003a5e:	9e08      	ldr	r6, [sp, #32]
 8003a60:	47b0      	blx	r6
 8003a62:	1c43      	adds	r3, r0, #1
 8003a64:	d0e6      	beq.n	8003a34 <_printf_common+0xa4>
 8003a66:	3701      	adds	r7, #1
 8003a68:	e7d1      	b.n	8003a0e <_printf_common+0x7e>
	...

08003a6c <_printf_i>:
 8003a6c:	b5f0      	push	{r4, r5, r6, r7, lr}
 8003a6e:	b08b      	sub	sp, #44	; 0x2c
 8003a70:	9206      	str	r2, [sp, #24]
 8003a72:	000a      	movs	r2, r1
 8003a74:	3243      	adds	r2, #67	; 0x43
 8003a76:	9307      	str	r3, [sp, #28]
 8003a78:	9005      	str	r0, [sp, #20]
 8003a7a:	9204      	str	r2, [sp, #16]
 8003a7c:	7e0a      	ldrb	r2, [r1, #24]
 8003a7e:	000c      	movs	r4, r1
 8003a80:	9b10      	ldr	r3, [sp, #64]	; 0x40
 8003a82:	2a6e      	cmp	r2, #110	; 0x6e
 8003a84:	d100      	bne.n	8003a88 <_printf_i+0x1c>
 8003a86:	e08f      	b.n	8003ba8 <_printf_i+0x13c>
 8003a88:	d817      	bhi.n	8003aba <_printf_i+0x4e>
 8003a8a:	2a63      	cmp	r2, #99	; 0x63
 8003a8c:	d02c      	beq.n	8003ae8 <_printf_i+0x7c>
 8003a8e:	d808      	bhi.n	8003aa2 <_printf_i+0x36>
 8003a90:	2a00      	cmp	r2, #0
 8003a92:	d100      	bne.n	8003a96 <_printf_i+0x2a>
 8003a94:	e099      	b.n	8003bca <_printf_i+0x15e>
 8003a96:	2a58      	cmp	r2, #88	; 0x58
 8003a98:	d054      	beq.n	8003b44 <_printf_i+0xd8>
 8003a9a:	0026      	movs	r6, r4
 8003a9c:	3642      	adds	r6, #66	; 0x42
 8003a9e:	7032      	strb	r2, [r6, #0]
 8003aa0:	e029      	b.n	8003af6 <_printf_i+0x8a>
 8003aa2:	2a64      	cmp	r2, #100	; 0x64
 8003aa4:	d001      	beq.n	8003aaa <_printf_i+0x3e>
 8003aa6:	2a69      	cmp	r2, #105	; 0x69
 8003aa8:	d1f7      	bne.n	8003a9a <_printf_i+0x2e>
 8003aaa:	6821      	ldr	r1, [r4, #0]
 8003aac:	681a      	ldr	r2, [r3, #0]
 8003aae:	0608      	lsls	r0, r1, #24
 8003ab0:	d523      	bpl.n	8003afa <_printf_i+0x8e>
 8003ab2:	1d11      	adds	r1, r2, #4
 8003ab4:	6019      	str	r1, [r3, #0]
 8003ab6:	6815      	ldr	r5, [r2, #0]
 8003ab8:	e025      	b.n	8003b06 <_printf_i+0x9a>
 8003aba:	2a73      	cmp	r2, #115	; 0x73
 8003abc:	d100      	bne.n	8003ac0 <_printf_i+0x54>
 8003abe:	e088      	b.n	8003bd2 <_printf_i+0x166>
 8003ac0:	d808      	bhi.n	8003ad4 <_printf_i+0x68>
 8003ac2:	2a6f      	cmp	r2, #111	; 0x6f
 8003ac4:	d029      	beq.n	8003b1a <_printf_i+0xae>
 8003ac6:	2a70      	cmp	r2, #112	; 0x70
 8003ac8:	d1e7      	bne.n	8003a9a <_printf_i+0x2e>
 8003aca:	2220      	movs	r2, #32
 8003acc:	6809      	ldr	r1, [r1, #0]
 8003ace:	430a      	orrs	r2, r1
 8003ad0:	6022      	str	r2, [r4, #0]
 8003ad2:	e003      	b.n	8003adc <_printf_i+0x70>
 8003ad4:	2a75      	cmp	r2, #117	; 0x75
 8003ad6:	d020      	beq.n	8003b1a <_printf_i+0xae>
 8003ad8:	2a78      	cmp	r2, #120	; 0x78
 8003ada:	d1de      	bne.n	8003a9a <_printf_i+0x2e>
 8003adc:	0022      	movs	r2, r4
 8003ade:	2178      	movs	r1, #120	; 0x78
 8003ae0:	3245      	adds	r2, #69	; 0x45
 8003ae2:	7011      	strb	r1, [r2, #0]
 8003ae4:	4a6c      	ldr	r2, [pc, #432]	; (8003c98 <_printf_i+0x22c>)
 8003ae6:	e030      	b.n	8003b4a <_printf_i+0xde>
 8003ae8:	000e      	movs	r6, r1
 8003aea:	681a      	ldr	r2, [r3, #0]
 8003aec:	3642      	adds	r6, #66	; 0x42
 8003aee:	1d11      	adds	r1, r2, #4
 8003af0:	6019      	str	r1, [r3, #0]
 8003af2:	6813      	ldr	r3, [r2, #0]
 8003af4:	7033      	strb	r3, [r6, #0]
 8003af6:	2301      	movs	r3, #1
 8003af8:	e079      	b.n	8003bee <_printf_i+0x182>
 8003afa:	0649      	lsls	r1, r1, #25
 8003afc:	d5d9      	bpl.n	8003ab2 <_printf_i+0x46>
 8003afe:	1d11      	adds	r1, r2, #4
 8003b00:	6019      	str	r1, [r3, #0]
 8003b02:	2300      	movs	r3, #0
 8003b04:	5ed5      	ldrsh	r5, [r2, r3]
 8003b06:	2d00      	cmp	r5, #0
 8003b08:	da03      	bge.n	8003b12 <_printf_i+0xa6>
 8003b0a:	232d      	movs	r3, #45	; 0x2d
 8003b0c:	9a04      	ldr	r2, [sp, #16]
 8003b0e:	426d      	negs	r5, r5
 8003b10:	7013      	strb	r3, [r2, #0]
 8003b12:	4b62      	ldr	r3, [pc, #392]	; (8003c9c <_printf_i+0x230>)
 8003b14:	270a      	movs	r7, #10
 8003b16:	9303      	str	r3, [sp, #12]
 8003b18:	e02f      	b.n	8003b7a <_printf_i+0x10e>
 8003b1a:	6820      	ldr	r0, [r4, #0]
 8003b1c:	6819      	ldr	r1, [r3, #0]
 8003b1e:	0605      	lsls	r5, r0, #24
 8003b20:	d503      	bpl.n	8003b2a <_printf_i+0xbe>
 8003b22:	1d08      	adds	r0, r1, #4
 8003b24:	6018      	str	r0, [r3, #0]
 8003b26:	680d      	ldr	r5, [r1, #0]
 8003b28:	e005      	b.n	8003b36 <_printf_i+0xca>
 8003b2a:	0640      	lsls	r0, r0, #25
 8003b2c:	d5f9      	bpl.n	8003b22 <_printf_i+0xb6>
 8003b2e:	680d      	ldr	r5, [r1, #0]
 8003b30:	1d08      	adds	r0, r1, #4
 8003b32:	6018      	str	r0, [r3, #0]
 8003b34:	b2ad      	uxth	r5, r5
 8003b36:	4b59      	ldr	r3, [pc, #356]	; (8003c9c <_printf_i+0x230>)
 8003b38:	2708      	movs	r7, #8
 8003b3a:	9303      	str	r3, [sp, #12]
 8003b3c:	2a6f      	cmp	r2, #111	; 0x6f
 8003b3e:	d018      	beq.n	8003b72 <_printf_i+0x106>
 8003b40:	270a      	movs	r7, #10
 8003b42:	e016      	b.n	8003b72 <_printf_i+0x106>
 8003b44:	3145      	adds	r1, #69	; 0x45
 8003b46:	700a      	strb	r2, [r1, #0]
 8003b48:	4a54      	ldr	r2, [pc, #336]	; (8003c9c <_printf_i+0x230>)
 8003b4a:	9203      	str	r2, [sp, #12]
 8003b4c:	681a      	ldr	r2, [r3, #0]
 8003b4e:	6821      	ldr	r1, [r4, #0]
 8003b50:	1d10      	adds	r0, r2, #4
 8003b52:	6018      	str	r0, [r3, #0]
 8003b54:	6815      	ldr	r5, [r2, #0]
 8003b56:	0608      	lsls	r0, r1, #24
 8003b58:	d522      	bpl.n	8003ba0 <_printf_i+0x134>
 8003b5a:	07cb      	lsls	r3, r1, #31
 8003b5c:	d502      	bpl.n	8003b64 <_printf_i+0xf8>
 8003b5e:	2320      	movs	r3, #32
 8003b60:	4319      	orrs	r1, r3
 8003b62:	6021      	str	r1, [r4, #0]
 8003b64:	2710      	movs	r7, #16
 8003b66:	2d00      	cmp	r5, #0
 8003b68:	d103      	bne.n	8003b72 <_printf_i+0x106>
 8003b6a:	2320      	movs	r3, #32
 8003b6c:	6822      	ldr	r2, [r4, #0]
 8003b6e:	439a      	bics	r2, r3
 8003b70:	6022      	str	r2, [r4, #0]
 8003b72:	0023      	movs	r3, r4
 8003b74:	2200      	movs	r2, #0
 8003b76:	3343      	adds	r3, #67	; 0x43
 8003b78:	701a      	strb	r2, [r3, #0]
 8003b7a:	6863      	ldr	r3, [r4, #4]
 8003b7c:	60a3      	str	r3, [r4, #8]
 8003b7e:	2b00      	cmp	r3, #0
 8003b80:	db5c      	blt.n	8003c3c <_printf_i+0x1d0>
 8003b82:	2204      	movs	r2, #4
 8003b84:	6821      	ldr	r1, [r4, #0]
 8003b86:	4391      	bics	r1, r2
 8003b88:	6021      	str	r1, [r4, #0]
 8003b8a:	2d00      	cmp	r5, #0
 8003b8c:	d158      	bne.n	8003c40 <_printf_i+0x1d4>
 8003b8e:	9e04      	ldr	r6, [sp, #16]
 8003b90:	2b00      	cmp	r3, #0
 8003b92:	d064      	beq.n	8003c5e <_printf_i+0x1f2>
 8003b94:	0026      	movs	r6, r4
 8003b96:	9b03      	ldr	r3, [sp, #12]
 8003b98:	3642      	adds	r6, #66	; 0x42
 8003b9a:	781b      	ldrb	r3, [r3, #0]
 8003b9c:	7033      	strb	r3, [r6, #0]
 8003b9e:	e05e      	b.n	8003c5e <_printf_i+0x1f2>
 8003ba0:	0648      	lsls	r0, r1, #25
 8003ba2:	d5da      	bpl.n	8003b5a <_printf_i+0xee>
 8003ba4:	b2ad      	uxth	r5, r5
 8003ba6:	e7d8      	b.n	8003b5a <_printf_i+0xee>
 8003ba8:	6809      	ldr	r1, [r1, #0]
 8003baa:	681a      	ldr	r2, [r3, #0]
 8003bac:	0608      	lsls	r0, r1, #24
 8003bae:	d505      	bpl.n	8003bbc <_printf_i+0x150>
 8003bb0:	1d11      	adds	r1, r2, #4
 8003bb2:	6019      	str	r1, [r3, #0]
 8003bb4:	6813      	ldr	r3, [r2, #0]
 8003bb6:	6962      	ldr	r2, [r4, #20]
 8003bb8:	601a      	str	r2, [r3, #0]
 8003bba:	e006      	b.n	8003bca <_printf_i+0x15e>
 8003bbc:	0649      	lsls	r1, r1, #25
 8003bbe:	d5f7      	bpl.n	8003bb0 <_printf_i+0x144>
 8003bc0:	1d11      	adds	r1, r2, #4
 8003bc2:	6019      	str	r1, [r3, #0]
 8003bc4:	6813      	ldr	r3, [r2, #0]
 8003bc6:	8aa2      	ldrh	r2, [r4, #20]
 8003bc8:	801a      	strh	r2, [r3, #0]
 8003bca:	2300      	movs	r3, #0
 8003bcc:	9e04      	ldr	r6, [sp, #16]
 8003bce:	6123      	str	r3, [r4, #16]
 8003bd0:	e054      	b.n	8003c7c <_printf_i+0x210>
 8003bd2:	681a      	ldr	r2, [r3, #0]
 8003bd4:	1d11      	adds	r1, r2, #4
 8003bd6:	6019      	str	r1, [r3, #0]
 8003bd8:	6816      	ldr	r6, [r2, #0]
 8003bda:	2100      	movs	r1, #0
 8003bdc:	6862      	ldr	r2, [r4, #4]
 8003bde:	0030      	movs	r0, r6
 8003be0:	f000 f85e 	bl	8003ca0 <memchr>
 8003be4:	2800      	cmp	r0, #0
 8003be6:	d001      	beq.n	8003bec <_printf_i+0x180>
 8003be8:	1b80      	subs	r0, r0, r6
 8003bea:	6060      	str	r0, [r4, #4]
 8003bec:	6863      	ldr	r3, [r4, #4]
 8003bee:	6123      	str	r3, [r4, #16]
 8003bf0:	2300      	movs	r3, #0
 8003bf2:	9a04      	ldr	r2, [sp, #16]
 8003bf4:	7013      	strb	r3, [r2, #0]
 8003bf6:	e041      	b.n	8003c7c <_printf_i+0x210>
 8003bf8:	6923      	ldr	r3, [r4, #16]
 8003bfa:	0032      	movs	r2, r6
 8003bfc:	9906      	ldr	r1, [sp, #24]
 8003bfe:	9805      	ldr	r0, [sp, #20]
 8003c00:	9d07      	ldr	r5, [sp, #28]
 8003c02:	47a8      	blx	r5
 8003c04:	1c43      	adds	r3, r0, #1
 8003c06:	d043      	beq.n	8003c90 <_printf_i+0x224>
 8003c08:	6823      	ldr	r3, [r4, #0]
 8003c0a:	2500      	movs	r5, #0
 8003c0c:	079b      	lsls	r3, r3, #30
 8003c0e:	d40f      	bmi.n	8003c30 <_printf_i+0x1c4>
 8003c10:	9b09      	ldr	r3, [sp, #36]	; 0x24
 8003c12:	68e0      	ldr	r0, [r4, #12]
 8003c14:	4298      	cmp	r0, r3
 8003c16:	da3d      	bge.n	8003c94 <_printf_i+0x228>
 8003c18:	0018      	movs	r0, r3
 8003c1a:	e03b      	b.n	8003c94 <_printf_i+0x228>
 8003c1c:	0022      	movs	r2, r4
 8003c1e:	2301      	movs	r3, #1
 8003c20:	3219      	adds	r2, #25
 8003c22:	9906      	ldr	r1, [sp, #24]
 8003c24:	9805      	ldr	r0, [sp, #20]
 8003c26:	9e07      	ldr	r6, [sp, #28]
 8003c28:	47b0      	blx	r6
 8003c2a:	1c43      	adds	r3, r0, #1
 8003c2c:	d030      	beq.n	8003c90 <_printf_i+0x224>
 8003c2e:	3501      	adds	r5, #1
 8003c30:	68e3      	ldr	r3, [r4, #12]
 8003c32:	9a09      	ldr	r2, [sp, #36]	; 0x24
 8003c34:	1a9b      	subs	r3, r3, r2
 8003c36:	429d      	cmp	r5, r3
 8003c38:	dbf0      	blt.n	8003c1c <_printf_i+0x1b0>
 8003c3a:	e7e9      	b.n	8003c10 <_printf_i+0x1a4>
 8003c3c:	2d00      	cmp	r5, #0
 8003c3e:	d0a9      	beq.n	8003b94 <_printf_i+0x128>
 8003c40:	9e04      	ldr	r6, [sp, #16]
 8003c42:	0028      	movs	r0, r5
 8003c44:	0039      	movs	r1, r7
 8003c46:	f7fc faf7 	bl	8000238 <__aeabi_uidivmod>
 8003c4a:	9b03      	ldr	r3, [sp, #12]
 8003c4c:	3e01      	subs	r6, #1
 8003c4e:	5c5b      	ldrb	r3, [r3, r1]
 8003c50:	0028      	movs	r0, r5
 8003c52:	7033      	strb	r3, [r6, #0]
 8003c54:	0039      	movs	r1, r7
 8003c56:	f7fc fa69 	bl	800012c <__udivsi3>
 8003c5a:	1e05      	subs	r5, r0, #0
 8003c5c:	d1f1      	bne.n	8003c42 <_printf_i+0x1d6>
 8003c5e:	2f08      	cmp	r7, #8
 8003c60:	d109      	bne.n	8003c76 <_printf_i+0x20a>
 8003c62:	6823      	ldr	r3, [r4, #0]
 8003c64:	07db      	lsls	r3, r3, #31
 8003c66:	d506      	bpl.n	8003c76 <_printf_i+0x20a>
 8003c68:	6863      	ldr	r3, [r4, #4]
 8003c6a:	6922      	ldr	r2, [r4, #16]
 8003c6c:	4293      	cmp	r3, r2
 8003c6e:	dc02      	bgt.n	8003c76 <_printf_i+0x20a>
 8003c70:	2330      	movs	r3, #48	; 0x30
 8003c72:	3e01      	subs	r6, #1
 8003c74:	7033      	strb	r3, [r6, #0]
 8003c76:	9b04      	ldr	r3, [sp, #16]
 8003c78:	1b9b      	subs	r3, r3, r6
 8003c7a:	6123      	str	r3, [r4, #16]
 8003c7c:	9b07      	ldr	r3, [sp, #28]
 8003c7e:	aa09      	add	r2, sp, #36	; 0x24
 8003c80:	9300      	str	r3, [sp, #0]
 8003c82:	0021      	movs	r1, r4
 8003c84:	9b06      	ldr	r3, [sp, #24]
 8003c86:	9805      	ldr	r0, [sp, #20]
 8003c88:	f7ff fe82 	bl	8003990 <_printf_common>
 8003c8c:	1c43      	adds	r3, r0, #1
 8003c8e:	d1b3      	bne.n	8003bf8 <_printf_i+0x18c>
 8003c90:	2001      	movs	r0, #1
 8003c92:	4240      	negs	r0, r0
 8003c94:	b00b      	add	sp, #44	; 0x2c
 8003c96:	bdf0      	pop	{r4, r5, r6, r7, pc}
 8003c98:	08003e9d 	.word	0x08003e9d
 8003c9c:	08003e8c 	.word	0x08003e8c

08003ca0 <memchr>:
 8003ca0:	b2c9      	uxtb	r1, r1
 8003ca2:	1882      	adds	r2, r0, r2
 8003ca4:	4290      	cmp	r0, r2
 8003ca6:	d101      	bne.n	8003cac <memchr+0xc>
 8003ca8:	2000      	movs	r0, #0
 8003caa:	4770      	bx	lr
 8003cac:	7803      	ldrb	r3, [r0, #0]
 8003cae:	428b      	cmp	r3, r1
 8003cb0:	d0fb      	beq.n	8003caa <memchr+0xa>
 8003cb2:	3001      	adds	r0, #1
 8003cb4:	e7f6      	b.n	8003ca4 <memchr+0x4>

08003cb6 <memmove>:
 8003cb6:	b510      	push	{r4, lr}
 8003cb8:	4288      	cmp	r0, r1
 8003cba:	d902      	bls.n	8003cc2 <memmove+0xc>
 8003cbc:	188b      	adds	r3, r1, r2
 8003cbe:	4298      	cmp	r0, r3
 8003cc0:	d308      	bcc.n	8003cd4 <memmove+0x1e>
 8003cc2:	2300      	movs	r3, #0
 8003cc4:	429a      	cmp	r2, r3
 8003cc6:	d007      	beq.n	8003cd8 <memmove+0x22>
 8003cc8:	5ccc      	ldrb	r4, [r1, r3]
 8003cca:	54c4      	strb	r4, [r0, r3]
 8003ccc:	3301      	adds	r3, #1
 8003cce:	e7f9      	b.n	8003cc4 <memmove+0xe>
 8003cd0:	5c8b      	ldrb	r3, [r1, r2]
 8003cd2:	5483      	strb	r3, [r0, r2]
 8003cd4:	3a01      	subs	r2, #1
 8003cd6:	d2fb      	bcs.n	8003cd0 <memmove+0x1a>
 8003cd8:	bd10      	pop	{r4, pc}

08003cda <_realloc_r>:
 8003cda:	b5f8      	push	{r3, r4, r5, r6, r7, lr}
 8003cdc:	0007      	movs	r7, r0
 8003cde:	000d      	movs	r5, r1
 8003ce0:	0016      	movs	r6, r2
 8003ce2:	2900      	cmp	r1, #0
 8003ce4:	d105      	bne.n	8003cf2 <_realloc_r+0x18>
 8003ce6:	0011      	movs	r1, r2
 8003ce8:	f7ff fc58 	bl	800359c <_malloc_r>
 8003cec:	0004      	movs	r4, r0
 8003cee:	0020      	movs	r0, r4
 8003cf0:	bdf8      	pop	{r3, r4, r5, r6, r7, pc}
 8003cf2:	2a00      	cmp	r2, #0
 8003cf4:	d103      	bne.n	8003cfe <_realloc_r+0x24>
 8003cf6:	f7ff fc07 	bl	8003508 <_free_r>
 8003cfa:	0034      	movs	r4, r6
 8003cfc:	e7f7      	b.n	8003cee <_realloc_r+0x14>
 8003cfe:	f000 f812 	bl	8003d26 <_malloc_usable_size_r>
 8003d02:	002c      	movs	r4, r5
 8003d04:	4286      	cmp	r6, r0
 8003d06:	d9f2      	bls.n	8003cee <_realloc_r+0x14>
 8003d08:	0031      	movs	r1, r6
 8003d0a:	0038      	movs	r0, r7
 8003d0c:	f7ff fc46 	bl	800359c <_malloc_r>
 8003d10:	1e04      	subs	r4, r0, #0
 8003d12:	d0ec      	beq.n	8003cee <_realloc_r+0x14>
 8003d14:	0029      	movs	r1, r5
 8003d16:	0032      	movs	r2, r6
 8003d18:	f7ff fbe4 	bl	80034e4 <memcpy>
 8003d1c:	0029      	movs	r1, r5
 8003d1e:	0038      	movs	r0, r7
 8003d20:	f7ff fbf2 	bl	8003508 <_free_r>
 8003d24:	e7e3      	b.n	8003cee <_realloc_r+0x14>

08003d26 <_malloc_usable_size_r>:
 8003d26:	1f0b      	subs	r3, r1, #4
 8003d28:	681b      	ldr	r3, [r3, #0]
 8003d2a:	1f18      	subs	r0, r3, #4
 8003d2c:	2b00      	cmp	r3, #0
 8003d2e:	da01      	bge.n	8003d34 <_malloc_usable_size_r+0xe>
 8003d30:	580b      	ldr	r3, [r1, r0]
 8003d32:	18c0      	adds	r0, r0, r3
 8003d34:	4770      	bx	lr
	...

08003d38 <_sbrk>:
 8003d38:	4b05      	ldr	r3, [pc, #20]	; (8003d50 <_sbrk+0x18>)
 8003d3a:	0002      	movs	r2, r0
 8003d3c:	6819      	ldr	r1, [r3, #0]
 8003d3e:	2900      	cmp	r1, #0
 8003d40:	d101      	bne.n	8003d46 <_sbrk+0xe>
 8003d42:	4904      	ldr	r1, [pc, #16]	; (8003d54 <_sbrk+0x1c>)
 8003d44:	6019      	str	r1, [r3, #0]
 8003d46:	6818      	ldr	r0, [r3, #0]
 8003d48:	1882      	adds	r2, r0, r2
 8003d4a:	601a      	str	r2, [r3, #0]
 8003d4c:	4770      	bx	lr
 8003d4e:	46c0      	nop			; (mov r8, r8)
 8003d50:	20000154 	.word	0x20000154
 8003d54:	20000364 	.word	0x20000364

08003d58 <_init>:
 8003d58:	b5f8      	push	{r3, r4, r5, r6, r7, lr}
 8003d5a:	46c0      	nop			; (mov r8, r8)
 8003d5c:	bcf8      	pop	{r3, r4, r5, r6, r7}
 8003d5e:	bc08      	pop	{r3}
 8003d60:	469e      	mov	lr, r3
 8003d62:	4770      	bx	lr

08003d64 <_fini>:
 8003d64:	b5f8      	push	{r3, r4, r5, r6, r7, lr}
 8003d66:	46c0      	nop			; (mov r8, r8)
 8003d68:	bcf8      	pop	{r3, r4, r5, r6, r7}
 8003d6a:	bc08      	pop	{r3}
 8003d6c:	469e      	mov	lr, r3
 8003d6e:	4770      	bx	lr
