
C:\Users\Henry\Desktop\Skripsie\Feedback-Control-of-Robotic-Gymnast-MCU\acrobat_v4\Debug\acrobat_v4.elf:     file format elf32-littlearm

Sections:
Idx Name          Size      VMA       LMA       File off  Algn
  0 .isr_vector   000000c0  08000000  08000000  00010000  2**0
                  CONTENTS, ALLOC, LOAD, READONLY, DATA
  1 .text         00003ecc  080000c0  080000c0  000100c0  2**2
                  CONTENTS, ALLOC, LOAD, READONLY, CODE
  2 .rodata       000002b0  08003f8c  08003f8c  00013f8c  2**2
                  CONTENTS, ALLOC, LOAD, READONLY, DATA
  3 .init_array   00000004  0800423c  0800423c  0001423c  2**2
                  CONTENTS, ALLOC, LOAD, DATA
  4 .fini_array   00000004  08004240  08004240  00014240  2**2
                  CONTENTS, ALLOC, LOAD, DATA
  5 .data         000001fc  20000000  08004244  00020000  2**3
                  CONTENTS, ALLOC, LOAD, DATA
  6 .bss          000002d4  20000200  08004440  00020200  2**3
                  ALLOC
  7 ._user_heap_stack 00000600  200004d4  08004440  000204d4  2**0
                  ALLOC
  8 .ARM.attributes 00000028  00000000  00000000  000201fc  2**0
                  CONTENTS, READONLY
  9 .debug_info   0001be7b  00000000  00000000  00020224  2**0
                  CONTENTS, READONLY, DEBUGGING
 10 .debug_abbrev 00003656  00000000  00000000  0003c09f  2**0
                  CONTENTS, READONLY, DEBUGGING
 11 .debug_loc    00007f3c  00000000  00000000  0003f6f5  2**0
                  CONTENTS, READONLY, DEBUGGING
 12 .debug_aranges 00000ac8  00000000  00000000  00047638  2**3
                  CONTENTS, READONLY, DEBUGGING
 13 .debug_ranges 00000ef0  00000000  00000000  00048100  2**3
                  CONTENTS, READONLY, DEBUGGING
 14 .debug_line   00007a09  00000000  00000000  00048ff0  2**0
                  CONTENTS, READONLY, DEBUGGING
 15 .debug_str    0004b666  00000000  00000000  000509f9  2**0
                  CONTENTS, READONLY, DEBUGGING
 16 .comment      0000007c  00000000  00000000  0009c05f  2**0
                  CONTENTS, READONLY
 17 .debug_frame  00002598  00000000  00000000  0009c0dc  2**2
                  CONTENTS, READONLY, DEBUGGING
 18 .debug_macro  0000c562  00000000  00000000  0009e674  2**0
                  CONTENTS, READONLY, DEBUGGING

Disassembly of section .text:

080000c0 <__do_global_dtors_aux>:
 80000c0:	b510      	push	{r4, lr}
 80000c2:	4c06      	ldr	r4, [pc, #24]	; (80000dc <__do_global_dtors_aux+0x1c>)
 80000c4:	7823      	ldrb	r3, [r4, #0]
 80000c6:	2b00      	cmp	r3, #0
 80000c8:	d107      	bne.n	80000da <__do_global_dtors_aux+0x1a>
 80000ca:	4b05      	ldr	r3, [pc, #20]	; (80000e0 <__do_global_dtors_aux+0x20>)
 80000cc:	2b00      	cmp	r3, #0
 80000ce:	d002      	beq.n	80000d6 <__do_global_dtors_aux+0x16>
 80000d0:	4804      	ldr	r0, [pc, #16]	; (80000e4 <__do_global_dtors_aux+0x24>)
 80000d2:	e000      	b.n	80000d6 <__do_global_dtors_aux+0x16>
 80000d4:	bf00      	nop
 80000d6:	2301      	movs	r3, #1
 80000d8:	7023      	strb	r3, [r4, #0]
 80000da:	bd10      	pop	{r4, pc}
 80000dc:	20000200 	.word	0x20000200
 80000e0:	00000000 	.word	0x00000000
 80000e4:	08003f74 	.word	0x08003f74

080000e8 <frame_dummy>:
 80000e8:	4b04      	ldr	r3, [pc, #16]	; (80000fc <frame_dummy+0x14>)
 80000ea:	b510      	push	{r4, lr}
 80000ec:	2b00      	cmp	r3, #0
 80000ee:	d003      	beq.n	80000f8 <frame_dummy+0x10>
 80000f0:	4903      	ldr	r1, [pc, #12]	; (8000100 <frame_dummy+0x18>)
 80000f2:	4804      	ldr	r0, [pc, #16]	; (8000104 <frame_dummy+0x1c>)
 80000f4:	e000      	b.n	80000f8 <frame_dummy+0x10>
 80000f6:	bf00      	nop
 80000f8:	bd10      	pop	{r4, pc}
 80000fa:	46c0      	nop			; (mov r8, r8)
 80000fc:	00000000 	.word	0x00000000
 8000100:	20000204 	.word	0x20000204
 8000104:	08003f74 	.word	0x08003f74

08000108 <strlen>:
 8000108:	2300      	movs	r3, #0
 800010a:	5cc2      	ldrb	r2, [r0, r3]
 800010c:	3301      	adds	r3, #1
 800010e:	2a00      	cmp	r2, #0
 8000110:	d1fb      	bne.n	800010a <strlen+0x2>
 8000112:	1e58      	subs	r0, r3, #1
 8000114:	4770      	bx	lr
	...

08000118 <__gnu_thumb1_case_uqi>:
 8000118:	b402      	push	{r1}
 800011a:	4671      	mov	r1, lr
 800011c:	0849      	lsrs	r1, r1, #1
 800011e:	0049      	lsls	r1, r1, #1
 8000120:	5c09      	ldrb	r1, [r1, r0]
 8000122:	0049      	lsls	r1, r1, #1
 8000124:	448e      	add	lr, r1
 8000126:	bc02      	pop	{r1}
 8000128:	4770      	bx	lr
 800012a:	46c0      	nop			; (mov r8, r8)

0800012c <__udivsi3>:
 800012c:	2200      	movs	r2, #0
 800012e:	0843      	lsrs	r3, r0, #1
 8000130:	428b      	cmp	r3, r1
 8000132:	d374      	bcc.n	800021e <__udivsi3+0xf2>
 8000134:	0903      	lsrs	r3, r0, #4
 8000136:	428b      	cmp	r3, r1
 8000138:	d35f      	bcc.n	80001fa <__udivsi3+0xce>
 800013a:	0a03      	lsrs	r3, r0, #8
 800013c:	428b      	cmp	r3, r1
 800013e:	d344      	bcc.n	80001ca <__udivsi3+0x9e>
 8000140:	0b03      	lsrs	r3, r0, #12
 8000142:	428b      	cmp	r3, r1
 8000144:	d328      	bcc.n	8000198 <__udivsi3+0x6c>
 8000146:	0c03      	lsrs	r3, r0, #16
 8000148:	428b      	cmp	r3, r1
 800014a:	d30d      	bcc.n	8000168 <__udivsi3+0x3c>
 800014c:	22ff      	movs	r2, #255	; 0xff
 800014e:	0209      	lsls	r1, r1, #8
 8000150:	ba12      	rev	r2, r2
 8000152:	0c03      	lsrs	r3, r0, #16
 8000154:	428b      	cmp	r3, r1
 8000156:	d302      	bcc.n	800015e <__udivsi3+0x32>
 8000158:	1212      	asrs	r2, r2, #8
 800015a:	0209      	lsls	r1, r1, #8
 800015c:	d065      	beq.n	800022a <__udivsi3+0xfe>
 800015e:	0b03      	lsrs	r3, r0, #12
 8000160:	428b      	cmp	r3, r1
 8000162:	d319      	bcc.n	8000198 <__udivsi3+0x6c>
 8000164:	e000      	b.n	8000168 <__udivsi3+0x3c>
 8000166:	0a09      	lsrs	r1, r1, #8
 8000168:	0bc3      	lsrs	r3, r0, #15
 800016a:	428b      	cmp	r3, r1
 800016c:	d301      	bcc.n	8000172 <__udivsi3+0x46>
 800016e:	03cb      	lsls	r3, r1, #15
 8000170:	1ac0      	subs	r0, r0, r3
 8000172:	4152      	adcs	r2, r2
 8000174:	0b83      	lsrs	r3, r0, #14
 8000176:	428b      	cmp	r3, r1
 8000178:	d301      	bcc.n	800017e <__udivsi3+0x52>
 800017a:	038b      	lsls	r3, r1, #14
 800017c:	1ac0      	subs	r0, r0, r3
 800017e:	4152      	adcs	r2, r2
 8000180:	0b43      	lsrs	r3, r0, #13
 8000182:	428b      	cmp	r3, r1
 8000184:	d301      	bcc.n	800018a <__udivsi3+0x5e>
 8000186:	034b      	lsls	r3, r1, #13
 8000188:	1ac0      	subs	r0, r0, r3
 800018a:	4152      	adcs	r2, r2
 800018c:	0b03      	lsrs	r3, r0, #12
 800018e:	428b      	cmp	r3, r1
 8000190:	d301      	bcc.n	8000196 <__udivsi3+0x6a>
 8000192:	030b      	lsls	r3, r1, #12
 8000194:	1ac0      	subs	r0, r0, r3
 8000196:	4152      	adcs	r2, r2
 8000198:	0ac3      	lsrs	r3, r0, #11
 800019a:	428b      	cmp	r3, r1
 800019c:	d301      	bcc.n	80001a2 <__udivsi3+0x76>
 800019e:	02cb      	lsls	r3, r1, #11
 80001a0:	1ac0      	subs	r0, r0, r3
 80001a2:	4152      	adcs	r2, r2
 80001a4:	0a83      	lsrs	r3, r0, #10
 80001a6:	428b      	cmp	r3, r1
 80001a8:	d301      	bcc.n	80001ae <__udivsi3+0x82>
 80001aa:	028b      	lsls	r3, r1, #10
 80001ac:	1ac0      	subs	r0, r0, r3
 80001ae:	4152      	adcs	r2, r2
 80001b0:	0a43      	lsrs	r3, r0, #9
 80001b2:	428b      	cmp	r3, r1
 80001b4:	d301      	bcc.n	80001ba <__udivsi3+0x8e>
 80001b6:	024b      	lsls	r3, r1, #9
 80001b8:	1ac0      	subs	r0, r0, r3
 80001ba:	4152      	adcs	r2, r2
 80001bc:	0a03      	lsrs	r3, r0, #8
 80001be:	428b      	cmp	r3, r1
 80001c0:	d301      	bcc.n	80001c6 <__udivsi3+0x9a>
 80001c2:	020b      	lsls	r3, r1, #8
 80001c4:	1ac0      	subs	r0, r0, r3
 80001c6:	4152      	adcs	r2, r2
 80001c8:	d2cd      	bcs.n	8000166 <__udivsi3+0x3a>
 80001ca:	09c3      	lsrs	r3, r0, #7
 80001cc:	428b      	cmp	r3, r1
 80001ce:	d301      	bcc.n	80001d4 <__udivsi3+0xa8>
 80001d0:	01cb      	lsls	r3, r1, #7
 80001d2:	1ac0      	subs	r0, r0, r3
 80001d4:	4152      	adcs	r2, r2
 80001d6:	0983      	lsrs	r3, r0, #6
 80001d8:	428b      	cmp	r3, r1
 80001da:	d301      	bcc.n	80001e0 <__udivsi3+0xb4>
 80001dc:	018b      	lsls	r3, r1, #6
 80001de:	1ac0      	subs	r0, r0, r3
 80001e0:	4152      	adcs	r2, r2
 80001e2:	0943      	lsrs	r3, r0, #5
 80001e4:	428b      	cmp	r3, r1
 80001e6:	d301      	bcc.n	80001ec <__udivsi3+0xc0>
 80001e8:	014b      	lsls	r3, r1, #5
 80001ea:	1ac0      	subs	r0, r0, r3
 80001ec:	4152      	adcs	r2, r2
 80001ee:	0903      	lsrs	r3, r0, #4
 80001f0:	428b      	cmp	r3, r1
 80001f2:	d301      	bcc.n	80001f8 <__udivsi3+0xcc>
 80001f4:	010b      	lsls	r3, r1, #4
 80001f6:	1ac0      	subs	r0, r0, r3
 80001f8:	4152      	adcs	r2, r2
 80001fa:	08c3      	lsrs	r3, r0, #3
 80001fc:	428b      	cmp	r3, r1
 80001fe:	d301      	bcc.n	8000204 <__udivsi3+0xd8>
 8000200:	00cb      	lsls	r3, r1, #3
 8000202:	1ac0      	subs	r0, r0, r3
 8000204:	4152      	adcs	r2, r2
 8000206:	0883      	lsrs	r3, r0, #2
 8000208:	428b      	cmp	r3, r1
 800020a:	d301      	bcc.n	8000210 <__udivsi3+0xe4>
 800020c:	008b      	lsls	r3, r1, #2
 800020e:	1ac0      	subs	r0, r0, r3
 8000210:	4152      	adcs	r2, r2
 8000212:	0843      	lsrs	r3, r0, #1
 8000214:	428b      	cmp	r3, r1
 8000216:	d301      	bcc.n	800021c <__udivsi3+0xf0>
 8000218:	004b      	lsls	r3, r1, #1
 800021a:	1ac0      	subs	r0, r0, r3
 800021c:	4152      	adcs	r2, r2
 800021e:	1a41      	subs	r1, r0, r1
 8000220:	d200      	bcs.n	8000224 <__udivsi3+0xf8>
 8000222:	4601      	mov	r1, r0
 8000224:	4152      	adcs	r2, r2
 8000226:	4610      	mov	r0, r2
 8000228:	4770      	bx	lr
 800022a:	e7ff      	b.n	800022c <__udivsi3+0x100>
 800022c:	b501      	push	{r0, lr}
 800022e:	2000      	movs	r0, #0
 8000230:	f000 f806 	bl	8000240 <__aeabi_idiv0>
 8000234:	bd02      	pop	{r1, pc}
 8000236:	46c0      	nop			; (mov r8, r8)

08000238 <__aeabi_uidivmod>:
 8000238:	2900      	cmp	r1, #0
 800023a:	d0f7      	beq.n	800022c <__udivsi3+0x100>
 800023c:	e776      	b.n	800012c <__udivsi3>
 800023e:	4770      	bx	lr

08000240 <__aeabi_idiv0>:
 8000240:	4770      	bx	lr
 8000242:	46c0      	nop			; (mov r8, r8)

08000244 <__aeabi_fmul>:
 8000244:	b5f8      	push	{r3, r4, r5, r6, r7, lr}
 8000246:	4657      	mov	r7, sl
 8000248:	464e      	mov	r6, r9
 800024a:	4645      	mov	r5, r8
 800024c:	46de      	mov	lr, fp
 800024e:	b5e0      	push	{r5, r6, r7, lr}
 8000250:	0247      	lsls	r7, r0, #9
 8000252:	0046      	lsls	r6, r0, #1
 8000254:	4688      	mov	r8, r1
 8000256:	0a7f      	lsrs	r7, r7, #9
 8000258:	0e36      	lsrs	r6, r6, #24
 800025a:	0fc4      	lsrs	r4, r0, #31
 800025c:	2e00      	cmp	r6, #0
 800025e:	d047      	beq.n	80002f0 <__aeabi_fmul+0xac>
 8000260:	2eff      	cmp	r6, #255	; 0xff
 8000262:	d024      	beq.n	80002ae <__aeabi_fmul+0x6a>
 8000264:	00fb      	lsls	r3, r7, #3
 8000266:	2780      	movs	r7, #128	; 0x80
 8000268:	04ff      	lsls	r7, r7, #19
 800026a:	431f      	orrs	r7, r3
 800026c:	2300      	movs	r3, #0
 800026e:	4699      	mov	r9, r3
 8000270:	469a      	mov	sl, r3
 8000272:	3e7f      	subs	r6, #127	; 0x7f
 8000274:	4643      	mov	r3, r8
 8000276:	025d      	lsls	r5, r3, #9
 8000278:	0058      	lsls	r0, r3, #1
 800027a:	0fdb      	lsrs	r3, r3, #31
 800027c:	0a6d      	lsrs	r5, r5, #9
 800027e:	0e00      	lsrs	r0, r0, #24
 8000280:	4698      	mov	r8, r3
 8000282:	d043      	beq.n	800030c <__aeabi_fmul+0xc8>
 8000284:	28ff      	cmp	r0, #255	; 0xff
 8000286:	d03b      	beq.n	8000300 <__aeabi_fmul+0xbc>
 8000288:	00eb      	lsls	r3, r5, #3
 800028a:	2580      	movs	r5, #128	; 0x80
 800028c:	2200      	movs	r2, #0
 800028e:	04ed      	lsls	r5, r5, #19
 8000290:	431d      	orrs	r5, r3
 8000292:	387f      	subs	r0, #127	; 0x7f
 8000294:	1836      	adds	r6, r6, r0
 8000296:	1c73      	adds	r3, r6, #1
 8000298:	4641      	mov	r1, r8
 800029a:	469b      	mov	fp, r3
 800029c:	464b      	mov	r3, r9
 800029e:	4061      	eors	r1, r4
 80002a0:	4313      	orrs	r3, r2
 80002a2:	2b0f      	cmp	r3, #15
 80002a4:	d864      	bhi.n	8000370 <__aeabi_fmul+0x12c>
 80002a6:	4875      	ldr	r0, [pc, #468]	; (800047c <__aeabi_fmul+0x238>)
 80002a8:	009b      	lsls	r3, r3, #2
 80002aa:	58c3      	ldr	r3, [r0, r3]
 80002ac:	469f      	mov	pc, r3
 80002ae:	2f00      	cmp	r7, #0
 80002b0:	d142      	bne.n	8000338 <__aeabi_fmul+0xf4>
 80002b2:	2308      	movs	r3, #8
 80002b4:	4699      	mov	r9, r3
 80002b6:	3b06      	subs	r3, #6
 80002b8:	26ff      	movs	r6, #255	; 0xff
 80002ba:	469a      	mov	sl, r3
 80002bc:	e7da      	b.n	8000274 <__aeabi_fmul+0x30>
 80002be:	4641      	mov	r1, r8
 80002c0:	2a02      	cmp	r2, #2
 80002c2:	d028      	beq.n	8000316 <__aeabi_fmul+0xd2>
 80002c4:	2a03      	cmp	r2, #3
 80002c6:	d100      	bne.n	80002ca <__aeabi_fmul+0x86>
 80002c8:	e0ce      	b.n	8000468 <__aeabi_fmul+0x224>
 80002ca:	2a01      	cmp	r2, #1
 80002cc:	d000      	beq.n	80002d0 <__aeabi_fmul+0x8c>
 80002ce:	e0ac      	b.n	800042a <__aeabi_fmul+0x1e6>
 80002d0:	4011      	ands	r1, r2
 80002d2:	2000      	movs	r0, #0
 80002d4:	2200      	movs	r2, #0
 80002d6:	b2cc      	uxtb	r4, r1
 80002d8:	0240      	lsls	r0, r0, #9
 80002da:	05d2      	lsls	r2, r2, #23
 80002dc:	0a40      	lsrs	r0, r0, #9
 80002de:	07e4      	lsls	r4, r4, #31
 80002e0:	4310      	orrs	r0, r2
 80002e2:	4320      	orrs	r0, r4
 80002e4:	bc3c      	pop	{r2, r3, r4, r5}
 80002e6:	4690      	mov	r8, r2
 80002e8:	4699      	mov	r9, r3
 80002ea:	46a2      	mov	sl, r4
 80002ec:	46ab      	mov	fp, r5
 80002ee:	bdf8      	pop	{r3, r4, r5, r6, r7, pc}
 80002f0:	2f00      	cmp	r7, #0
 80002f2:	d115      	bne.n	8000320 <__aeabi_fmul+0xdc>
 80002f4:	2304      	movs	r3, #4
 80002f6:	4699      	mov	r9, r3
 80002f8:	3b03      	subs	r3, #3
 80002fa:	2600      	movs	r6, #0
 80002fc:	469a      	mov	sl, r3
 80002fe:	e7b9      	b.n	8000274 <__aeabi_fmul+0x30>
 8000300:	20ff      	movs	r0, #255	; 0xff
 8000302:	2202      	movs	r2, #2
 8000304:	2d00      	cmp	r5, #0
 8000306:	d0c5      	beq.n	8000294 <__aeabi_fmul+0x50>
 8000308:	2203      	movs	r2, #3
 800030a:	e7c3      	b.n	8000294 <__aeabi_fmul+0x50>
 800030c:	2d00      	cmp	r5, #0
 800030e:	d119      	bne.n	8000344 <__aeabi_fmul+0x100>
 8000310:	2000      	movs	r0, #0
 8000312:	2201      	movs	r2, #1
 8000314:	e7be      	b.n	8000294 <__aeabi_fmul+0x50>
 8000316:	2401      	movs	r4, #1
 8000318:	22ff      	movs	r2, #255	; 0xff
 800031a:	400c      	ands	r4, r1
 800031c:	2000      	movs	r0, #0
 800031e:	e7db      	b.n	80002d8 <__aeabi_fmul+0x94>
 8000320:	0038      	movs	r0, r7
 8000322:	f000 fc13 	bl	8000b4c <__clzsi2>
 8000326:	2676      	movs	r6, #118	; 0x76
 8000328:	1f43      	subs	r3, r0, #5
 800032a:	409f      	lsls	r7, r3
 800032c:	2300      	movs	r3, #0
 800032e:	4276      	negs	r6, r6
 8000330:	1a36      	subs	r6, r6, r0
 8000332:	4699      	mov	r9, r3
 8000334:	469a      	mov	sl, r3
 8000336:	e79d      	b.n	8000274 <__aeabi_fmul+0x30>
 8000338:	230c      	movs	r3, #12
 800033a:	4699      	mov	r9, r3
 800033c:	3b09      	subs	r3, #9
 800033e:	26ff      	movs	r6, #255	; 0xff
 8000340:	469a      	mov	sl, r3
 8000342:	e797      	b.n	8000274 <__aeabi_fmul+0x30>
 8000344:	0028      	movs	r0, r5
 8000346:	f000 fc01 	bl	8000b4c <__clzsi2>
 800034a:	1f43      	subs	r3, r0, #5
 800034c:	409d      	lsls	r5, r3
 800034e:	2376      	movs	r3, #118	; 0x76
 8000350:	425b      	negs	r3, r3
 8000352:	1a18      	subs	r0, r3, r0
 8000354:	2200      	movs	r2, #0
 8000356:	e79d      	b.n	8000294 <__aeabi_fmul+0x50>
 8000358:	2080      	movs	r0, #128	; 0x80
 800035a:	2400      	movs	r4, #0
 800035c:	03c0      	lsls	r0, r0, #15
 800035e:	22ff      	movs	r2, #255	; 0xff
 8000360:	e7ba      	b.n	80002d8 <__aeabi_fmul+0x94>
 8000362:	003d      	movs	r5, r7
 8000364:	4652      	mov	r2, sl
 8000366:	e7ab      	b.n	80002c0 <__aeabi_fmul+0x7c>
 8000368:	003d      	movs	r5, r7
 800036a:	0021      	movs	r1, r4
 800036c:	4652      	mov	r2, sl
 800036e:	e7a7      	b.n	80002c0 <__aeabi_fmul+0x7c>
 8000370:	0c3b      	lsrs	r3, r7, #16
 8000372:	469c      	mov	ip, r3
 8000374:	042a      	lsls	r2, r5, #16
 8000376:	0c12      	lsrs	r2, r2, #16
 8000378:	0c2b      	lsrs	r3, r5, #16
 800037a:	0014      	movs	r4, r2
 800037c:	4660      	mov	r0, ip
 800037e:	4665      	mov	r5, ip
 8000380:	043f      	lsls	r7, r7, #16
 8000382:	0c3f      	lsrs	r7, r7, #16
 8000384:	437c      	muls	r4, r7
 8000386:	4342      	muls	r2, r0
 8000388:	435d      	muls	r5, r3
 800038a:	437b      	muls	r3, r7
 800038c:	0c27      	lsrs	r7, r4, #16
 800038e:	189b      	adds	r3, r3, r2
 8000390:	18ff      	adds	r7, r7, r3
 8000392:	42ba      	cmp	r2, r7
 8000394:	d903      	bls.n	800039e <__aeabi_fmul+0x15a>
 8000396:	2380      	movs	r3, #128	; 0x80
 8000398:	025b      	lsls	r3, r3, #9
 800039a:	469c      	mov	ip, r3
 800039c:	4465      	add	r5, ip
 800039e:	0424      	lsls	r4, r4, #16
 80003a0:	043a      	lsls	r2, r7, #16
 80003a2:	0c24      	lsrs	r4, r4, #16
 80003a4:	1912      	adds	r2, r2, r4
 80003a6:	0193      	lsls	r3, r2, #6
 80003a8:	1e5c      	subs	r4, r3, #1
 80003aa:	41a3      	sbcs	r3, r4
 80003ac:	0c3f      	lsrs	r7, r7, #16
 80003ae:	0e92      	lsrs	r2, r2, #26
 80003b0:	197d      	adds	r5, r7, r5
 80003b2:	431a      	orrs	r2, r3
 80003b4:	01ad      	lsls	r5, r5, #6
 80003b6:	4315      	orrs	r5, r2
 80003b8:	012b      	lsls	r3, r5, #4
 80003ba:	d504      	bpl.n	80003c6 <__aeabi_fmul+0x182>
 80003bc:	2301      	movs	r3, #1
 80003be:	465e      	mov	r6, fp
 80003c0:	086a      	lsrs	r2, r5, #1
 80003c2:	401d      	ands	r5, r3
 80003c4:	4315      	orrs	r5, r2
 80003c6:	0032      	movs	r2, r6
 80003c8:	327f      	adds	r2, #127	; 0x7f
 80003ca:	2a00      	cmp	r2, #0
 80003cc:	dd25      	ble.n	800041a <__aeabi_fmul+0x1d6>
 80003ce:	076b      	lsls	r3, r5, #29
 80003d0:	d004      	beq.n	80003dc <__aeabi_fmul+0x198>
 80003d2:	230f      	movs	r3, #15
 80003d4:	402b      	ands	r3, r5
 80003d6:	2b04      	cmp	r3, #4
 80003d8:	d000      	beq.n	80003dc <__aeabi_fmul+0x198>
 80003da:	3504      	adds	r5, #4
 80003dc:	012b      	lsls	r3, r5, #4
 80003de:	d503      	bpl.n	80003e8 <__aeabi_fmul+0x1a4>
 80003e0:	0032      	movs	r2, r6
 80003e2:	4b27      	ldr	r3, [pc, #156]	; (8000480 <__aeabi_fmul+0x23c>)
 80003e4:	3280      	adds	r2, #128	; 0x80
 80003e6:	401d      	ands	r5, r3
 80003e8:	2afe      	cmp	r2, #254	; 0xfe
 80003ea:	dc94      	bgt.n	8000316 <__aeabi_fmul+0xd2>
 80003ec:	2401      	movs	r4, #1
 80003ee:	01a8      	lsls	r0, r5, #6
 80003f0:	0a40      	lsrs	r0, r0, #9
 80003f2:	b2d2      	uxtb	r2, r2
 80003f4:	400c      	ands	r4, r1
 80003f6:	e76f      	b.n	80002d8 <__aeabi_fmul+0x94>
 80003f8:	2080      	movs	r0, #128	; 0x80
 80003fa:	03c0      	lsls	r0, r0, #15
 80003fc:	4207      	tst	r7, r0
 80003fe:	d007      	beq.n	8000410 <__aeabi_fmul+0x1cc>
 8000400:	4205      	tst	r5, r0
 8000402:	d105      	bne.n	8000410 <__aeabi_fmul+0x1cc>
 8000404:	4328      	orrs	r0, r5
 8000406:	0240      	lsls	r0, r0, #9
 8000408:	0a40      	lsrs	r0, r0, #9
 800040a:	4644      	mov	r4, r8
 800040c:	22ff      	movs	r2, #255	; 0xff
 800040e:	e763      	b.n	80002d8 <__aeabi_fmul+0x94>
 8000410:	4338      	orrs	r0, r7
 8000412:	0240      	lsls	r0, r0, #9
 8000414:	0a40      	lsrs	r0, r0, #9
 8000416:	22ff      	movs	r2, #255	; 0xff
 8000418:	e75e      	b.n	80002d8 <__aeabi_fmul+0x94>
 800041a:	2401      	movs	r4, #1
 800041c:	1aa3      	subs	r3, r4, r2
 800041e:	2b1b      	cmp	r3, #27
 8000420:	dd05      	ble.n	800042e <__aeabi_fmul+0x1ea>
 8000422:	400c      	ands	r4, r1
 8000424:	2200      	movs	r2, #0
 8000426:	2000      	movs	r0, #0
 8000428:	e756      	b.n	80002d8 <__aeabi_fmul+0x94>
 800042a:	465e      	mov	r6, fp
 800042c:	e7cb      	b.n	80003c6 <__aeabi_fmul+0x182>
 800042e:	002a      	movs	r2, r5
 8000430:	2020      	movs	r0, #32
 8000432:	40da      	lsrs	r2, r3
 8000434:	1ac3      	subs	r3, r0, r3
 8000436:	409d      	lsls	r5, r3
 8000438:	002b      	movs	r3, r5
 800043a:	1e5d      	subs	r5, r3, #1
 800043c:	41ab      	sbcs	r3, r5
 800043e:	4313      	orrs	r3, r2
 8000440:	075a      	lsls	r2, r3, #29
 8000442:	d004      	beq.n	800044e <__aeabi_fmul+0x20a>
 8000444:	220f      	movs	r2, #15
 8000446:	401a      	ands	r2, r3
 8000448:	2a04      	cmp	r2, #4
 800044a:	d000      	beq.n	800044e <__aeabi_fmul+0x20a>
 800044c:	3304      	adds	r3, #4
 800044e:	015a      	lsls	r2, r3, #5
 8000450:	d504      	bpl.n	800045c <__aeabi_fmul+0x218>
 8000452:	2401      	movs	r4, #1
 8000454:	2201      	movs	r2, #1
 8000456:	400c      	ands	r4, r1
 8000458:	2000      	movs	r0, #0
 800045a:	e73d      	b.n	80002d8 <__aeabi_fmul+0x94>
 800045c:	2401      	movs	r4, #1
 800045e:	019b      	lsls	r3, r3, #6
 8000460:	0a58      	lsrs	r0, r3, #9
 8000462:	400c      	ands	r4, r1
 8000464:	2200      	movs	r2, #0
 8000466:	e737      	b.n	80002d8 <__aeabi_fmul+0x94>
 8000468:	2080      	movs	r0, #128	; 0x80
 800046a:	2401      	movs	r4, #1
 800046c:	03c0      	lsls	r0, r0, #15
 800046e:	4328      	orrs	r0, r5
 8000470:	0240      	lsls	r0, r0, #9
 8000472:	0a40      	lsrs	r0, r0, #9
 8000474:	400c      	ands	r4, r1
 8000476:	22ff      	movs	r2, #255	; 0xff
 8000478:	e72e      	b.n	80002d8 <__aeabi_fmul+0x94>
 800047a:	46c0      	nop			; (mov r8, r8)
 800047c:	08003fac 	.word	0x08003fac
 8000480:	f7ffffff 	.word	0xf7ffffff

08000484 <__aeabi_i2f>:
 8000484:	b570      	push	{r4, r5, r6, lr}
 8000486:	2800      	cmp	r0, #0
 8000488:	d030      	beq.n	80004ec <__aeabi_i2f+0x68>
 800048a:	17c3      	asrs	r3, r0, #31
 800048c:	18c4      	adds	r4, r0, r3
 800048e:	405c      	eors	r4, r3
 8000490:	0fc5      	lsrs	r5, r0, #31
 8000492:	0020      	movs	r0, r4
 8000494:	f000 fb5a 	bl	8000b4c <__clzsi2>
 8000498:	239e      	movs	r3, #158	; 0x9e
 800049a:	1a1b      	subs	r3, r3, r0
 800049c:	2b96      	cmp	r3, #150	; 0x96
 800049e:	dc0d      	bgt.n	80004bc <__aeabi_i2f+0x38>
 80004a0:	2296      	movs	r2, #150	; 0x96
 80004a2:	1ad2      	subs	r2, r2, r3
 80004a4:	4094      	lsls	r4, r2
 80004a6:	002a      	movs	r2, r5
 80004a8:	0264      	lsls	r4, r4, #9
 80004aa:	0a64      	lsrs	r4, r4, #9
 80004ac:	b2db      	uxtb	r3, r3
 80004ae:	0264      	lsls	r4, r4, #9
 80004b0:	05db      	lsls	r3, r3, #23
 80004b2:	0a60      	lsrs	r0, r4, #9
 80004b4:	07d2      	lsls	r2, r2, #31
 80004b6:	4318      	orrs	r0, r3
 80004b8:	4310      	orrs	r0, r2
 80004ba:	bd70      	pop	{r4, r5, r6, pc}
 80004bc:	2b99      	cmp	r3, #153	; 0x99
 80004be:	dc19      	bgt.n	80004f4 <__aeabi_i2f+0x70>
 80004c0:	2299      	movs	r2, #153	; 0x99
 80004c2:	1ad2      	subs	r2, r2, r3
 80004c4:	2a00      	cmp	r2, #0
 80004c6:	dd29      	ble.n	800051c <__aeabi_i2f+0x98>
 80004c8:	4094      	lsls	r4, r2
 80004ca:	0022      	movs	r2, r4
 80004cc:	4c14      	ldr	r4, [pc, #80]	; (8000520 <__aeabi_i2f+0x9c>)
 80004ce:	4014      	ands	r4, r2
 80004d0:	0751      	lsls	r1, r2, #29
 80004d2:	d004      	beq.n	80004de <__aeabi_i2f+0x5a>
 80004d4:	210f      	movs	r1, #15
 80004d6:	400a      	ands	r2, r1
 80004d8:	2a04      	cmp	r2, #4
 80004da:	d000      	beq.n	80004de <__aeabi_i2f+0x5a>
 80004dc:	3404      	adds	r4, #4
 80004de:	0162      	lsls	r2, r4, #5
 80004e0:	d413      	bmi.n	800050a <__aeabi_i2f+0x86>
 80004e2:	01a4      	lsls	r4, r4, #6
 80004e4:	0a64      	lsrs	r4, r4, #9
 80004e6:	b2db      	uxtb	r3, r3
 80004e8:	002a      	movs	r2, r5
 80004ea:	e7e0      	b.n	80004ae <__aeabi_i2f+0x2a>
 80004ec:	2200      	movs	r2, #0
 80004ee:	2300      	movs	r3, #0
 80004f0:	2400      	movs	r4, #0
 80004f2:	e7dc      	b.n	80004ae <__aeabi_i2f+0x2a>
 80004f4:	2205      	movs	r2, #5
 80004f6:	0021      	movs	r1, r4
 80004f8:	1a12      	subs	r2, r2, r0
 80004fa:	40d1      	lsrs	r1, r2
 80004fc:	22b9      	movs	r2, #185	; 0xb9
 80004fe:	1ad2      	subs	r2, r2, r3
 8000500:	4094      	lsls	r4, r2
 8000502:	1e62      	subs	r2, r4, #1
 8000504:	4194      	sbcs	r4, r2
 8000506:	430c      	orrs	r4, r1
 8000508:	e7da      	b.n	80004c0 <__aeabi_i2f+0x3c>
 800050a:	4b05      	ldr	r3, [pc, #20]	; (8000520 <__aeabi_i2f+0x9c>)
 800050c:	002a      	movs	r2, r5
 800050e:	401c      	ands	r4, r3
 8000510:	239f      	movs	r3, #159	; 0x9f
 8000512:	01a4      	lsls	r4, r4, #6
 8000514:	1a1b      	subs	r3, r3, r0
 8000516:	0a64      	lsrs	r4, r4, #9
 8000518:	b2db      	uxtb	r3, r3
 800051a:	e7c8      	b.n	80004ae <__aeabi_i2f+0x2a>
 800051c:	0022      	movs	r2, r4
 800051e:	e7d5      	b.n	80004cc <__aeabi_i2f+0x48>
 8000520:	fbffffff 	.word	0xfbffffff

08000524 <__aeabi_dmul>:
 8000524:	b5f0      	push	{r4, r5, r6, r7, lr}
 8000526:	4657      	mov	r7, sl
 8000528:	4645      	mov	r5, r8
 800052a:	46de      	mov	lr, fp
 800052c:	464e      	mov	r6, r9
 800052e:	b5e0      	push	{r5, r6, r7, lr}
 8000530:	030c      	lsls	r4, r1, #12
 8000532:	4698      	mov	r8, r3
 8000534:	004e      	lsls	r6, r1, #1
 8000536:	0b23      	lsrs	r3, r4, #12
 8000538:	b087      	sub	sp, #28
 800053a:	0007      	movs	r7, r0
 800053c:	4692      	mov	sl, r2
 800053e:	469b      	mov	fp, r3
 8000540:	0d76      	lsrs	r6, r6, #21
 8000542:	0fcd      	lsrs	r5, r1, #31
 8000544:	2e00      	cmp	r6, #0
 8000546:	d06b      	beq.n	8000620 <__aeabi_dmul+0xfc>
 8000548:	4b6d      	ldr	r3, [pc, #436]	; (8000700 <__aeabi_dmul+0x1dc>)
 800054a:	429e      	cmp	r6, r3
 800054c:	d035      	beq.n	80005ba <__aeabi_dmul+0x96>
 800054e:	2480      	movs	r4, #128	; 0x80
 8000550:	465b      	mov	r3, fp
 8000552:	0f42      	lsrs	r2, r0, #29
 8000554:	0424      	lsls	r4, r4, #16
 8000556:	00db      	lsls	r3, r3, #3
 8000558:	4314      	orrs	r4, r2
 800055a:	431c      	orrs	r4, r3
 800055c:	00c3      	lsls	r3, r0, #3
 800055e:	4699      	mov	r9, r3
 8000560:	4b68      	ldr	r3, [pc, #416]	; (8000704 <__aeabi_dmul+0x1e0>)
 8000562:	46a3      	mov	fp, r4
 8000564:	469c      	mov	ip, r3
 8000566:	2300      	movs	r3, #0
 8000568:	2700      	movs	r7, #0
 800056a:	4466      	add	r6, ip
 800056c:	9302      	str	r3, [sp, #8]
 800056e:	4643      	mov	r3, r8
 8000570:	031c      	lsls	r4, r3, #12
 8000572:	005a      	lsls	r2, r3, #1
 8000574:	0fdb      	lsrs	r3, r3, #31
 8000576:	4650      	mov	r0, sl
 8000578:	0b24      	lsrs	r4, r4, #12
 800057a:	0d52      	lsrs	r2, r2, #21
 800057c:	4698      	mov	r8, r3
 800057e:	d100      	bne.n	8000582 <__aeabi_dmul+0x5e>
 8000580:	e076      	b.n	8000670 <__aeabi_dmul+0x14c>
 8000582:	4b5f      	ldr	r3, [pc, #380]	; (8000700 <__aeabi_dmul+0x1dc>)
 8000584:	429a      	cmp	r2, r3
 8000586:	d06d      	beq.n	8000664 <__aeabi_dmul+0x140>
 8000588:	2380      	movs	r3, #128	; 0x80
 800058a:	0f41      	lsrs	r1, r0, #29
 800058c:	041b      	lsls	r3, r3, #16
 800058e:	430b      	orrs	r3, r1
 8000590:	495c      	ldr	r1, [pc, #368]	; (8000704 <__aeabi_dmul+0x1e0>)
 8000592:	00e4      	lsls	r4, r4, #3
 8000594:	468c      	mov	ip, r1
 8000596:	431c      	orrs	r4, r3
 8000598:	00c3      	lsls	r3, r0, #3
 800059a:	2000      	movs	r0, #0
 800059c:	4462      	add	r2, ip
 800059e:	4641      	mov	r1, r8
 80005a0:	18b6      	adds	r6, r6, r2
 80005a2:	4069      	eors	r1, r5
 80005a4:	1c72      	adds	r2, r6, #1
 80005a6:	9101      	str	r1, [sp, #4]
 80005a8:	4694      	mov	ip, r2
 80005aa:	4307      	orrs	r7, r0
 80005ac:	2f0f      	cmp	r7, #15
 80005ae:	d900      	bls.n	80005b2 <__aeabi_dmul+0x8e>
 80005b0:	e0b0      	b.n	8000714 <__aeabi_dmul+0x1f0>
 80005b2:	4a55      	ldr	r2, [pc, #340]	; (8000708 <__aeabi_dmul+0x1e4>)
 80005b4:	00bf      	lsls	r7, r7, #2
 80005b6:	59d2      	ldr	r2, [r2, r7]
 80005b8:	4697      	mov	pc, r2
 80005ba:	465b      	mov	r3, fp
 80005bc:	4303      	orrs	r3, r0
 80005be:	4699      	mov	r9, r3
 80005c0:	d000      	beq.n	80005c4 <__aeabi_dmul+0xa0>
 80005c2:	e087      	b.n	80006d4 <__aeabi_dmul+0x1b0>
 80005c4:	2300      	movs	r3, #0
 80005c6:	469b      	mov	fp, r3
 80005c8:	3302      	adds	r3, #2
 80005ca:	2708      	movs	r7, #8
 80005cc:	9302      	str	r3, [sp, #8]
 80005ce:	e7ce      	b.n	800056e <__aeabi_dmul+0x4a>
 80005d0:	4642      	mov	r2, r8
 80005d2:	9201      	str	r2, [sp, #4]
 80005d4:	2802      	cmp	r0, #2
 80005d6:	d067      	beq.n	80006a8 <__aeabi_dmul+0x184>
 80005d8:	2803      	cmp	r0, #3
 80005da:	d100      	bne.n	80005de <__aeabi_dmul+0xba>
 80005dc:	e20e      	b.n	80009fc <__aeabi_dmul+0x4d8>
 80005de:	2801      	cmp	r0, #1
 80005e0:	d000      	beq.n	80005e4 <__aeabi_dmul+0xc0>
 80005e2:	e162      	b.n	80008aa <__aeabi_dmul+0x386>
 80005e4:	2300      	movs	r3, #0
 80005e6:	2400      	movs	r4, #0
 80005e8:	2200      	movs	r2, #0
 80005ea:	4699      	mov	r9, r3
 80005ec:	9901      	ldr	r1, [sp, #4]
 80005ee:	4001      	ands	r1, r0
 80005f0:	b2cd      	uxtb	r5, r1
 80005f2:	2100      	movs	r1, #0
 80005f4:	0312      	lsls	r2, r2, #12
 80005f6:	0d0b      	lsrs	r3, r1, #20
 80005f8:	0b12      	lsrs	r2, r2, #12
 80005fa:	051b      	lsls	r3, r3, #20
 80005fc:	4313      	orrs	r3, r2
 80005fe:	4a43      	ldr	r2, [pc, #268]	; (800070c <__aeabi_dmul+0x1e8>)
 8000600:	0524      	lsls	r4, r4, #20
 8000602:	4013      	ands	r3, r2
 8000604:	431c      	orrs	r4, r3
 8000606:	0064      	lsls	r4, r4, #1
 8000608:	07ed      	lsls	r5, r5, #31
 800060a:	0864      	lsrs	r4, r4, #1
 800060c:	432c      	orrs	r4, r5
 800060e:	4648      	mov	r0, r9
 8000610:	0021      	movs	r1, r4
 8000612:	b007      	add	sp, #28
 8000614:	bc3c      	pop	{r2, r3, r4, r5}
 8000616:	4690      	mov	r8, r2
 8000618:	4699      	mov	r9, r3
 800061a:	46a2      	mov	sl, r4
 800061c:	46ab      	mov	fp, r5
 800061e:	bdf0      	pop	{r4, r5, r6, r7, pc}
 8000620:	4303      	orrs	r3, r0
 8000622:	4699      	mov	r9, r3
 8000624:	d04f      	beq.n	80006c6 <__aeabi_dmul+0x1a2>
 8000626:	465b      	mov	r3, fp
 8000628:	2b00      	cmp	r3, #0
 800062a:	d100      	bne.n	800062e <__aeabi_dmul+0x10a>
 800062c:	e189      	b.n	8000942 <__aeabi_dmul+0x41e>
 800062e:	4658      	mov	r0, fp
 8000630:	f000 fa8c 	bl	8000b4c <__clzsi2>
 8000634:	0003      	movs	r3, r0
 8000636:	3b0b      	subs	r3, #11
 8000638:	2b1c      	cmp	r3, #28
 800063a:	dd00      	ble.n	800063e <__aeabi_dmul+0x11a>
 800063c:	e17a      	b.n	8000934 <__aeabi_dmul+0x410>
 800063e:	221d      	movs	r2, #29
 8000640:	1ad3      	subs	r3, r2, r3
 8000642:	003a      	movs	r2, r7
 8000644:	0001      	movs	r1, r0
 8000646:	465c      	mov	r4, fp
 8000648:	40da      	lsrs	r2, r3
 800064a:	3908      	subs	r1, #8
 800064c:	408c      	lsls	r4, r1
 800064e:	0013      	movs	r3, r2
 8000650:	408f      	lsls	r7, r1
 8000652:	4323      	orrs	r3, r4
 8000654:	469b      	mov	fp, r3
 8000656:	46b9      	mov	r9, r7
 8000658:	2300      	movs	r3, #0
 800065a:	4e2d      	ldr	r6, [pc, #180]	; (8000710 <__aeabi_dmul+0x1ec>)
 800065c:	2700      	movs	r7, #0
 800065e:	1a36      	subs	r6, r6, r0
 8000660:	9302      	str	r3, [sp, #8]
 8000662:	e784      	b.n	800056e <__aeabi_dmul+0x4a>
 8000664:	4653      	mov	r3, sl
 8000666:	4323      	orrs	r3, r4
 8000668:	d12a      	bne.n	80006c0 <__aeabi_dmul+0x19c>
 800066a:	2400      	movs	r4, #0
 800066c:	2002      	movs	r0, #2
 800066e:	e796      	b.n	800059e <__aeabi_dmul+0x7a>
 8000670:	4653      	mov	r3, sl
 8000672:	4323      	orrs	r3, r4
 8000674:	d020      	beq.n	80006b8 <__aeabi_dmul+0x194>
 8000676:	2c00      	cmp	r4, #0
 8000678:	d100      	bne.n	800067c <__aeabi_dmul+0x158>
 800067a:	e157      	b.n	800092c <__aeabi_dmul+0x408>
 800067c:	0020      	movs	r0, r4
 800067e:	f000 fa65 	bl	8000b4c <__clzsi2>
 8000682:	0003      	movs	r3, r0
 8000684:	3b0b      	subs	r3, #11
 8000686:	2b1c      	cmp	r3, #28
 8000688:	dd00      	ble.n	800068c <__aeabi_dmul+0x168>
 800068a:	e149      	b.n	8000920 <__aeabi_dmul+0x3fc>
 800068c:	211d      	movs	r1, #29
 800068e:	1acb      	subs	r3, r1, r3
 8000690:	4651      	mov	r1, sl
 8000692:	0002      	movs	r2, r0
 8000694:	40d9      	lsrs	r1, r3
 8000696:	4653      	mov	r3, sl
 8000698:	3a08      	subs	r2, #8
 800069a:	4094      	lsls	r4, r2
 800069c:	4093      	lsls	r3, r2
 800069e:	430c      	orrs	r4, r1
 80006a0:	4a1b      	ldr	r2, [pc, #108]	; (8000710 <__aeabi_dmul+0x1ec>)
 80006a2:	1a12      	subs	r2, r2, r0
 80006a4:	2000      	movs	r0, #0
 80006a6:	e77a      	b.n	800059e <__aeabi_dmul+0x7a>
 80006a8:	2501      	movs	r5, #1
 80006aa:	9b01      	ldr	r3, [sp, #4]
 80006ac:	4c14      	ldr	r4, [pc, #80]	; (8000700 <__aeabi_dmul+0x1dc>)
 80006ae:	401d      	ands	r5, r3
 80006b0:	2300      	movs	r3, #0
 80006b2:	2200      	movs	r2, #0
 80006b4:	4699      	mov	r9, r3
 80006b6:	e79c      	b.n	80005f2 <__aeabi_dmul+0xce>
 80006b8:	2400      	movs	r4, #0
 80006ba:	2200      	movs	r2, #0
 80006bc:	2001      	movs	r0, #1
 80006be:	e76e      	b.n	800059e <__aeabi_dmul+0x7a>
 80006c0:	4653      	mov	r3, sl
 80006c2:	2003      	movs	r0, #3
 80006c4:	e76b      	b.n	800059e <__aeabi_dmul+0x7a>
 80006c6:	2300      	movs	r3, #0
 80006c8:	469b      	mov	fp, r3
 80006ca:	3301      	adds	r3, #1
 80006cc:	2704      	movs	r7, #4
 80006ce:	2600      	movs	r6, #0
 80006d0:	9302      	str	r3, [sp, #8]
 80006d2:	e74c      	b.n	800056e <__aeabi_dmul+0x4a>
 80006d4:	2303      	movs	r3, #3
 80006d6:	4681      	mov	r9, r0
 80006d8:	270c      	movs	r7, #12
 80006da:	9302      	str	r3, [sp, #8]
 80006dc:	e747      	b.n	800056e <__aeabi_dmul+0x4a>
 80006de:	2280      	movs	r2, #128	; 0x80
 80006e0:	2300      	movs	r3, #0
 80006e2:	2500      	movs	r5, #0
 80006e4:	0312      	lsls	r2, r2, #12
 80006e6:	4699      	mov	r9, r3
 80006e8:	4c05      	ldr	r4, [pc, #20]	; (8000700 <__aeabi_dmul+0x1dc>)
 80006ea:	e782      	b.n	80005f2 <__aeabi_dmul+0xce>
 80006ec:	465c      	mov	r4, fp
 80006ee:	464b      	mov	r3, r9
 80006f0:	9802      	ldr	r0, [sp, #8]
 80006f2:	e76f      	b.n	80005d4 <__aeabi_dmul+0xb0>
 80006f4:	465c      	mov	r4, fp
 80006f6:	464b      	mov	r3, r9
 80006f8:	9501      	str	r5, [sp, #4]
 80006fa:	9802      	ldr	r0, [sp, #8]
 80006fc:	e76a      	b.n	80005d4 <__aeabi_dmul+0xb0>
 80006fe:	46c0      	nop			; (mov r8, r8)
 8000700:	000007ff 	.word	0x000007ff
 8000704:	fffffc01 	.word	0xfffffc01
 8000708:	08003fec 	.word	0x08003fec
 800070c:	800fffff 	.word	0x800fffff
 8000710:	fffffc0d 	.word	0xfffffc0d
 8000714:	464a      	mov	r2, r9
 8000716:	4649      	mov	r1, r9
 8000718:	0c17      	lsrs	r7, r2, #16
 800071a:	0c1a      	lsrs	r2, r3, #16
 800071c:	041b      	lsls	r3, r3, #16
 800071e:	0c1b      	lsrs	r3, r3, #16
 8000720:	0408      	lsls	r0, r1, #16
 8000722:	0019      	movs	r1, r3
 8000724:	0c00      	lsrs	r0, r0, #16
 8000726:	4341      	muls	r1, r0
 8000728:	0015      	movs	r5, r2
 800072a:	4688      	mov	r8, r1
 800072c:	0019      	movs	r1, r3
 800072e:	437d      	muls	r5, r7
 8000730:	4379      	muls	r1, r7
 8000732:	9503      	str	r5, [sp, #12]
 8000734:	4689      	mov	r9, r1
 8000736:	0029      	movs	r1, r5
 8000738:	0015      	movs	r5, r2
 800073a:	4345      	muls	r5, r0
 800073c:	444d      	add	r5, r9
 800073e:	9502      	str	r5, [sp, #8]
 8000740:	4645      	mov	r5, r8
 8000742:	0c2d      	lsrs	r5, r5, #16
 8000744:	46aa      	mov	sl, r5
 8000746:	9d02      	ldr	r5, [sp, #8]
 8000748:	4455      	add	r5, sl
 800074a:	45a9      	cmp	r9, r5
 800074c:	d906      	bls.n	800075c <__aeabi_dmul+0x238>
 800074e:	468a      	mov	sl, r1
 8000750:	2180      	movs	r1, #128	; 0x80
 8000752:	0249      	lsls	r1, r1, #9
 8000754:	4689      	mov	r9, r1
 8000756:	44ca      	add	sl, r9
 8000758:	4651      	mov	r1, sl
 800075a:	9103      	str	r1, [sp, #12]
 800075c:	0c29      	lsrs	r1, r5, #16
 800075e:	9104      	str	r1, [sp, #16]
 8000760:	4641      	mov	r1, r8
 8000762:	0409      	lsls	r1, r1, #16
 8000764:	042d      	lsls	r5, r5, #16
 8000766:	0c09      	lsrs	r1, r1, #16
 8000768:	4688      	mov	r8, r1
 800076a:	0029      	movs	r1, r5
 800076c:	0c25      	lsrs	r5, r4, #16
 800076e:	0424      	lsls	r4, r4, #16
 8000770:	4441      	add	r1, r8
 8000772:	0c24      	lsrs	r4, r4, #16
 8000774:	9105      	str	r1, [sp, #20]
 8000776:	0021      	movs	r1, r4
 8000778:	4341      	muls	r1, r0
 800077a:	4688      	mov	r8, r1
 800077c:	0021      	movs	r1, r4
 800077e:	4379      	muls	r1, r7
 8000780:	468a      	mov	sl, r1
 8000782:	4368      	muls	r0, r5
 8000784:	4641      	mov	r1, r8
 8000786:	4450      	add	r0, sl
 8000788:	4681      	mov	r9, r0
 800078a:	0c08      	lsrs	r0, r1, #16
 800078c:	4448      	add	r0, r9
 800078e:	436f      	muls	r7, r5
 8000790:	4582      	cmp	sl, r0
 8000792:	d903      	bls.n	800079c <__aeabi_dmul+0x278>
 8000794:	2180      	movs	r1, #128	; 0x80
 8000796:	0249      	lsls	r1, r1, #9
 8000798:	4689      	mov	r9, r1
 800079a:	444f      	add	r7, r9
 800079c:	0c01      	lsrs	r1, r0, #16
 800079e:	4689      	mov	r9, r1
 80007a0:	0039      	movs	r1, r7
 80007a2:	4449      	add	r1, r9
 80007a4:	9102      	str	r1, [sp, #8]
 80007a6:	4641      	mov	r1, r8
 80007a8:	040f      	lsls	r7, r1, #16
 80007aa:	9904      	ldr	r1, [sp, #16]
 80007ac:	0c3f      	lsrs	r7, r7, #16
 80007ae:	4688      	mov	r8, r1
 80007b0:	0400      	lsls	r0, r0, #16
 80007b2:	19c0      	adds	r0, r0, r7
 80007b4:	4480      	add	r8, r0
 80007b6:	4641      	mov	r1, r8
 80007b8:	9104      	str	r1, [sp, #16]
 80007ba:	4659      	mov	r1, fp
 80007bc:	0c0f      	lsrs	r7, r1, #16
 80007be:	0409      	lsls	r1, r1, #16
 80007c0:	0c09      	lsrs	r1, r1, #16
 80007c2:	4688      	mov	r8, r1
 80007c4:	4359      	muls	r1, r3
 80007c6:	468a      	mov	sl, r1
 80007c8:	0039      	movs	r1, r7
 80007ca:	4351      	muls	r1, r2
 80007cc:	4689      	mov	r9, r1
 80007ce:	4641      	mov	r1, r8
 80007d0:	434a      	muls	r2, r1
 80007d2:	4651      	mov	r1, sl
 80007d4:	0c09      	lsrs	r1, r1, #16
 80007d6:	468b      	mov	fp, r1
 80007d8:	437b      	muls	r3, r7
 80007da:	18d2      	adds	r2, r2, r3
 80007dc:	445a      	add	r2, fp
 80007de:	4293      	cmp	r3, r2
 80007e0:	d903      	bls.n	80007ea <__aeabi_dmul+0x2c6>
 80007e2:	2380      	movs	r3, #128	; 0x80
 80007e4:	025b      	lsls	r3, r3, #9
 80007e6:	469b      	mov	fp, r3
 80007e8:	44d9      	add	r9, fp
 80007ea:	4651      	mov	r1, sl
 80007ec:	0409      	lsls	r1, r1, #16
 80007ee:	0c09      	lsrs	r1, r1, #16
 80007f0:	468a      	mov	sl, r1
 80007f2:	4641      	mov	r1, r8
 80007f4:	4361      	muls	r1, r4
 80007f6:	437c      	muls	r4, r7
 80007f8:	0c13      	lsrs	r3, r2, #16
 80007fa:	0412      	lsls	r2, r2, #16
 80007fc:	444b      	add	r3, r9
 80007fe:	4452      	add	r2, sl
 8000800:	46a1      	mov	r9, r4
 8000802:	468a      	mov	sl, r1
 8000804:	003c      	movs	r4, r7
 8000806:	4641      	mov	r1, r8
 8000808:	436c      	muls	r4, r5
 800080a:	434d      	muls	r5, r1
 800080c:	4651      	mov	r1, sl
 800080e:	444d      	add	r5, r9
 8000810:	0c0f      	lsrs	r7, r1, #16
 8000812:	197d      	adds	r5, r7, r5
 8000814:	45a9      	cmp	r9, r5
 8000816:	d903      	bls.n	8000820 <__aeabi_dmul+0x2fc>
 8000818:	2180      	movs	r1, #128	; 0x80
 800081a:	0249      	lsls	r1, r1, #9
 800081c:	4688      	mov	r8, r1
 800081e:	4444      	add	r4, r8
 8000820:	9f04      	ldr	r7, [sp, #16]
 8000822:	9903      	ldr	r1, [sp, #12]
 8000824:	46b8      	mov	r8, r7
 8000826:	4441      	add	r1, r8
 8000828:	468b      	mov	fp, r1
 800082a:	4583      	cmp	fp, r0
 800082c:	4180      	sbcs	r0, r0
 800082e:	4241      	negs	r1, r0
 8000830:	4688      	mov	r8, r1
 8000832:	4651      	mov	r1, sl
 8000834:	0408      	lsls	r0, r1, #16
 8000836:	042f      	lsls	r7, r5, #16
 8000838:	0c00      	lsrs	r0, r0, #16
 800083a:	183f      	adds	r7, r7, r0
 800083c:	4658      	mov	r0, fp
 800083e:	9902      	ldr	r1, [sp, #8]
 8000840:	1810      	adds	r0, r2, r0
 8000842:	4689      	mov	r9, r1
 8000844:	4290      	cmp	r0, r2
 8000846:	4192      	sbcs	r2, r2
 8000848:	444f      	add	r7, r9
 800084a:	46ba      	mov	sl, r7
 800084c:	4252      	negs	r2, r2
 800084e:	4699      	mov	r9, r3
 8000850:	4693      	mov	fp, r2
 8000852:	44c2      	add	sl, r8
 8000854:	44d1      	add	r9, sl
 8000856:	44cb      	add	fp, r9
 8000858:	428f      	cmp	r7, r1
 800085a:	41bf      	sbcs	r7, r7
 800085c:	45c2      	cmp	sl, r8
 800085e:	4189      	sbcs	r1, r1
 8000860:	4599      	cmp	r9, r3
 8000862:	419b      	sbcs	r3, r3
 8000864:	4593      	cmp	fp, r2
 8000866:	4192      	sbcs	r2, r2
 8000868:	427f      	negs	r7, r7
 800086a:	4249      	negs	r1, r1
 800086c:	0c2d      	lsrs	r5, r5, #16
 800086e:	4252      	negs	r2, r2
 8000870:	430f      	orrs	r7, r1
 8000872:	425b      	negs	r3, r3
 8000874:	4313      	orrs	r3, r2
 8000876:	197f      	adds	r7, r7, r5
 8000878:	18ff      	adds	r7, r7, r3
 800087a:	465b      	mov	r3, fp
 800087c:	193c      	adds	r4, r7, r4
 800087e:	0ddb      	lsrs	r3, r3, #23
 8000880:	9a05      	ldr	r2, [sp, #20]
 8000882:	0264      	lsls	r4, r4, #9
 8000884:	431c      	orrs	r4, r3
 8000886:	0243      	lsls	r3, r0, #9
 8000888:	4313      	orrs	r3, r2
 800088a:	1e5d      	subs	r5, r3, #1
 800088c:	41ab      	sbcs	r3, r5
 800088e:	465a      	mov	r2, fp
 8000890:	0dc0      	lsrs	r0, r0, #23
 8000892:	4303      	orrs	r3, r0
 8000894:	0252      	lsls	r2, r2, #9
 8000896:	4313      	orrs	r3, r2
 8000898:	01e2      	lsls	r2, r4, #7
 800089a:	d556      	bpl.n	800094a <__aeabi_dmul+0x426>
 800089c:	2001      	movs	r0, #1
 800089e:	085a      	lsrs	r2, r3, #1
 80008a0:	4003      	ands	r3, r0
 80008a2:	4313      	orrs	r3, r2
 80008a4:	07e2      	lsls	r2, r4, #31
 80008a6:	4313      	orrs	r3, r2
 80008a8:	0864      	lsrs	r4, r4, #1
 80008aa:	485a      	ldr	r0, [pc, #360]	; (8000a14 <__aeabi_dmul+0x4f0>)
 80008ac:	4460      	add	r0, ip
 80008ae:	2800      	cmp	r0, #0
 80008b0:	dd4d      	ble.n	800094e <__aeabi_dmul+0x42a>
 80008b2:	075a      	lsls	r2, r3, #29
 80008b4:	d009      	beq.n	80008ca <__aeabi_dmul+0x3a6>
 80008b6:	220f      	movs	r2, #15
 80008b8:	401a      	ands	r2, r3
 80008ba:	2a04      	cmp	r2, #4
 80008bc:	d005      	beq.n	80008ca <__aeabi_dmul+0x3a6>
 80008be:	1d1a      	adds	r2, r3, #4
 80008c0:	429a      	cmp	r2, r3
 80008c2:	419b      	sbcs	r3, r3
 80008c4:	425b      	negs	r3, r3
 80008c6:	18e4      	adds	r4, r4, r3
 80008c8:	0013      	movs	r3, r2
 80008ca:	01e2      	lsls	r2, r4, #7
 80008cc:	d504      	bpl.n	80008d8 <__aeabi_dmul+0x3b4>
 80008ce:	2080      	movs	r0, #128	; 0x80
 80008d0:	4a51      	ldr	r2, [pc, #324]	; (8000a18 <__aeabi_dmul+0x4f4>)
 80008d2:	00c0      	lsls	r0, r0, #3
 80008d4:	4014      	ands	r4, r2
 80008d6:	4460      	add	r0, ip
 80008d8:	4a50      	ldr	r2, [pc, #320]	; (8000a1c <__aeabi_dmul+0x4f8>)
 80008da:	4290      	cmp	r0, r2
 80008dc:	dd00      	ble.n	80008e0 <__aeabi_dmul+0x3bc>
 80008de:	e6e3      	b.n	80006a8 <__aeabi_dmul+0x184>
 80008e0:	2501      	movs	r5, #1
 80008e2:	08db      	lsrs	r3, r3, #3
 80008e4:	0762      	lsls	r2, r4, #29
 80008e6:	431a      	orrs	r2, r3
 80008e8:	0264      	lsls	r4, r4, #9
 80008ea:	9b01      	ldr	r3, [sp, #4]
 80008ec:	4691      	mov	r9, r2
 80008ee:	0b22      	lsrs	r2, r4, #12
 80008f0:	0544      	lsls	r4, r0, #21
 80008f2:	0d64      	lsrs	r4, r4, #21
 80008f4:	401d      	ands	r5, r3
 80008f6:	e67c      	b.n	80005f2 <__aeabi_dmul+0xce>
 80008f8:	2280      	movs	r2, #128	; 0x80
 80008fa:	4659      	mov	r1, fp
 80008fc:	0312      	lsls	r2, r2, #12
 80008fe:	4211      	tst	r1, r2
 8000900:	d008      	beq.n	8000914 <__aeabi_dmul+0x3f0>
 8000902:	4214      	tst	r4, r2
 8000904:	d106      	bne.n	8000914 <__aeabi_dmul+0x3f0>
 8000906:	4322      	orrs	r2, r4
 8000908:	0312      	lsls	r2, r2, #12
 800090a:	0b12      	lsrs	r2, r2, #12
 800090c:	4645      	mov	r5, r8
 800090e:	4699      	mov	r9, r3
 8000910:	4c43      	ldr	r4, [pc, #268]	; (8000a20 <__aeabi_dmul+0x4fc>)
 8000912:	e66e      	b.n	80005f2 <__aeabi_dmul+0xce>
 8000914:	465b      	mov	r3, fp
 8000916:	431a      	orrs	r2, r3
 8000918:	0312      	lsls	r2, r2, #12
 800091a:	0b12      	lsrs	r2, r2, #12
 800091c:	4c40      	ldr	r4, [pc, #256]	; (8000a20 <__aeabi_dmul+0x4fc>)
 800091e:	e668      	b.n	80005f2 <__aeabi_dmul+0xce>
 8000920:	0003      	movs	r3, r0
 8000922:	4654      	mov	r4, sl
 8000924:	3b28      	subs	r3, #40	; 0x28
 8000926:	409c      	lsls	r4, r3
 8000928:	2300      	movs	r3, #0
 800092a:	e6b9      	b.n	80006a0 <__aeabi_dmul+0x17c>
 800092c:	f000 f90e 	bl	8000b4c <__clzsi2>
 8000930:	3020      	adds	r0, #32
 8000932:	e6a6      	b.n	8000682 <__aeabi_dmul+0x15e>
 8000934:	0003      	movs	r3, r0
 8000936:	3b28      	subs	r3, #40	; 0x28
 8000938:	409f      	lsls	r7, r3
 800093a:	2300      	movs	r3, #0
 800093c:	46bb      	mov	fp, r7
 800093e:	4699      	mov	r9, r3
 8000940:	e68a      	b.n	8000658 <__aeabi_dmul+0x134>
 8000942:	f000 f903 	bl	8000b4c <__clzsi2>
 8000946:	3020      	adds	r0, #32
 8000948:	e674      	b.n	8000634 <__aeabi_dmul+0x110>
 800094a:	46b4      	mov	ip, r6
 800094c:	e7ad      	b.n	80008aa <__aeabi_dmul+0x386>
 800094e:	2501      	movs	r5, #1
 8000950:	1a2a      	subs	r2, r5, r0
 8000952:	2a38      	cmp	r2, #56	; 0x38
 8000954:	dd06      	ble.n	8000964 <__aeabi_dmul+0x440>
 8000956:	9b01      	ldr	r3, [sp, #4]
 8000958:	2400      	movs	r4, #0
 800095a:	401d      	ands	r5, r3
 800095c:	2300      	movs	r3, #0
 800095e:	2200      	movs	r2, #0
 8000960:	4699      	mov	r9, r3
 8000962:	e646      	b.n	80005f2 <__aeabi_dmul+0xce>
 8000964:	2a1f      	cmp	r2, #31
 8000966:	dc21      	bgt.n	80009ac <__aeabi_dmul+0x488>
 8000968:	2520      	movs	r5, #32
 800096a:	0020      	movs	r0, r4
 800096c:	1aad      	subs	r5, r5, r2
 800096e:	001e      	movs	r6, r3
 8000970:	40ab      	lsls	r3, r5
 8000972:	40a8      	lsls	r0, r5
 8000974:	40d6      	lsrs	r6, r2
 8000976:	1e5d      	subs	r5, r3, #1
 8000978:	41ab      	sbcs	r3, r5
 800097a:	4330      	orrs	r0, r6
 800097c:	4318      	orrs	r0, r3
 800097e:	40d4      	lsrs	r4, r2
 8000980:	0743      	lsls	r3, r0, #29
 8000982:	d009      	beq.n	8000998 <__aeabi_dmul+0x474>
 8000984:	230f      	movs	r3, #15
 8000986:	4003      	ands	r3, r0
 8000988:	2b04      	cmp	r3, #4
 800098a:	d005      	beq.n	8000998 <__aeabi_dmul+0x474>
 800098c:	0003      	movs	r3, r0
 800098e:	1d18      	adds	r0, r3, #4
 8000990:	4298      	cmp	r0, r3
 8000992:	419b      	sbcs	r3, r3
 8000994:	425b      	negs	r3, r3
 8000996:	18e4      	adds	r4, r4, r3
 8000998:	0223      	lsls	r3, r4, #8
 800099a:	d521      	bpl.n	80009e0 <__aeabi_dmul+0x4bc>
 800099c:	2501      	movs	r5, #1
 800099e:	9b01      	ldr	r3, [sp, #4]
 80009a0:	2401      	movs	r4, #1
 80009a2:	401d      	ands	r5, r3
 80009a4:	2300      	movs	r3, #0
 80009a6:	2200      	movs	r2, #0
 80009a8:	4699      	mov	r9, r3
 80009aa:	e622      	b.n	80005f2 <__aeabi_dmul+0xce>
 80009ac:	251f      	movs	r5, #31
 80009ae:	0021      	movs	r1, r4
 80009b0:	426d      	negs	r5, r5
 80009b2:	1a28      	subs	r0, r5, r0
 80009b4:	40c1      	lsrs	r1, r0
 80009b6:	0008      	movs	r0, r1
 80009b8:	2a20      	cmp	r2, #32
 80009ba:	d01d      	beq.n	80009f8 <__aeabi_dmul+0x4d4>
 80009bc:	355f      	adds	r5, #95	; 0x5f
 80009be:	1aaa      	subs	r2, r5, r2
 80009c0:	4094      	lsls	r4, r2
 80009c2:	4323      	orrs	r3, r4
 80009c4:	1e5c      	subs	r4, r3, #1
 80009c6:	41a3      	sbcs	r3, r4
 80009c8:	2507      	movs	r5, #7
 80009ca:	4303      	orrs	r3, r0
 80009cc:	401d      	ands	r5, r3
 80009ce:	2200      	movs	r2, #0
 80009d0:	2d00      	cmp	r5, #0
 80009d2:	d009      	beq.n	80009e8 <__aeabi_dmul+0x4c4>
 80009d4:	220f      	movs	r2, #15
 80009d6:	2400      	movs	r4, #0
 80009d8:	401a      	ands	r2, r3
 80009da:	0018      	movs	r0, r3
 80009dc:	2a04      	cmp	r2, #4
 80009de:	d1d6      	bne.n	800098e <__aeabi_dmul+0x46a>
 80009e0:	0003      	movs	r3, r0
 80009e2:	0765      	lsls	r5, r4, #29
 80009e4:	0264      	lsls	r4, r4, #9
 80009e6:	0b22      	lsrs	r2, r4, #12
 80009e8:	08db      	lsrs	r3, r3, #3
 80009ea:	432b      	orrs	r3, r5
 80009ec:	2501      	movs	r5, #1
 80009ee:	4699      	mov	r9, r3
 80009f0:	9b01      	ldr	r3, [sp, #4]
 80009f2:	2400      	movs	r4, #0
 80009f4:	401d      	ands	r5, r3
 80009f6:	e5fc      	b.n	80005f2 <__aeabi_dmul+0xce>
 80009f8:	2400      	movs	r4, #0
 80009fa:	e7e2      	b.n	80009c2 <__aeabi_dmul+0x49e>
 80009fc:	2280      	movs	r2, #128	; 0x80
 80009fe:	2501      	movs	r5, #1
 8000a00:	0312      	lsls	r2, r2, #12
 8000a02:	4322      	orrs	r2, r4
 8000a04:	9901      	ldr	r1, [sp, #4]
 8000a06:	0312      	lsls	r2, r2, #12
 8000a08:	0b12      	lsrs	r2, r2, #12
 8000a0a:	400d      	ands	r5, r1
 8000a0c:	4699      	mov	r9, r3
 8000a0e:	4c04      	ldr	r4, [pc, #16]	; (8000a20 <__aeabi_dmul+0x4fc>)
 8000a10:	e5ef      	b.n	80005f2 <__aeabi_dmul+0xce>
 8000a12:	46c0      	nop			; (mov r8, r8)
 8000a14:	000003ff 	.word	0x000003ff
 8000a18:	feffffff 	.word	0xfeffffff
 8000a1c:	000007fe 	.word	0x000007fe
 8000a20:	000007ff 	.word	0x000007ff

08000a24 <__aeabi_i2d>:
 8000a24:	b570      	push	{r4, r5, r6, lr}
 8000a26:	2800      	cmp	r0, #0
 8000a28:	d030      	beq.n	8000a8c <__aeabi_i2d+0x68>
 8000a2a:	17c3      	asrs	r3, r0, #31
 8000a2c:	18c4      	adds	r4, r0, r3
 8000a2e:	405c      	eors	r4, r3
 8000a30:	0fc5      	lsrs	r5, r0, #31
 8000a32:	0020      	movs	r0, r4
 8000a34:	f000 f88a 	bl	8000b4c <__clzsi2>
 8000a38:	4b17      	ldr	r3, [pc, #92]	; (8000a98 <__aeabi_i2d+0x74>)
 8000a3a:	4a18      	ldr	r2, [pc, #96]	; (8000a9c <__aeabi_i2d+0x78>)
 8000a3c:	1a1b      	subs	r3, r3, r0
 8000a3e:	1ad2      	subs	r2, r2, r3
 8000a40:	2a1f      	cmp	r2, #31
 8000a42:	dd18      	ble.n	8000a76 <__aeabi_i2d+0x52>
 8000a44:	4a16      	ldr	r2, [pc, #88]	; (8000aa0 <__aeabi_i2d+0x7c>)
 8000a46:	1ad2      	subs	r2, r2, r3
 8000a48:	4094      	lsls	r4, r2
 8000a4a:	2200      	movs	r2, #0
 8000a4c:	0324      	lsls	r4, r4, #12
 8000a4e:	055b      	lsls	r3, r3, #21
 8000a50:	0b24      	lsrs	r4, r4, #12
 8000a52:	0d5b      	lsrs	r3, r3, #21
 8000a54:	2100      	movs	r1, #0
 8000a56:	0010      	movs	r0, r2
 8000a58:	0324      	lsls	r4, r4, #12
 8000a5a:	0d0a      	lsrs	r2, r1, #20
 8000a5c:	0b24      	lsrs	r4, r4, #12
 8000a5e:	0512      	lsls	r2, r2, #20
 8000a60:	4322      	orrs	r2, r4
 8000a62:	4c10      	ldr	r4, [pc, #64]	; (8000aa4 <__aeabi_i2d+0x80>)
 8000a64:	051b      	lsls	r3, r3, #20
 8000a66:	4022      	ands	r2, r4
 8000a68:	4313      	orrs	r3, r2
 8000a6a:	005b      	lsls	r3, r3, #1
 8000a6c:	07ed      	lsls	r5, r5, #31
 8000a6e:	085b      	lsrs	r3, r3, #1
 8000a70:	432b      	orrs	r3, r5
 8000a72:	0019      	movs	r1, r3
 8000a74:	bd70      	pop	{r4, r5, r6, pc}
 8000a76:	0021      	movs	r1, r4
 8000a78:	4091      	lsls	r1, r2
 8000a7a:	000a      	movs	r2, r1
 8000a7c:	210b      	movs	r1, #11
 8000a7e:	1a08      	subs	r0, r1, r0
 8000a80:	40c4      	lsrs	r4, r0
 8000a82:	055b      	lsls	r3, r3, #21
 8000a84:	0324      	lsls	r4, r4, #12
 8000a86:	0b24      	lsrs	r4, r4, #12
 8000a88:	0d5b      	lsrs	r3, r3, #21
 8000a8a:	e7e3      	b.n	8000a54 <__aeabi_i2d+0x30>
 8000a8c:	2500      	movs	r5, #0
 8000a8e:	2300      	movs	r3, #0
 8000a90:	2400      	movs	r4, #0
 8000a92:	2200      	movs	r2, #0
 8000a94:	e7de      	b.n	8000a54 <__aeabi_i2d+0x30>
 8000a96:	46c0      	nop			; (mov r8, r8)
 8000a98:	0000041e 	.word	0x0000041e
 8000a9c:	00000433 	.word	0x00000433
 8000aa0:	00000413 	.word	0x00000413
 8000aa4:	800fffff 	.word	0x800fffff

08000aa8 <__aeabi_f2d>:
 8000aa8:	0041      	lsls	r1, r0, #1
 8000aaa:	0e09      	lsrs	r1, r1, #24
 8000aac:	1c4b      	adds	r3, r1, #1
 8000aae:	b570      	push	{r4, r5, r6, lr}
 8000ab0:	b2db      	uxtb	r3, r3
 8000ab2:	0246      	lsls	r6, r0, #9
 8000ab4:	0a75      	lsrs	r5, r6, #9
 8000ab6:	0fc4      	lsrs	r4, r0, #31
 8000ab8:	2b01      	cmp	r3, #1
 8000aba:	dd14      	ble.n	8000ae6 <__aeabi_f2d+0x3e>
 8000abc:	23e0      	movs	r3, #224	; 0xe0
 8000abe:	009b      	lsls	r3, r3, #2
 8000ac0:	076d      	lsls	r5, r5, #29
 8000ac2:	0b36      	lsrs	r6, r6, #12
 8000ac4:	18cb      	adds	r3, r1, r3
 8000ac6:	2100      	movs	r1, #0
 8000ac8:	0d0a      	lsrs	r2, r1, #20
 8000aca:	0028      	movs	r0, r5
 8000acc:	0512      	lsls	r2, r2, #20
 8000ace:	4d1c      	ldr	r5, [pc, #112]	; (8000b40 <__aeabi_f2d+0x98>)
 8000ad0:	4332      	orrs	r2, r6
 8000ad2:	055b      	lsls	r3, r3, #21
 8000ad4:	402a      	ands	r2, r5
 8000ad6:	085b      	lsrs	r3, r3, #1
 8000ad8:	4313      	orrs	r3, r2
 8000ada:	005b      	lsls	r3, r3, #1
 8000adc:	07e4      	lsls	r4, r4, #31
 8000ade:	085b      	lsrs	r3, r3, #1
 8000ae0:	4323      	orrs	r3, r4
 8000ae2:	0019      	movs	r1, r3
 8000ae4:	bd70      	pop	{r4, r5, r6, pc}
 8000ae6:	2900      	cmp	r1, #0
 8000ae8:	d114      	bne.n	8000b14 <__aeabi_f2d+0x6c>
 8000aea:	2d00      	cmp	r5, #0
 8000aec:	d01e      	beq.n	8000b2c <__aeabi_f2d+0x84>
 8000aee:	0028      	movs	r0, r5
 8000af0:	f000 f82c 	bl	8000b4c <__clzsi2>
 8000af4:	280a      	cmp	r0, #10
 8000af6:	dc1c      	bgt.n	8000b32 <__aeabi_f2d+0x8a>
 8000af8:	230b      	movs	r3, #11
 8000afa:	002a      	movs	r2, r5
 8000afc:	1a1b      	subs	r3, r3, r0
 8000afe:	40da      	lsrs	r2, r3
 8000b00:	0003      	movs	r3, r0
 8000b02:	3315      	adds	r3, #21
 8000b04:	409d      	lsls	r5, r3
 8000b06:	4b0f      	ldr	r3, [pc, #60]	; (8000b44 <__aeabi_f2d+0x9c>)
 8000b08:	0312      	lsls	r2, r2, #12
 8000b0a:	1a1b      	subs	r3, r3, r0
 8000b0c:	055b      	lsls	r3, r3, #21
 8000b0e:	0b16      	lsrs	r6, r2, #12
 8000b10:	0d5b      	lsrs	r3, r3, #21
 8000b12:	e7d8      	b.n	8000ac6 <__aeabi_f2d+0x1e>
 8000b14:	2d00      	cmp	r5, #0
 8000b16:	d006      	beq.n	8000b26 <__aeabi_f2d+0x7e>
 8000b18:	0b32      	lsrs	r2, r6, #12
 8000b1a:	2680      	movs	r6, #128	; 0x80
 8000b1c:	0336      	lsls	r6, r6, #12
 8000b1e:	076d      	lsls	r5, r5, #29
 8000b20:	4316      	orrs	r6, r2
 8000b22:	4b09      	ldr	r3, [pc, #36]	; (8000b48 <__aeabi_f2d+0xa0>)
 8000b24:	e7cf      	b.n	8000ac6 <__aeabi_f2d+0x1e>
 8000b26:	4b08      	ldr	r3, [pc, #32]	; (8000b48 <__aeabi_f2d+0xa0>)
 8000b28:	2600      	movs	r6, #0
 8000b2a:	e7cc      	b.n	8000ac6 <__aeabi_f2d+0x1e>
 8000b2c:	2300      	movs	r3, #0
 8000b2e:	2600      	movs	r6, #0
 8000b30:	e7c9      	b.n	8000ac6 <__aeabi_f2d+0x1e>
 8000b32:	0003      	movs	r3, r0
 8000b34:	002a      	movs	r2, r5
 8000b36:	3b0b      	subs	r3, #11
 8000b38:	409a      	lsls	r2, r3
 8000b3a:	2500      	movs	r5, #0
 8000b3c:	e7e3      	b.n	8000b06 <__aeabi_f2d+0x5e>
 8000b3e:	46c0      	nop			; (mov r8, r8)
 8000b40:	800fffff 	.word	0x800fffff
 8000b44:	00000389 	.word	0x00000389
 8000b48:	000007ff 	.word	0x000007ff

08000b4c <__clzsi2>:
 8000b4c:	211c      	movs	r1, #28
 8000b4e:	2301      	movs	r3, #1
 8000b50:	041b      	lsls	r3, r3, #16
 8000b52:	4298      	cmp	r0, r3
 8000b54:	d301      	bcc.n	8000b5a <__clzsi2+0xe>
 8000b56:	0c00      	lsrs	r0, r0, #16
 8000b58:	3910      	subs	r1, #16
 8000b5a:	0a1b      	lsrs	r3, r3, #8
 8000b5c:	4298      	cmp	r0, r3
 8000b5e:	d301      	bcc.n	8000b64 <__clzsi2+0x18>
 8000b60:	0a00      	lsrs	r0, r0, #8
 8000b62:	3908      	subs	r1, #8
 8000b64:	091b      	lsrs	r3, r3, #4
 8000b66:	4298      	cmp	r0, r3
 8000b68:	d301      	bcc.n	8000b6e <__clzsi2+0x22>
 8000b6a:	0900      	lsrs	r0, r0, #4
 8000b6c:	3904      	subs	r1, #4
 8000b6e:	a202      	add	r2, pc, #8	; (adr r2, 8000b78 <__clzsi2+0x2c>)
 8000b70:	5c10      	ldrb	r0, [r2, r0]
 8000b72:	1840      	adds	r0, r0, r1
 8000b74:	4770      	bx	lr
 8000b76:	46c0      	nop			; (mov r8, r8)
 8000b78:	02020304 	.word	0x02020304
 8000b7c:	01010101 	.word	0x01010101
	...

08000b88 <HAL_InitTick>:
  *       implementation  in user file.
  * @param TickPriority Tick interrupt priority.
  * @retval HAL status
  */
__weak HAL_StatusTypeDef HAL_InitTick(uint32_t TickPriority)
{
 8000b88:	b510      	push	{r4, lr}
 8000b8a:	0004      	movs	r4, r0
  /*Configure the SysTick to have interrupt in 1ms time basis*/
  HAL_SYSTICK_Config(HAL_RCC_GetHCLKFreq()/1000U);
 8000b8c:	f000 ff38 	bl	8001a00 <HAL_RCC_GetHCLKFreq>
 8000b90:	21fa      	movs	r1, #250	; 0xfa
 8000b92:	0089      	lsls	r1, r1, #2
 8000b94:	f7ff faca 	bl	800012c <__udivsi3>
 8000b98:	f000 fab4 	bl	8001104 <HAL_SYSTICK_Config>

  /*Configure the SysTick IRQ priority */
  HAL_NVIC_SetPriority(SysTick_IRQn, TickPriority ,0U);
 8000b9c:	2001      	movs	r0, #1
 8000b9e:	2200      	movs	r2, #0
 8000ba0:	0021      	movs	r1, r4
 8000ba2:	4240      	negs	r0, r0
 8000ba4:	f000 fa74 	bl	8001090 <HAL_NVIC_SetPriority>

   /* Return function status */
  return HAL_OK;
}
 8000ba8:	2000      	movs	r0, #0
 8000baa:	bd10      	pop	{r4, pc}

08000bac <HAL_Init>:
  __HAL_FLASH_PREFETCH_BUFFER_ENABLE();
 8000bac:	2310      	movs	r3, #16
 8000bae:	4a06      	ldr	r2, [pc, #24]	; (8000bc8 <HAL_Init+0x1c>)
{
 8000bb0:	b510      	push	{r4, lr}
  __HAL_FLASH_PREFETCH_BUFFER_ENABLE();
 8000bb2:	6811      	ldr	r1, [r2, #0]
  HAL_InitTick(TICK_INT_PRIORITY);
 8000bb4:	2000      	movs	r0, #0
  __HAL_FLASH_PREFETCH_BUFFER_ENABLE();
 8000bb6:	430b      	orrs	r3, r1
 8000bb8:	6013      	str	r3, [r2, #0]
  HAL_InitTick(TICK_INT_PRIORITY);
 8000bba:	f7ff ffe5 	bl	8000b88 <HAL_InitTick>
  HAL_MspInit();
 8000bbe:	f002 f8dd 	bl	8002d7c <HAL_MspInit>
}
 8000bc2:	2000      	movs	r0, #0
 8000bc4:	bd10      	pop	{r4, pc}
 8000bc6:	46c0      	nop			; (mov r8, r8)
 8000bc8:	40022000 	.word	0x40022000

08000bcc <HAL_IncTick>:
  *       implementations in user file.
  * @retval None
  */
__weak void HAL_IncTick(void)
{
  uwTick++;
 8000bcc:	4a02      	ldr	r2, [pc, #8]	; (8000bd8 <HAL_IncTick+0xc>)
 8000bce:	6813      	ldr	r3, [r2, #0]
 8000bd0:	3301      	adds	r3, #1
 8000bd2:	6013      	str	r3, [r2, #0]
}
 8000bd4:	4770      	bx	lr
 8000bd6:	46c0      	nop			; (mov r8, r8)
 8000bd8:	200002c8 	.word	0x200002c8

08000bdc <HAL_GetTick>:
  *       implementations in user file.
  * @retval tick value
  */
__weak uint32_t HAL_GetTick(void)
{
  return uwTick;
 8000bdc:	4b01      	ldr	r3, [pc, #4]	; (8000be4 <HAL_GetTick+0x8>)
 8000bde:	6818      	ldr	r0, [r3, #0]
}
 8000be0:	4770      	bx	lr
 8000be2:	46c0      	nop			; (mov r8, r8)
 8000be4:	200002c8 	.word	0x200002c8

08000be8 <ADC_Enable>:
  * @retval HAL status.
  */
static HAL_StatusTypeDef ADC_Enable(ADC_HandleTypeDef* hadc)
{
  uint32_t tickstart = 0U;
  __IO uint32_t wait_loop_index = 0U;
 8000be8:	2300      	movs	r3, #0
{
 8000bea:	b573      	push	{r0, r1, r4, r5, r6, lr}
  
  /* ADC enable and wait for ADC ready (in case of ADC is disabled or         */
  /* enabling phase not yet completed: flag ADC ready not yet set).           */
  /* Timeout implemented to not be stuck if ADC cannot be enabled (possible   */
  /* causes: ADC clock not running, ...).                                     */
  if (ADC_IS_ENABLE(hadc) == RESET)
 8000bec:	2103      	movs	r1, #3
  __IO uint32_t wait_loop_index = 0U;
 8000bee:	9301      	str	r3, [sp, #4]
  if (ADC_IS_ENABLE(hadc) == RESET)
 8000bf0:	6803      	ldr	r3, [r0, #0]
{
 8000bf2:	0004      	movs	r4, r0
  if (ADC_IS_ENABLE(hadc) == RESET)
 8000bf4:	689a      	ldr	r2, [r3, #8]
 8000bf6:	400a      	ands	r2, r1
 8000bf8:	2a01      	cmp	r2, #1
 8000bfa:	d107      	bne.n	8000c0c <ADC_Enable+0x24>
 8000bfc:	6819      	ldr	r1, [r3, #0]
 8000bfe:	4211      	tst	r1, r2
 8000c00:	d001      	beq.n	8000c06 <ADC_Enable+0x1e>
    }   
    
  }
   
  /* Return HAL status */
  return HAL_OK;
 8000c02:	2000      	movs	r0, #0
}
 8000c04:	bd76      	pop	{r1, r2, r4, r5, r6, pc}
  if (ADC_IS_ENABLE(hadc) == RESET)
 8000c06:	68da      	ldr	r2, [r3, #12]
 8000c08:	0412      	lsls	r2, r2, #16
 8000c0a:	d4fa      	bmi.n	8000c02 <ADC_Enable+0x1a>
    if (ADC_ENABLING_CONDITIONS(hadc) == RESET)
 8000c0c:	6899      	ldr	r1, [r3, #8]
 8000c0e:	4a19      	ldr	r2, [pc, #100]	; (8000c74 <ADC_Enable+0x8c>)
 8000c10:	4211      	tst	r1, r2
 8000c12:	d008      	beq.n	8000c26 <ADC_Enable+0x3e>
      SET_BIT(hadc->State, HAL_ADC_STATE_ERROR_INTERNAL);
 8000c14:	2310      	movs	r3, #16
      SET_BIT(hadc->ErrorCode, HAL_ADC_ERROR_INTERNAL);
 8000c16:	2001      	movs	r0, #1
      SET_BIT(hadc->State, HAL_ADC_STATE_ERROR_INTERNAL);
 8000c18:	6c62      	ldr	r2, [r4, #68]	; 0x44
 8000c1a:	4313      	orrs	r3, r2
 8000c1c:	6463      	str	r3, [r4, #68]	; 0x44
      SET_BIT(hadc->ErrorCode, HAL_ADC_ERROR_INTERNAL);
 8000c1e:	6ca3      	ldr	r3, [r4, #72]	; 0x48
 8000c20:	4303      	orrs	r3, r0
 8000c22:	64a3      	str	r3, [r4, #72]	; 0x48
      return HAL_ERROR;
 8000c24:	e7ee      	b.n	8000c04 <ADC_Enable+0x1c>
    __HAL_ADC_ENABLE(hadc);
 8000c26:	2201      	movs	r2, #1
 8000c28:	6899      	ldr	r1, [r3, #8]
 8000c2a:	430a      	orrs	r2, r1
 8000c2c:	609a      	str	r2, [r3, #8]
    wait_loop_index = (ADC_STAB_DELAY_US * (SystemCoreClock / 1000000U));
 8000c2e:	4b12      	ldr	r3, [pc, #72]	; (8000c78 <ADC_Enable+0x90>)
 8000c30:	4912      	ldr	r1, [pc, #72]	; (8000c7c <ADC_Enable+0x94>)
 8000c32:	6818      	ldr	r0, [r3, #0]
 8000c34:	f7ff fa7a 	bl	800012c <__udivsi3>
 8000c38:	9001      	str	r0, [sp, #4]
    while(wait_loop_index != 0U)
 8000c3a:	9b01      	ldr	r3, [sp, #4]
 8000c3c:	2b00      	cmp	r3, #0
 8000c3e:	d115      	bne.n	8000c6c <ADC_Enable+0x84>
    tickstart = HAL_GetTick();
 8000c40:	f7ff ffcc 	bl	8000bdc <HAL_GetTick>
    while(__HAL_ADC_GET_FLAG(hadc, ADC_FLAG_RDY) == RESET)
 8000c44:	2501      	movs	r5, #1
    tickstart = HAL_GetTick();
 8000c46:	0006      	movs	r6, r0
    while(__HAL_ADC_GET_FLAG(hadc, ADC_FLAG_RDY) == RESET)
 8000c48:	6823      	ldr	r3, [r4, #0]
 8000c4a:	681b      	ldr	r3, [r3, #0]
 8000c4c:	422b      	tst	r3, r5
 8000c4e:	d1d8      	bne.n	8000c02 <ADC_Enable+0x1a>
      if((HAL_GetTick() - tickstart) > ADC_ENABLE_TIMEOUT)
 8000c50:	f7ff ffc4 	bl	8000bdc <HAL_GetTick>
 8000c54:	1b80      	subs	r0, r0, r6
 8000c56:	2802      	cmp	r0, #2
 8000c58:	d9f6      	bls.n	8000c48 <ADC_Enable+0x60>
        SET_BIT(hadc->State, HAL_ADC_STATE_ERROR_INTERNAL);
 8000c5a:	2310      	movs	r3, #16
 8000c5c:	6c62      	ldr	r2, [r4, #68]	; 0x44
        return HAL_ERROR;
 8000c5e:	2001      	movs	r0, #1
        SET_BIT(hadc->State, HAL_ADC_STATE_ERROR_INTERNAL);
 8000c60:	4313      	orrs	r3, r2
 8000c62:	6463      	str	r3, [r4, #68]	; 0x44
        SET_BIT(hadc->ErrorCode, HAL_ADC_ERROR_INTERNAL);
 8000c64:	6ca3      	ldr	r3, [r4, #72]	; 0x48
 8000c66:	432b      	orrs	r3, r5
 8000c68:	64a3      	str	r3, [r4, #72]	; 0x48
        return HAL_ERROR;
 8000c6a:	e7cb      	b.n	8000c04 <ADC_Enable+0x1c>
      wait_loop_index--;
 8000c6c:	9b01      	ldr	r3, [sp, #4]
 8000c6e:	3b01      	subs	r3, #1
 8000c70:	9301      	str	r3, [sp, #4]
 8000c72:	e7e2      	b.n	8000c3a <ADC_Enable+0x52>
 8000c74:	80000017 	.word	0x80000017
 8000c78:	20000000 	.word	0x20000000
 8000c7c:	000f4240 	.word	0x000f4240

08000c80 <HAL_ADC_Init>:
{
 8000c80:	b5f8      	push	{r3, r4, r5, r6, r7, lr}
 8000c82:	0004      	movs	r4, r0
    return HAL_ERROR;
 8000c84:	2001      	movs	r0, #1
  if(hadc == NULL)
 8000c86:	2c00      	cmp	r4, #0
 8000c88:	d072      	beq.n	8000d70 <HAL_ADC_Init+0xf0>
  if (hadc->State == HAL_ADC_STATE_RESET)
 8000c8a:	6c63      	ldr	r3, [r4, #68]	; 0x44
 8000c8c:	2b00      	cmp	r3, #0
 8000c8e:	d106      	bne.n	8000c9e <HAL_ADC_Init+0x1e>
    hadc->Lock = HAL_UNLOCKED;
 8000c90:	0022      	movs	r2, r4
 8000c92:	3240      	adds	r2, #64	; 0x40
    ADC_CLEAR_ERRORCODE(hadc);
 8000c94:	64a3      	str	r3, [r4, #72]	; 0x48
    HAL_ADC_MspInit(hadc);
 8000c96:	0020      	movs	r0, r4
    hadc->Lock = HAL_UNLOCKED;
 8000c98:	7013      	strb	r3, [r2, #0]
    HAL_ADC_MspInit(hadc);
 8000c9a:	f002 f88d 	bl	8002db8 <HAL_ADC_MspInit>
  if (HAL_IS_BIT_CLR(hadc->State, HAL_ADC_STATE_ERROR_INTERNAL) &&
 8000c9e:	6c63      	ldr	r3, [r4, #68]	; 0x44
 8000ca0:	06db      	lsls	r3, r3, #27
 8000ca2:	d500      	bpl.n	8000ca6 <HAL_ADC_Init+0x26>
 8000ca4:	e079      	b.n	8000d9a <HAL_ADC_Init+0x11a>
      (ADC_IS_CONVERSION_ONGOING_REGULAR(hadc) == RESET)          )
 8000ca6:	2204      	movs	r2, #4
 8000ca8:	6823      	ldr	r3, [r4, #0]
 8000caa:	6898      	ldr	r0, [r3, #8]
 8000cac:	4010      	ands	r0, r2
      (tmp_hal_status == HAL_OK)                                &&
 8000cae:	d000      	beq.n	8000cb2 <HAL_ADC_Init+0x32>
 8000cb0:	e073      	b.n	8000d9a <HAL_ADC_Init+0x11a>
    ADC_STATE_CLR_SET(hadc->State,
 8000cb2:	6c62      	ldr	r2, [r4, #68]	; 0x44
 8000cb4:	4942      	ldr	r1, [pc, #264]	; (8000dc0 <HAL_ADC_Init+0x140>)
 8000cb6:	4011      	ands	r1, r2
 8000cb8:	2202      	movs	r2, #2
 8000cba:	430a      	orrs	r2, r1
    if (ADC_IS_ENABLE(hadc) == RESET)
 8000cbc:	2103      	movs	r1, #3
    ADC_STATE_CLR_SET(hadc->State,
 8000cbe:	6462      	str	r2, [r4, #68]	; 0x44
    if (ADC_IS_ENABLE(hadc) == RESET)
 8000cc0:	689a      	ldr	r2, [r3, #8]
 8000cc2:	400a      	ands	r2, r1
 8000cc4:	2a01      	cmp	r2, #1
 8000cc6:	d000      	beq.n	8000cca <HAL_ADC_Init+0x4a>
 8000cc8:	e06d      	b.n	8000da6 <HAL_ADC_Init+0x126>
 8000cca:	6819      	ldr	r1, [r3, #0]
 8000ccc:	4211      	tst	r1, r2
 8000cce:	d102      	bne.n	8000cd6 <HAL_ADC_Init+0x56>
 8000cd0:	68da      	ldr	r2, [r3, #12]
 8000cd2:	0412      	lsls	r2, r2, #16
 8000cd4:	d567      	bpl.n	8000da6 <HAL_ADC_Init+0x126>
    hadc->Instance->CFGR1 &= ~( ADC_CFGR1_DISCEN  |
 8000cd6:	68da      	ldr	r2, [r3, #12]
 8000cd8:	493a      	ldr	r1, [pc, #232]	; (8000dc4 <HAL_ADC_Init+0x144>)
                 ADC_CFGR1_CONTINUOUS(hadc->Init.ContinuousConvMode)    |
 8000cda:	6a25      	ldr	r5, [r4, #32]
    hadc->Instance->CFGR1 &= ~( ADC_CFGR1_DISCEN  |
 8000cdc:	400a      	ands	r2, r1
 8000cde:	60da      	str	r2, [r3, #12]
    tmpCFGR1 |= (ADC_CFGR1_AUTOWAIT(hadc->Init.LowPowerAutoWait)        |
 8000ce0:	69a2      	ldr	r2, [r4, #24]
                 ADC_CFGR1_CONTINUOUS(hadc->Init.ContinuousConvMode)    |
 8000ce2:	036f      	lsls	r7, r5, #13
    tmpCFGR1 |= (ADC_CFGR1_AUTOWAIT(hadc->Init.LowPowerAutoWait)        |
 8000ce4:	0391      	lsls	r1, r2, #14
                 ADC_CFGR1_AUTOOFF(hadc->Init.LowPowerAutoPowerOff)     |
 8000ce6:	69e2      	ldr	r2, [r4, #28]
 8000ce8:	03d2      	lsls	r2, r2, #15
    tmpCFGR1 |= (ADC_CFGR1_AUTOWAIT(hadc->Init.LowPowerAutoWait)        |
 8000cea:	4311      	orrs	r1, r2
                 ADC_CFGR1_OVERRUN(hadc->Init.Overrun)                  |
 8000cec:	6b62      	ldr	r2, [r4, #52]	; 0x34
 8000cee:	3a01      	subs	r2, #1
 8000cf0:	1e56      	subs	r6, r2, #1
 8000cf2:	41b2      	sbcs	r2, r6
 8000cf4:	0316      	lsls	r6, r2, #12
 8000cf6:	68e2      	ldr	r2, [r4, #12]
 8000cf8:	4311      	orrs	r1, r2
                 ADC_SCANDIR(hadc->Init.ScanConvMode)                   |
 8000cfa:	6922      	ldr	r2, [r4, #16]
 8000cfc:	430f      	orrs	r7, r1
 8000cfe:	2a02      	cmp	r2, #2
 8000d00:	d100      	bne.n	8000d04 <HAL_ADC_Init+0x84>
 8000d02:	2004      	movs	r0, #4
                 ADC_CFGR1_DMACONTREQ(hadc->Init.DMAContinuousRequests)  );
 8000d04:	6b22      	ldr	r2, [r4, #48]	; 0x30
    if (hadc->Init.DiscontinuousConvMode == ENABLE)
 8000d06:	6a61      	ldr	r1, [r4, #36]	; 0x24
                 ADC_CFGR1_DMACONTREQ(hadc->Init.DMAContinuousRequests)  );
 8000d08:	0052      	lsls	r2, r2, #1
                 ADC_SCANDIR(hadc->Init.ScanConvMode)                   |
 8000d0a:	433a      	orrs	r2, r7
 8000d0c:	4332      	orrs	r2, r6
 8000d0e:	4302      	orrs	r2, r0
    if (hadc->Init.DiscontinuousConvMode == ENABLE)
 8000d10:	2901      	cmp	r1, #1
 8000d12:	d104      	bne.n	8000d1e <HAL_ADC_Init+0x9e>
      if (hadc->Init.ContinuousConvMode == DISABLE)
 8000d14:	2d00      	cmp	r5, #0
 8000d16:	d12c      	bne.n	8000d72 <HAL_ADC_Init+0xf2>
        tmpCFGR1 |= ADC_CFGR1_DISCEN;
 8000d18:	2180      	movs	r1, #128	; 0x80
 8000d1a:	0249      	lsls	r1, r1, #9
 8000d1c:	430a      	orrs	r2, r1
    if (hadc->Init.ExternalTrigConv != ADC_SOFTWARE_START)
 8000d1e:	20c2      	movs	r0, #194	; 0xc2
 8000d20:	6aa1      	ldr	r1, [r4, #40]	; 0x28
 8000d22:	30ff      	adds	r0, #255	; 0xff
 8000d24:	4281      	cmp	r1, r0
 8000d26:	d002      	beq.n	8000d2e <HAL_ADC_Init+0xae>
      tmpCFGR1 |= ( hadc->Init.ExternalTrigConv    |
 8000d28:	6ae0      	ldr	r0, [r4, #44]	; 0x2c
 8000d2a:	4301      	orrs	r1, r0
 8000d2c:	430a      	orrs	r2, r1
    if (IS_ADC_SAMPLE_TIME(hadc->Init.SamplingTimeCommon))
 8000d2e:	2080      	movs	r0, #128	; 0x80
    hadc->Instance->CFGR1 |= tmpCFGR1;
 8000d30:	68d9      	ldr	r1, [r3, #12]
    if (IS_ADC_SAMPLE_TIME(hadc->Init.SamplingTimeCommon))
 8000d32:	0540      	lsls	r0, r0, #21
    hadc->Instance->CFGR1 |= tmpCFGR1;
 8000d34:	4311      	orrs	r1, r2
 8000d36:	60d9      	str	r1, [r3, #12]
    if (IS_ADC_SAMPLE_TIME(hadc->Init.SamplingTimeCommon))
 8000d38:	6ba1      	ldr	r1, [r4, #56]	; 0x38
 8000d3a:	4281      	cmp	r1, r0
 8000d3c:	d002      	beq.n	8000d44 <HAL_ADC_Init+0xc4>
 8000d3e:	1e48      	subs	r0, r1, #1
 8000d40:	2806      	cmp	r0, #6
 8000d42:	d807      	bhi.n	8000d54 <HAL_ADC_Init+0xd4>
      hadc->Instance->SMPR &= ~(ADC_SMPR_SMP);
 8000d44:	2507      	movs	r5, #7
 8000d46:	6958      	ldr	r0, [r3, #20]
      hadc->Instance->SMPR |= ADC_SMPR_SET(hadc->Init.SamplingTimeCommon);
 8000d48:	4029      	ands	r1, r5
      hadc->Instance->SMPR &= ~(ADC_SMPR_SMP);
 8000d4a:	43a8      	bics	r0, r5
 8000d4c:	6158      	str	r0, [r3, #20]
      hadc->Instance->SMPR |= ADC_SMPR_SET(hadc->Init.SamplingTimeCommon);
 8000d4e:	6958      	ldr	r0, [r3, #20]
 8000d50:	4301      	orrs	r1, r0
 8000d52:	6159      	str	r1, [r3, #20]
    if ((hadc->Instance->CFGR1 & ~(ADC_CFGR1_AWDCH | ADC_CFGR1_AWDEN | ADC_CFGR1_AWDSGL | ADC_CFGR1_RES))
 8000d54:	68db      	ldr	r3, [r3, #12]
 8000d56:	491c      	ldr	r1, [pc, #112]	; (8000dc8 <HAL_ADC_Init+0x148>)
 8000d58:	400b      	ands	r3, r1
 8000d5a:	429a      	cmp	r2, r3
 8000d5c:	d111      	bne.n	8000d82 <HAL_ADC_Init+0x102>
      ADC_CLEAR_ERRORCODE(hadc);
 8000d5e:	2000      	movs	r0, #0
      ADC_STATE_CLR_SET(hadc->State,
 8000d60:	2203      	movs	r2, #3
      ADC_CLEAR_ERRORCODE(hadc);
 8000d62:	64a0      	str	r0, [r4, #72]	; 0x48
      ADC_STATE_CLR_SET(hadc->State,
 8000d64:	6c63      	ldr	r3, [r4, #68]	; 0x44
 8000d66:	4393      	bics	r3, r2
 8000d68:	001a      	movs	r2, r3
 8000d6a:	2301      	movs	r3, #1
 8000d6c:	4313      	orrs	r3, r2
 8000d6e:	6463      	str	r3, [r4, #68]	; 0x44
}
 8000d70:	bdf8      	pop	{r3, r4, r5, r6, r7, pc}
        SET_BIT(hadc->State, HAL_ADC_STATE_ERROR_CONFIG);
 8000d72:	2020      	movs	r0, #32
 8000d74:	6c65      	ldr	r5, [r4, #68]	; 0x44
 8000d76:	4328      	orrs	r0, r5
 8000d78:	6460      	str	r0, [r4, #68]	; 0x44
        SET_BIT(hadc->ErrorCode, HAL_ADC_ERROR_INTERNAL);
 8000d7a:	6ca0      	ldr	r0, [r4, #72]	; 0x48
 8000d7c:	4301      	orrs	r1, r0
 8000d7e:	64a1      	str	r1, [r4, #72]	; 0x48
 8000d80:	e7cd      	b.n	8000d1e <HAL_ADC_Init+0x9e>
      ADC_STATE_CLR_SET(hadc->State,
 8000d82:	2212      	movs	r2, #18
 8000d84:	6c63      	ldr	r3, [r4, #68]	; 0x44
      SET_BIT(hadc->ErrorCode, HAL_ADC_ERROR_INTERNAL);
 8000d86:	2001      	movs	r0, #1
      ADC_STATE_CLR_SET(hadc->State,
 8000d88:	4393      	bics	r3, r2
 8000d8a:	001a      	movs	r2, r3
 8000d8c:	2310      	movs	r3, #16
 8000d8e:	4313      	orrs	r3, r2
 8000d90:	6463      	str	r3, [r4, #68]	; 0x44
      SET_BIT(hadc->ErrorCode, HAL_ADC_ERROR_INTERNAL);
 8000d92:	6ca3      	ldr	r3, [r4, #72]	; 0x48
 8000d94:	4303      	orrs	r3, r0
 8000d96:	64a3      	str	r3, [r4, #72]	; 0x48
 8000d98:	e7ea      	b.n	8000d70 <HAL_ADC_Init+0xf0>
    SET_BIT(hadc->State, HAL_ADC_STATE_ERROR_INTERNAL);
 8000d9a:	2310      	movs	r3, #16
 8000d9c:	6c62      	ldr	r2, [r4, #68]	; 0x44
    tmp_hal_status = HAL_ERROR;
 8000d9e:	2001      	movs	r0, #1
    SET_BIT(hadc->State, HAL_ADC_STATE_ERROR_INTERNAL);
 8000da0:	4313      	orrs	r3, r2
 8000da2:	6463      	str	r3, [r4, #68]	; 0x44
 8000da4:	e7e4      	b.n	8000d70 <HAL_ADC_Init+0xf0>
      MODIFY_REG(hadc->Instance->CFGR1,
 8000da6:	2118      	movs	r1, #24
 8000da8:	68da      	ldr	r2, [r3, #12]
 8000daa:	438a      	bics	r2, r1
 8000dac:	68a1      	ldr	r1, [r4, #8]
 8000dae:	430a      	orrs	r2, r1
 8000db0:	60da      	str	r2, [r3, #12]
      MODIFY_REG(hadc->Instance->CFGR2    ,
 8000db2:	6919      	ldr	r1, [r3, #16]
 8000db4:	6862      	ldr	r2, [r4, #4]
 8000db6:	0089      	lsls	r1, r1, #2
 8000db8:	0889      	lsrs	r1, r1, #2
 8000dba:	4311      	orrs	r1, r2
 8000dbc:	6119      	str	r1, [r3, #16]
 8000dbe:	e78a      	b.n	8000cd6 <HAL_ADC_Init+0x56>
 8000dc0:	fffffefd 	.word	0xfffffefd
 8000dc4:	fffe0219 	.word	0xfffe0219
 8000dc8:	833fffe7 	.word	0x833fffe7

08000dcc <HAL_ADC_Start_DMA>:
{
 8000dcc:	b5f7      	push	{r0, r1, r2, r4, r5, r6, r7, lr}
  if (ADC_IS_CONVERSION_ONGOING_REGULAR(hadc) == RESET)
 8000dce:	6803      	ldr	r3, [r0, #0]
{
 8000dd0:	0004      	movs	r4, r0
  if (ADC_IS_CONVERSION_ONGOING_REGULAR(hadc) == RESET)
 8000dd2:	689b      	ldr	r3, [r3, #8]
{
 8000dd4:	000f      	movs	r7, r1
 8000dd6:	9201      	str	r2, [sp, #4]
    tmp_hal_status = HAL_BUSY;
 8000dd8:	2002      	movs	r0, #2
  if (ADC_IS_CONVERSION_ONGOING_REGULAR(hadc) == RESET)
 8000dda:	075b      	lsls	r3, r3, #29
 8000ddc:	d430      	bmi.n	8000e40 <HAL_ADC_Start_DMA+0x74>
    __HAL_LOCK(hadc);
 8000dde:	0026      	movs	r6, r4
 8000de0:	3640      	adds	r6, #64	; 0x40
 8000de2:	7833      	ldrb	r3, [r6, #0]
 8000de4:	2b01      	cmp	r3, #1
 8000de6:	d02b      	beq.n	8000e40 <HAL_ADC_Start_DMA+0x74>
 8000de8:	2301      	movs	r3, #1
 8000dea:	7033      	strb	r3, [r6, #0]
    if (hadc->Init.LowPowerAutoPowerOff != ENABLE)
 8000dec:	69e3      	ldr	r3, [r4, #28]
 8000dee:	2b01      	cmp	r3, #1
 8000df0:	d127      	bne.n	8000e42 <HAL_ADC_Start_DMA+0x76>
      ADC_STATE_CLR_SET(hadc->State,
 8000df2:	6c63      	ldr	r3, [r4, #68]	; 0x44
 8000df4:	4a16      	ldr	r2, [pc, #88]	; (8000e50 <HAL_ADC_Start_DMA+0x84>)
      ADC_CLEAR_ERRORCODE(hadc);
 8000df6:	2500      	movs	r5, #0
      ADC_STATE_CLR_SET(hadc->State,
 8000df8:	401a      	ands	r2, r3
 8000dfa:	2380      	movs	r3, #128	; 0x80
 8000dfc:	005b      	lsls	r3, r3, #1
 8000dfe:	4313      	orrs	r3, r2
 8000e00:	6463      	str	r3, [r4, #68]	; 0x44
      hadc->DMA_Handle->XferCpltCallback = ADC_DMAConvCplt;
 8000e02:	6be0      	ldr	r0, [r4, #60]	; 0x3c
 8000e04:	4b13      	ldr	r3, [pc, #76]	; (8000e54 <HAL_ADC_Start_DMA+0x88>)
      ADC_CLEAR_ERRORCODE(hadc);
 8000e06:	64a5      	str	r5, [r4, #72]	; 0x48
      __HAL_UNLOCK(hadc);
 8000e08:	7035      	strb	r5, [r6, #0]
      hadc->DMA_Handle->XferCpltCallback = ADC_DMAConvCplt;
 8000e0a:	6283      	str	r3, [r0, #40]	; 0x28
      hadc->DMA_Handle->XferHalfCpltCallback = ADC_DMAHalfConvCplt;
 8000e0c:	4b12      	ldr	r3, [pc, #72]	; (8000e58 <HAL_ADC_Start_DMA+0x8c>)
      __HAL_ADC_CLEAR_FLAG(hadc, (ADC_FLAG_EOC | ADC_FLAG_EOS | ADC_FLAG_OVR));
 8000e0e:	6821      	ldr	r1, [r4, #0]
      hadc->DMA_Handle->XferHalfCpltCallback = ADC_DMAHalfConvCplt;
 8000e10:	62c3      	str	r3, [r0, #44]	; 0x2c
      hadc->DMA_Handle->XferErrorCallback = ADC_DMAError;
 8000e12:	4b12      	ldr	r3, [pc, #72]	; (8000e5c <HAL_ADC_Start_DMA+0x90>)
 8000e14:	6303      	str	r3, [r0, #48]	; 0x30
      __HAL_ADC_CLEAR_FLAG(hadc, (ADC_FLAG_EOC | ADC_FLAG_EOS | ADC_FLAG_OVR));
 8000e16:	231c      	movs	r3, #28
 8000e18:	600b      	str	r3, [r1, #0]
      __HAL_ADC_ENABLE_IT(hadc, ADC_IT_OVR);
 8000e1a:	684a      	ldr	r2, [r1, #4]
 8000e1c:	3b0c      	subs	r3, #12
 8000e1e:	4313      	orrs	r3, r2
 8000e20:	604b      	str	r3, [r1, #4]
      hadc->Instance->CFGR1 |= ADC_CFGR1_DMAEN;
 8000e22:	2301      	movs	r3, #1
 8000e24:	68ca      	ldr	r2, [r1, #12]
 8000e26:	4313      	orrs	r3, r2
 8000e28:	60cb      	str	r3, [r1, #12]
      HAL_DMA_Start_IT(hadc->DMA_Handle, (uint32_t)&hadc->Instance->DR, (uint32_t)pData, Length);
 8000e2a:	003a      	movs	r2, r7
 8000e2c:	3140      	adds	r1, #64	; 0x40
 8000e2e:	9b01      	ldr	r3, [sp, #4]
 8000e30:	f000 f9cc 	bl	80011cc <HAL_DMA_Start_IT>
      hadc->Instance->CR |= ADC_CR_ADSTART;
 8000e34:	2304      	movs	r3, #4
 8000e36:	0028      	movs	r0, r5
 8000e38:	6822      	ldr	r2, [r4, #0]
 8000e3a:	6891      	ldr	r1, [r2, #8]
 8000e3c:	430b      	orrs	r3, r1
 8000e3e:	6093      	str	r3, [r2, #8]
}
 8000e40:	bdfe      	pop	{r1, r2, r3, r4, r5, r6, r7, pc}
      tmp_hal_status = ADC_Enable(hadc);
 8000e42:	0020      	movs	r0, r4
 8000e44:	f7ff fed0 	bl	8000be8 <ADC_Enable>
    if (tmp_hal_status == HAL_OK)
 8000e48:	2800      	cmp	r0, #0
 8000e4a:	d1f9      	bne.n	8000e40 <HAL_ADC_Start_DMA+0x74>
 8000e4c:	e7d1      	b.n	8000df2 <HAL_ADC_Start_DMA+0x26>
 8000e4e:	46c0      	nop			; (mov r8, r8)
 8000e50:	fffff0fe 	.word	0xfffff0fe
 8000e54:	08000e65 	.word	0x08000e65
 8000e58:	08000ed7 	.word	0x08000ed7
 8000e5c:	08000ee3 	.word	0x08000ee3

08000e60 <HAL_ADC_ConvCpltCallback>:
 8000e60:	4770      	bx	lr
	...

08000e64 <ADC_DMAConvCplt>:
{
  /* Retrieve ADC handle corresponding to current DMA handle */
  ADC_HandleTypeDef* hadc = ( ADC_HandleTypeDef* )((DMA_HandleTypeDef* )hdma)->Parent;
  
  /* Update state machine on conversion status if not in error state */
  if (HAL_IS_BIT_CLR(hadc->State, HAL_ADC_STATE_ERROR_INTERNAL | HAL_ADC_STATE_ERROR_DMA))
 8000e64:	2250      	movs	r2, #80	; 0x50
  ADC_HandleTypeDef* hadc = ( ADC_HandleTypeDef* )((DMA_HandleTypeDef* )hdma)->Parent;
 8000e66:	6a43      	ldr	r3, [r0, #36]	; 0x24
{
 8000e68:	b510      	push	{r4, lr}
  if (HAL_IS_BIT_CLR(hadc->State, HAL_ADC_STATE_ERROR_INTERNAL | HAL_ADC_STATE_ERROR_DMA))
 8000e6a:	6c59      	ldr	r1, [r3, #68]	; 0x44
 8000e6c:	4211      	tst	r1, r2
 8000e6e:	d12a      	bne.n	8000ec6 <ADC_DMAConvCplt+0x62>
  {
    /* Set ADC state */
    SET_BIT(hadc->State, HAL_ADC_STATE_REG_EOC); 
 8000e70:	6c59      	ldr	r1, [r3, #68]	; 0x44
 8000e72:	32b1      	adds	r2, #177	; 0xb1
 8000e74:	32ff      	adds	r2, #255	; 0xff
 8000e76:	430a      	orrs	r2, r1
    
    /* Determine whether any further conversion upcoming on group regular     */
    /* by external trigger, continuous mode or scan sequence on going.        */
    if(ADC_IS_SOFTWARE_START_REGULAR(hadc)        && 
 8000e78:	21c0      	movs	r1, #192	; 0xc0
    SET_BIT(hadc->State, HAL_ADC_STATE_REG_EOC); 
 8000e7a:	645a      	str	r2, [r3, #68]	; 0x44
    if(ADC_IS_SOFTWARE_START_REGULAR(hadc)        && 
 8000e7c:	681a      	ldr	r2, [r3, #0]
 8000e7e:	0109      	lsls	r1, r1, #4
 8000e80:	68d0      	ldr	r0, [r2, #12]
 8000e82:	4208      	tst	r0, r1
 8000e84:	d112      	bne.n	8000eac <ADC_DMAConvCplt+0x48>
 8000e86:	6a19      	ldr	r1, [r3, #32]
 8000e88:	2900      	cmp	r1, #0
 8000e8a:	d10f      	bne.n	8000eac <ADC_DMAConvCplt+0x48>
       (hadc->Init.ContinuousConvMode == DISABLE)   )
    {
      /* If End of Sequence is reached, disable interrupts */
      if( __HAL_ADC_GET_FLAG(hadc, ADC_FLAG_EOS) )
 8000e8c:	6811      	ldr	r1, [r2, #0]
 8000e8e:	0709      	lsls	r1, r1, #28
 8000e90:	d50c      	bpl.n	8000eac <ADC_DMAConvCplt+0x48>
      {
        /* Allowed to modify bits ADC_IT_EOC/ADC_IT_EOS only if bit           */
        /* ADSTART==0 (no conversion on going)                                */
        if (ADC_IS_CONVERSION_ONGOING_REGULAR(hadc) == RESET)
 8000e92:	6891      	ldr	r1, [r2, #8]
 8000e94:	0749      	lsls	r1, r1, #29
 8000e96:	d40d      	bmi.n	8000eb4 <ADC_DMAConvCplt+0x50>
        {
          /* Disable ADC end of single conversion interrupt on group regular */
          /* Note: Overrun interrupt was enabled with EOC interrupt in        */
          /* HAL_Start_IT(), but is not disabled here because can be used     */
          /* by overrun IRQ process below.                                    */
          __HAL_ADC_DISABLE_IT(hadc, ADC_IT_EOC | ADC_IT_EOS);
 8000e98:	200c      	movs	r0, #12
 8000e9a:	6851      	ldr	r1, [r2, #4]
 8000e9c:	4381      	bics	r1, r0
 8000e9e:	6051      	str	r1, [r2, #4]
          
          /* Set ADC state */
          ADC_STATE_CLR_SET(hadc->State,
 8000ea0:	6c5a      	ldr	r2, [r3, #68]	; 0x44
 8000ea2:	490b      	ldr	r1, [pc, #44]	; (8000ed0 <ADC_DMAConvCplt+0x6c>)
 8000ea4:	4011      	ands	r1, r2
 8000ea6:	2201      	movs	r2, #1
 8000ea8:	430a      	orrs	r2, r1
 8000eaa:	645a      	str	r2, [r3, #68]	; 0x44
        }
      }
    }

    /* Conversion complete callback */
    HAL_ADC_ConvCpltCallback(hadc); 
 8000eac:	0018      	movs	r0, r3
 8000eae:	f7ff ffd7 	bl	8000e60 <HAL_ADC_ConvCpltCallback>
  {
    /* Call DMA error callback */
    hadc->DMA_Handle->XferErrorCallback(hdma);
  }

}
 8000eb2:	bd10      	pop	{r4, pc}
          SET_BIT(hadc->State, HAL_ADC_STATE_ERROR_CONFIG);
 8000eb4:	2220      	movs	r2, #32
 8000eb6:	6c59      	ldr	r1, [r3, #68]	; 0x44
 8000eb8:	430a      	orrs	r2, r1
 8000eba:	645a      	str	r2, [r3, #68]	; 0x44
          SET_BIT(hadc->ErrorCode, HAL_ADC_ERROR_INTERNAL);
 8000ebc:	2201      	movs	r2, #1
 8000ebe:	6c99      	ldr	r1, [r3, #72]	; 0x48
 8000ec0:	430a      	orrs	r2, r1
 8000ec2:	649a      	str	r2, [r3, #72]	; 0x48
 8000ec4:	e7f2      	b.n	8000eac <ADC_DMAConvCplt+0x48>
    hadc->DMA_Handle->XferErrorCallback(hdma);
 8000ec6:	6bdb      	ldr	r3, [r3, #60]	; 0x3c
 8000ec8:	6b1b      	ldr	r3, [r3, #48]	; 0x30
 8000eca:	4798      	blx	r3
}
 8000ecc:	e7f1      	b.n	8000eb2 <ADC_DMAConvCplt+0x4e>
 8000ece:	46c0      	nop			; (mov r8, r8)
 8000ed0:	fffffefe 	.word	0xfffffefe

08000ed4 <HAL_ADC_ConvHalfCpltCallback>:
 8000ed4:	4770      	bx	lr

08000ed6 <ADC_DMAHalfConvCplt>:
  * @brief  DMA half transfer complete callback. 
  * @param  hdma pointer to DMA handle.
  * @retval None
  */
static void ADC_DMAHalfConvCplt(DMA_HandleTypeDef *hdma)   
{
 8000ed6:	b510      	push	{r4, lr}
  /* Retrieve ADC handle corresponding to current DMA handle */
  ADC_HandleTypeDef* hadc = ( ADC_HandleTypeDef* )((DMA_HandleTypeDef* )hdma)->Parent;
  
  /* Half conversion callback */
  HAL_ADC_ConvHalfCpltCallback(hadc); 
 8000ed8:	6a40      	ldr	r0, [r0, #36]	; 0x24
 8000eda:	f7ff fffb 	bl	8000ed4 <HAL_ADC_ConvHalfCpltCallback>
}
 8000ede:	bd10      	pop	{r4, pc}

08000ee0 <HAL_ADC_ErrorCallback>:
}
 8000ee0:	4770      	bx	lr

08000ee2 <ADC_DMAError>:
{
  /* Retrieve ADC handle corresponding to current DMA handle */
  ADC_HandleTypeDef* hadc = ( ADC_HandleTypeDef* )((DMA_HandleTypeDef* )hdma)->Parent;
  
  /* Set ADC state */
  SET_BIT(hadc->State, HAL_ADC_STATE_ERROR_DMA);
 8000ee2:	2340      	movs	r3, #64	; 0x40
  ADC_HandleTypeDef* hadc = ( ADC_HandleTypeDef* )((DMA_HandleTypeDef* )hdma)->Parent;
 8000ee4:	6a40      	ldr	r0, [r0, #36]	; 0x24
{
 8000ee6:	b510      	push	{r4, lr}
  SET_BIT(hadc->State, HAL_ADC_STATE_ERROR_DMA);
 8000ee8:	6c42      	ldr	r2, [r0, #68]	; 0x44
 8000eea:	4313      	orrs	r3, r2
 8000eec:	6443      	str	r3, [r0, #68]	; 0x44
  
  /* Set ADC error code to DMA error */
  SET_BIT(hadc->ErrorCode, HAL_ADC_ERROR_DMA);
 8000eee:	2304      	movs	r3, #4
 8000ef0:	6c82      	ldr	r2, [r0, #72]	; 0x48
 8000ef2:	4313      	orrs	r3, r2
 8000ef4:	6483      	str	r3, [r0, #72]	; 0x48
  
  /* Error callback */
  HAL_ADC_ErrorCallback(hadc); 
 8000ef6:	f7ff fff3 	bl	8000ee0 <HAL_ADC_ErrorCallback>
}
 8000efa:	bd10      	pop	{r4, pc}

08000efc <HAL_ADC_ConfigChannel>:
{
 8000efc:	b5f7      	push	{r0, r1, r2, r4, r5, r6, r7, lr}
  __IO uint32_t wait_loop_index = 0U;
 8000efe:	2300      	movs	r3, #0
  __HAL_LOCK(hadc);
 8000f00:	0004      	movs	r4, r0
  __IO uint32_t wait_loop_index = 0U;
 8000f02:	9301      	str	r3, [sp, #4]
  __HAL_LOCK(hadc);
 8000f04:	3440      	adds	r4, #64	; 0x40
 8000f06:	7823      	ldrb	r3, [r4, #0]
{
 8000f08:	0005      	movs	r5, r0
  __HAL_LOCK(hadc);
 8000f0a:	2002      	movs	r0, #2
 8000f0c:	2b01      	cmp	r3, #1
 8000f0e:	d02b      	beq.n	8000f68 <HAL_ADC_ConfigChannel+0x6c>
 8000f10:	2301      	movs	r3, #1
  if (ADC_IS_CONVERSION_ONGOING_REGULAR(hadc) == RESET)
 8000f12:	682a      	ldr	r2, [r5, #0]
  if (! IS_ADC_SAMPLE_TIME(hadc->Init.SamplingTimeCommon))
 8000f14:	6bae      	ldr	r6, [r5, #56]	; 0x38
  if (ADC_IS_CONVERSION_ONGOING_REGULAR(hadc) == RESET)
 8000f16:	6890      	ldr	r0, [r2, #8]
  __HAL_LOCK(hadc);
 8000f18:	7023      	strb	r3, [r4, #0]
  if (ADC_IS_CONVERSION_ONGOING_REGULAR(hadc) == RESET)
 8000f1a:	0740      	lsls	r0, r0, #29
 8000f1c:	d452      	bmi.n	8000fc4 <HAL_ADC_ConfigChannel+0xc8>
    if (sConfig->Rank != ADC_RANK_NONE)
 8000f1e:	482c      	ldr	r0, [pc, #176]	; (8000fd0 <HAL_ADC_ConfigChannel+0xd4>)
 8000f20:	684f      	ldr	r7, [r1, #4]
 8000f22:	680d      	ldr	r5, [r1, #0]
 8000f24:	4287      	cmp	r7, r0
 8000f26:	d03b      	beq.n	8000fa0 <HAL_ADC_ConfigChannel+0xa4>
      hadc->Instance->CHSELR |= ADC_CHSELR_CHANNEL(sConfig->Channel);
 8000f28:	40ab      	lsls	r3, r5
 8000f2a:	0018      	movs	r0, r3
      if (! IS_ADC_SAMPLE_TIME(hadc->Init.SamplingTimeCommon))
 8000f2c:	2380      	movs	r3, #128	; 0x80
      hadc->Instance->CHSELR |= ADC_CHSELR_CHANNEL(sConfig->Channel);
 8000f2e:	6a97      	ldr	r7, [r2, #40]	; 0x28
      if (! IS_ADC_SAMPLE_TIME(hadc->Init.SamplingTimeCommon))
 8000f30:	055b      	lsls	r3, r3, #21
      hadc->Instance->CHSELR |= ADC_CHSELR_CHANNEL(sConfig->Channel);
 8000f32:	4338      	orrs	r0, r7
 8000f34:	6290      	str	r0, [r2, #40]	; 0x28
      if (! IS_ADC_SAMPLE_TIME(hadc->Init.SamplingTimeCommon))
 8000f36:	429e      	cmp	r6, r3
 8000f38:	d00f      	beq.n	8000f5a <HAL_ADC_ConfigChannel+0x5e>
 8000f3a:	3e01      	subs	r6, #1
 8000f3c:	2e06      	cmp	r6, #6
 8000f3e:	d90c      	bls.n	8000f5a <HAL_ADC_ConfigChannel+0x5e>
        if (sConfig->SamplingTime != ADC_GET_SAMPLINGTIME(hadc))
 8000f40:	688b      	ldr	r3, [r1, #8]
 8000f42:	2107      	movs	r1, #7
 8000f44:	6950      	ldr	r0, [r2, #20]
 8000f46:	4008      	ands	r0, r1
 8000f48:	4283      	cmp	r3, r0
 8000f4a:	d006      	beq.n	8000f5a <HAL_ADC_ConfigChannel+0x5e>
          hadc->Instance->SMPR &= ~(ADC_SMPR_SMP);
 8000f4c:	6950      	ldr	r0, [r2, #20]
          hadc->Instance->SMPR |= ADC_SMPR_SET(sConfig->SamplingTime);
 8000f4e:	400b      	ands	r3, r1
          hadc->Instance->SMPR &= ~(ADC_SMPR_SMP);
 8000f50:	4388      	bics	r0, r1
 8000f52:	6150      	str	r0, [r2, #20]
          hadc->Instance->SMPR |= ADC_SMPR_SET(sConfig->SamplingTime);
 8000f54:	6950      	ldr	r0, [r2, #20]
 8000f56:	4303      	orrs	r3, r0
 8000f58:	6153      	str	r3, [r2, #20]
      if(ADC_IS_CHANNEL_INTERNAL(sConfig->Channel))
 8000f5a:	002b      	movs	r3, r5
 8000f5c:	3b10      	subs	r3, #16
 8000f5e:	2b01      	cmp	r3, #1
 8000f60:	d903      	bls.n	8000f6a <HAL_ADC_ConfigChannel+0x6e>
  HAL_StatusTypeDef tmp_hal_status = HAL_OK;
 8000f62:	2000      	movs	r0, #0
  __HAL_UNLOCK(hadc);
 8000f64:	2300      	movs	r3, #0
 8000f66:	7023      	strb	r3, [r4, #0]
}
 8000f68:	bdfe      	pop	{r1, r2, r3, r4, r5, r6, r7, pc}
        ADC->CCR |= ADC_CHANNEL_INTERNAL_PATH(sConfig->Channel);
 8000f6a:	4b1a      	ldr	r3, [pc, #104]	; (8000fd4 <HAL_ADC_ConfigChannel+0xd8>)
 8000f6c:	2280      	movs	r2, #128	; 0x80
 8000f6e:	6819      	ldr	r1, [r3, #0]
 8000f70:	2d10      	cmp	r5, #16
 8000f72:	d013      	beq.n	8000f9c <HAL_ADC_ConfigChannel+0xa0>
 8000f74:	03d2      	lsls	r2, r2, #15
 8000f76:	430a      	orrs	r2, r1
 8000f78:	601a      	str	r2, [r3, #0]
        if (sConfig->Channel == ADC_CHANNEL_TEMPSENSOR)
 8000f7a:	2d10      	cmp	r5, #16
 8000f7c:	d1f1      	bne.n	8000f62 <HAL_ADC_ConfigChannel+0x66>
          wait_loop_index = (ADC_TEMPSENSOR_DELAY_US * (SystemCoreClock / 1000000U));
 8000f7e:	4b16      	ldr	r3, [pc, #88]	; (8000fd8 <HAL_ADC_ConfigChannel+0xdc>)
 8000f80:	4916      	ldr	r1, [pc, #88]	; (8000fdc <HAL_ADC_ConfigChannel+0xe0>)
 8000f82:	6818      	ldr	r0, [r3, #0]
 8000f84:	f7ff f8d2 	bl	800012c <__udivsi3>
 8000f88:	230a      	movs	r3, #10
 8000f8a:	4358      	muls	r0, r3
 8000f8c:	9001      	str	r0, [sp, #4]
          while(wait_loop_index != 0U)
 8000f8e:	9b01      	ldr	r3, [sp, #4]
 8000f90:	2b00      	cmp	r3, #0
 8000f92:	d0e6      	beq.n	8000f62 <HAL_ADC_ConfigChannel+0x66>
            wait_loop_index--;
 8000f94:	9b01      	ldr	r3, [sp, #4]
 8000f96:	3b01      	subs	r3, #1
 8000f98:	9301      	str	r3, [sp, #4]
 8000f9a:	e7f8      	b.n	8000f8e <HAL_ADC_ConfigChannel+0x92>
        ADC->CCR |= ADC_CHANNEL_INTERNAL_PATH(sConfig->Channel);
 8000f9c:	0412      	lsls	r2, r2, #16
 8000f9e:	e7ea      	b.n	8000f76 <HAL_ADC_ConfigChannel+0x7a>
      hadc->Instance->CHSELR &= ~ADC_CHSELR_CHANNEL(sConfig->Channel);
 8000fa0:	40ab      	lsls	r3, r5
 8000fa2:	6a91      	ldr	r1, [r2, #40]	; 0x28
 8000fa4:	4399      	bics	r1, r3
      if(ADC_IS_CHANNEL_INTERNAL(sConfig->Channel))
 8000fa6:	002b      	movs	r3, r5
 8000fa8:	3b10      	subs	r3, #16
      hadc->Instance->CHSELR &= ~ADC_CHSELR_CHANNEL(sConfig->Channel);
 8000faa:	6291      	str	r1, [r2, #40]	; 0x28
      if(ADC_IS_CHANNEL_INTERNAL(sConfig->Channel))
 8000fac:	2b01      	cmp	r3, #1
 8000fae:	d8d8      	bhi.n	8000f62 <HAL_ADC_ConfigChannel+0x66>
        ADC->CCR &= ~ADC_CHANNEL_INTERNAL_PATH(sConfig->Channel);
 8000fb0:	4b08      	ldr	r3, [pc, #32]	; (8000fd4 <HAL_ADC_ConfigChannel+0xd8>)
 8000fb2:	681a      	ldr	r2, [r3, #0]
 8000fb4:	2d10      	cmp	r5, #16
 8000fb6:	d003      	beq.n	8000fc0 <HAL_ADC_ConfigChannel+0xc4>
 8000fb8:	4909      	ldr	r1, [pc, #36]	; (8000fe0 <HAL_ADC_ConfigChannel+0xe4>)
 8000fba:	400a      	ands	r2, r1
 8000fbc:	601a      	str	r2, [r3, #0]
 8000fbe:	e7d0      	b.n	8000f62 <HAL_ADC_ConfigChannel+0x66>
 8000fc0:	4908      	ldr	r1, [pc, #32]	; (8000fe4 <HAL_ADC_ConfigChannel+0xe8>)
 8000fc2:	e7fa      	b.n	8000fba <HAL_ADC_ConfigChannel+0xbe>
    SET_BIT(hadc->State, HAL_ADC_STATE_ERROR_CONFIG);
 8000fc4:	2220      	movs	r2, #32
 8000fc6:	6c69      	ldr	r1, [r5, #68]	; 0x44
    tmp_hal_status = HAL_ERROR;
 8000fc8:	0018      	movs	r0, r3
    SET_BIT(hadc->State, HAL_ADC_STATE_ERROR_CONFIG);
 8000fca:	430a      	orrs	r2, r1
 8000fcc:	646a      	str	r2, [r5, #68]	; 0x44
 8000fce:	e7c9      	b.n	8000f64 <HAL_ADC_ConfigChannel+0x68>
 8000fd0:	00001001 	.word	0x00001001
 8000fd4:	40012708 	.word	0x40012708
 8000fd8:	20000000 	.word	0x20000000
 8000fdc:	000f4240 	.word	0x000f4240
 8000fe0:	ffbfffff 	.word	0xffbfffff
 8000fe4:	ff7fffff 	.word	0xff7fffff

08000fe8 <HAL_ADCEx_Calibration_Start>:
  *         HAL_ADC_GetValue() (value on 7 bits: from DR[6;0]).
  * @param  hadc ADC handle
  * @retval HAL status
  */
HAL_StatusTypeDef HAL_ADCEx_Calibration_Start(ADC_HandleTypeDef* hadc)
{
 8000fe8:	b5f8      	push	{r3, r4, r5, r6, r7, lr}
  
  /* Check the parameters */
  assert_param(IS_ADC_ALL_INSTANCE(hadc->Instance));

  /* Process locked */
  __HAL_LOCK(hadc);
 8000fea:	0006      	movs	r6, r0
 8000fec:	3640      	adds	r6, #64	; 0x40
 8000fee:	7833      	ldrb	r3, [r6, #0]
{
 8000ff0:	0004      	movs	r4, r0
  __HAL_LOCK(hadc);
 8000ff2:	2002      	movs	r0, #2
 8000ff4:	2b01      	cmp	r3, #1
 8000ff6:	d042      	beq.n	800107e <HAL_ADCEx_Calibration_Start+0x96>
 8000ff8:	2301      	movs	r3, #1
  
  /* Calibration prerequisite: ADC must be disabled. */
  if (ADC_IS_ENABLE(hadc) == RESET)
 8000ffa:	2103      	movs	r1, #3
  __HAL_LOCK(hadc);
 8000ffc:	7033      	strb	r3, [r6, #0]
  if (ADC_IS_ENABLE(hadc) == RESET)
 8000ffe:	6823      	ldr	r3, [r4, #0]
 8001000:	689a      	ldr	r2, [r3, #8]
 8001002:	400a      	ands	r2, r1
 8001004:	2a01      	cmp	r2, #1
 8001006:	d105      	bne.n	8001014 <HAL_ADCEx_Calibration_Start+0x2c>
 8001008:	6819      	ldr	r1, [r3, #0]
 800100a:	4211      	tst	r1, r2
 800100c:	d138      	bne.n	8001080 <HAL_ADCEx_Calibration_Start+0x98>
 800100e:	68da      	ldr	r2, [r3, #12]
 8001010:	0412      	lsls	r2, r2, #16
 8001012:	d435      	bmi.n	8001080 <HAL_ADCEx_Calibration_Start+0x98>
  {
    /* Set ADC state */
    ADC_STATE_CLR_SET(hadc->State, 
 8001014:	6c62      	ldr	r2, [r4, #68]	; 0x44
 8001016:	491d      	ldr	r1, [pc, #116]	; (800108c <HAL_ADCEx_Calibration_Start+0xa4>)
 8001018:	4011      	ands	r1, r2
 800101a:	2202      	movs	r2, #2
 800101c:	430a      	orrs	r2, r1
    /*       available in data register and also transfered by DMA.           */
    /*       To not insert ADC calibration factor among ADC conversion data   */
    /*       in array variable, DMA transfer must be disabled during          */
    /*       calibration.                                                     */
    backup_setting_adc_dma_transfer = READ_BIT(hadc->Instance->CFGR1, ADC_CFGR1_DMAEN | ADC_CFGR1_DMACFG);
    CLEAR_BIT(hadc->Instance->CFGR1, ADC_CFGR1_DMAEN | ADC_CFGR1_DMACFG);
 800101e:	2103      	movs	r1, #3
    ADC_STATE_CLR_SET(hadc->State, 
 8001020:	6462      	str	r2, [r4, #68]	; 0x44
    backup_setting_adc_dma_transfer = READ_BIT(hadc->Instance->CFGR1, ADC_CFGR1_DMAEN | ADC_CFGR1_DMACFG);
 8001022:	68dd      	ldr	r5, [r3, #12]
    CLEAR_BIT(hadc->Instance->CFGR1, ADC_CFGR1_DMAEN | ADC_CFGR1_DMACFG);
 8001024:	68da      	ldr	r2, [r3, #12]
 8001026:	438a      	bics	r2, r1
 8001028:	60da      	str	r2, [r3, #12]

    /* Start ADC calibration */
    hadc->Instance->CR |= ADC_CR_ADCAL;
 800102a:	2280      	movs	r2, #128	; 0x80
 800102c:	6899      	ldr	r1, [r3, #8]
 800102e:	0612      	lsls	r2, r2, #24
 8001030:	430a      	orrs	r2, r1
 8001032:	609a      	str	r2, [r3, #8]

    tickstart = HAL_GetTick();  
 8001034:	f7ff fdd2 	bl	8000bdc <HAL_GetTick>
 8001038:	0007      	movs	r7, r0

    /* Wait for calibration completion */
    while(HAL_IS_BIT_SET(hadc->Instance->CR, ADC_CR_ADCAL))
 800103a:	6823      	ldr	r3, [r4, #0]
 800103c:	689a      	ldr	r2, [r3, #8]
 800103e:	2a00      	cmp	r2, #0
 8001040:	db0e      	blt.n	8001060 <HAL_ADCEx_Calibration_Start+0x78>
    backup_setting_adc_dma_transfer = READ_BIT(hadc->Instance->CFGR1, ADC_CFGR1_DMAEN | ADC_CFGR1_DMACFG);
 8001042:	2203      	movs	r2, #3
        return HAL_ERROR;
      }
    }
    
    /* Restore ADC DMA transfer request after calibration */
    SET_BIT(hadc->Instance->CFGR1, backup_setting_adc_dma_transfer);
 8001044:	68d9      	ldr	r1, [r3, #12]
    backup_setting_adc_dma_transfer = READ_BIT(hadc->Instance->CFGR1, ADC_CFGR1_DMAEN | ADC_CFGR1_DMACFG);
 8001046:	4015      	ands	r5, r2
    SET_BIT(hadc->Instance->CFGR1, backup_setting_adc_dma_transfer);
 8001048:	430d      	orrs	r5, r1
 800104a:	60dd      	str	r5, [r3, #12]

    /* Set ADC state */
    ADC_STATE_CLR_SET(hadc->State,
 800104c:	6c63      	ldr	r3, [r4, #68]	; 0x44
  HAL_StatusTypeDef tmp_hal_status = HAL_OK;
 800104e:	2000      	movs	r0, #0
    ADC_STATE_CLR_SET(hadc->State,
 8001050:	4393      	bics	r3, r2
 8001052:	001a      	movs	r2, r3
 8001054:	2301      	movs	r3, #1
 8001056:	4313      	orrs	r3, r2
 8001058:	6463      	str	r3, [r4, #68]	; 0x44
    
    tmp_hal_status = HAL_ERROR;
  }
  
  /* Process unlocked */
  __HAL_UNLOCK(hadc);
 800105a:	2300      	movs	r3, #0
 800105c:	7033      	strb	r3, [r6, #0]
  
  /* Return function status */
  return tmp_hal_status;
 800105e:	e00e      	b.n	800107e <HAL_ADCEx_Calibration_Start+0x96>
      if((HAL_GetTick() - tickstart) > ADC_CALIBRATION_TIMEOUT)
 8001060:	f7ff fdbc 	bl	8000bdc <HAL_GetTick>
 8001064:	1bc0      	subs	r0, r0, r7
 8001066:	2802      	cmp	r0, #2
 8001068:	d9e7      	bls.n	800103a <HAL_ADCEx_Calibration_Start+0x52>
        ADC_STATE_CLR_SET(hadc->State,
 800106a:	2212      	movs	r2, #18
 800106c:	6c63      	ldr	r3, [r4, #68]	; 0x44
        return HAL_ERROR;
 800106e:	2001      	movs	r0, #1
        ADC_STATE_CLR_SET(hadc->State,
 8001070:	4393      	bics	r3, r2
 8001072:	001a      	movs	r2, r3
 8001074:	2310      	movs	r3, #16
 8001076:	4313      	orrs	r3, r2
 8001078:	6463      	str	r3, [r4, #68]	; 0x44
        __HAL_UNLOCK(hadc);
 800107a:	2300      	movs	r3, #0
 800107c:	7033      	strb	r3, [r6, #0]
}
 800107e:	bdf8      	pop	{r3, r4, r5, r6, r7, pc}
    SET_BIT(hadc->State, HAL_ADC_STATE_ERROR_CONFIG);
 8001080:	2320      	movs	r3, #32
 8001082:	6c62      	ldr	r2, [r4, #68]	; 0x44
    tmp_hal_status = HAL_ERROR;
 8001084:	2001      	movs	r0, #1
    SET_BIT(hadc->State, HAL_ADC_STATE_ERROR_CONFIG);
 8001086:	4313      	orrs	r3, r2
 8001088:	6463      	str	r3, [r4, #68]	; 0x44
 800108a:	e7e6      	b.n	800105a <HAL_ADCEx_Calibration_Start+0x72>
 800108c:	fffffefd 	.word	0xfffffefd

08001090 <HAL_NVIC_SetPriority>:
  *         with stm32f0xx devices, this parameter is a dummy value and it is ignored, because 
  *         no subpriority supported in Cortex M0 based products.   
  * @retval None
  */
void HAL_NVIC_SetPriority(IRQn_Type IRQn, uint32_t PreemptPriority, uint32_t SubPriority)
{ 
 8001090:	b570      	push	{r4, r5, r6, lr}
 8001092:	0189      	lsls	r1, r1, #6
  \param [in]      IRQn  Interrupt number.
  \param [in]  priority  Priority to set.
 */
__STATIC_INLINE void NVIC_SetPriority(IRQn_Type IRQn, uint32_t priority)
{
  if ((int32_t)(IRQn) < 0)
 8001094:	2800      	cmp	r0, #0
 8001096:	da14      	bge.n	80010c2 <HAL_NVIC_SetPriority+0x32>
  {
    SCB->SHP[_SHP_IDX(IRQn)] = ((uint32_t)(SCB->SHP[_SHP_IDX(IRQn)] & ~(0xFFUL << _BIT_SHIFT(IRQn))) |
 8001098:	230f      	movs	r3, #15
 800109a:	b2c0      	uxtb	r0, r0
 800109c:	4003      	ands	r3, r0
 800109e:	3b08      	subs	r3, #8
 80010a0:	4a11      	ldr	r2, [pc, #68]	; (80010e8 <HAL_NVIC_SetPriority+0x58>)
 80010a2:	089b      	lsrs	r3, r3, #2
 80010a4:	009b      	lsls	r3, r3, #2
 80010a6:	189b      	adds	r3, r3, r2
 80010a8:	2203      	movs	r2, #3
 80010aa:	4010      	ands	r0, r2
 80010ac:	4090      	lsls	r0, r2
 80010ae:	32fc      	adds	r2, #252	; 0xfc
 80010b0:	0015      	movs	r5, r2
       (((priority << (8U - __NVIC_PRIO_BITS)) & (uint32_t)0xFFUL) << _BIT_SHIFT(IRQn)));
 80010b2:	4011      	ands	r1, r2
    SCB->SHP[_SHP_IDX(IRQn)] = ((uint32_t)(SCB->SHP[_SHP_IDX(IRQn)] & ~(0xFFUL << _BIT_SHIFT(IRQn))) |
 80010b4:	4085      	lsls	r5, r0
       (((priority << (8U - __NVIC_PRIO_BITS)) & (uint32_t)0xFFUL) << _BIT_SHIFT(IRQn)));
 80010b6:	4081      	lsls	r1, r0
    SCB->SHP[_SHP_IDX(IRQn)] = ((uint32_t)(SCB->SHP[_SHP_IDX(IRQn)] & ~(0xFFUL << _BIT_SHIFT(IRQn))) |
 80010b8:	69dc      	ldr	r4, [r3, #28]
 80010ba:	43ac      	bics	r4, r5
 80010bc:	4321      	orrs	r1, r4
 80010be:	61d9      	str	r1, [r3, #28]
  /* Check the parameters */
  assert_param(IS_NVIC_PREEMPTION_PRIORITY(PreemptPriority));
  NVIC_SetPriority(IRQn,PreemptPriority);
}
 80010c0:	bd70      	pop	{r4, r5, r6, pc}
  }
  else
  {
    NVIC->IP[_IP_IDX(IRQn)]  = ((uint32_t)(NVIC->IP[_IP_IDX(IRQn)]  & ~(0xFFUL << _BIT_SHIFT(IRQn))) |
 80010c2:	2503      	movs	r5, #3
 80010c4:	0883      	lsrs	r3, r0, #2
 80010c6:	4028      	ands	r0, r5
 80010c8:	40a8      	lsls	r0, r5
 80010ca:	35fc      	adds	r5, #252	; 0xfc
 80010cc:	002e      	movs	r6, r5
 80010ce:	4a07      	ldr	r2, [pc, #28]	; (80010ec <HAL_NVIC_SetPriority+0x5c>)
 80010d0:	009b      	lsls	r3, r3, #2
 80010d2:	189b      	adds	r3, r3, r2
 80010d4:	22c0      	movs	r2, #192	; 0xc0
 80010d6:	4086      	lsls	r6, r0
       (((priority << (8U - __NVIC_PRIO_BITS)) & (uint32_t)0xFFUL) << _BIT_SHIFT(IRQn)));
 80010d8:	4029      	ands	r1, r5
 80010da:	4081      	lsls	r1, r0
    NVIC->IP[_IP_IDX(IRQn)]  = ((uint32_t)(NVIC->IP[_IP_IDX(IRQn)]  & ~(0xFFUL << _BIT_SHIFT(IRQn))) |
 80010dc:	0092      	lsls	r2, r2, #2
 80010de:	589c      	ldr	r4, [r3, r2]
 80010e0:	43b4      	bics	r4, r6
 80010e2:	4321      	orrs	r1, r4
 80010e4:	5099      	str	r1, [r3, r2]
 80010e6:	e7eb      	b.n	80010c0 <HAL_NVIC_SetPriority+0x30>
 80010e8:	e000ed00 	.word	0xe000ed00
 80010ec:	e000e100 	.word	0xe000e100

080010f0 <HAL_NVIC_EnableIRQ>:
  NVIC->ISER[0U] = (uint32_t)(1UL << (((uint32_t)(int32_t)IRQn) & 0x1FUL));
 80010f0:	231f      	movs	r3, #31
 80010f2:	4018      	ands	r0, r3
 80010f4:	3b1e      	subs	r3, #30
 80010f6:	4083      	lsls	r3, r0
 80010f8:	4a01      	ldr	r2, [pc, #4]	; (8001100 <HAL_NVIC_EnableIRQ+0x10>)
 80010fa:	6013      	str	r3, [r2, #0]
  /* Check the parameters */
  assert_param(IS_NVIC_DEVICE_IRQ(IRQn));
  
  /* Enable interrupt */
  NVIC_EnableIRQ(IRQn);
}
 80010fc:	4770      	bx	lr
 80010fe:	46c0      	nop			; (mov r8, r8)
 8001100:	e000e100 	.word	0xe000e100

08001104 <HAL_SYSTICK_Config>:
           function <b>SysTick_Config</b> is not included. In this case, the file <b><i>device</i>.h</b>
           must contain a vendor-specific implementation of this function.
 */
__STATIC_INLINE uint32_t SysTick_Config(uint32_t ticks)
{
  if ((ticks - 1UL) > SysTick_LOAD_RELOAD_Msk)
 8001104:	4a09      	ldr	r2, [pc, #36]	; (800112c <HAL_SYSTICK_Config+0x28>)
 8001106:	1e43      	subs	r3, r0, #1
  {
    return (1UL);                                                   /* Reload value impossible */
 8001108:	2001      	movs	r0, #1
  if ((ticks - 1UL) > SysTick_LOAD_RELOAD_Msk)
 800110a:	4293      	cmp	r3, r2
 800110c:	d80d      	bhi.n	800112a <HAL_SYSTICK_Config+0x26>
    SCB->SHP[_SHP_IDX(IRQn)] = ((uint32_t)(SCB->SHP[_SHP_IDX(IRQn)] & ~(0xFFUL << _BIT_SHIFT(IRQn))) |
 800110e:	21c0      	movs	r1, #192	; 0xc0
  }

  SysTick->LOAD  = (uint32_t)(ticks - 1UL);                         /* set reload register */
 8001110:	4a07      	ldr	r2, [pc, #28]	; (8001130 <HAL_SYSTICK_Config+0x2c>)
    SCB->SHP[_SHP_IDX(IRQn)] = ((uint32_t)(SCB->SHP[_SHP_IDX(IRQn)] & ~(0xFFUL << _BIT_SHIFT(IRQn))) |
 8001112:	4808      	ldr	r0, [pc, #32]	; (8001134 <HAL_SYSTICK_Config+0x30>)
  SysTick->LOAD  = (uint32_t)(ticks - 1UL);                         /* set reload register */
 8001114:	6053      	str	r3, [r2, #4]
    SCB->SHP[_SHP_IDX(IRQn)] = ((uint32_t)(SCB->SHP[_SHP_IDX(IRQn)] & ~(0xFFUL << _BIT_SHIFT(IRQn))) |
 8001116:	6a03      	ldr	r3, [r0, #32]
 8001118:	0609      	lsls	r1, r1, #24
 800111a:	021b      	lsls	r3, r3, #8
 800111c:	0a1b      	lsrs	r3, r3, #8
 800111e:	430b      	orrs	r3, r1
 8001120:	6203      	str	r3, [r0, #32]
  NVIC_SetPriority (SysTick_IRQn, (1UL << __NVIC_PRIO_BITS) - 1UL); /* set Priority for Systick Interrupt */
  SysTick->VAL   = 0UL;                                             /* Load the SysTick Counter Value */
 8001122:	2000      	movs	r0, #0
  SysTick->CTRL  = SysTick_CTRL_CLKSOURCE_Msk |
 8001124:	2307      	movs	r3, #7
  SysTick->VAL   = 0UL;                                             /* Load the SysTick Counter Value */
 8001126:	6090      	str	r0, [r2, #8]
  SysTick->CTRL  = SysTick_CTRL_CLKSOURCE_Msk |
 8001128:	6013      	str	r3, [r2, #0]
  *                  - 1  Function failed.
  */
uint32_t HAL_SYSTICK_Config(uint32_t TicksNumb)
{
   return SysTick_Config(TicksNumb);
}
 800112a:	4770      	bx	lr
 800112c:	00ffffff 	.word	0x00ffffff
 8001130:	e000e010 	.word	0xe000e010
 8001134:	e000ed00 	.word	0xe000ed00

08001138 <HAL_SYSTICK_CLKSourceConfig>:
  *             @arg SYSTICK_CLKSOURCE_HCLK_DIV8: AHB clock divided by 8 selected as SysTick clock source.
  *             @arg SYSTICK_CLKSOURCE_HCLK: AHB clock selected as SysTick clock source.
  * @retval None
  */
void HAL_SYSTICK_CLKSourceConfig(uint32_t CLKSource)
{
 8001138:	4b05      	ldr	r3, [pc, #20]	; (8001150 <HAL_SYSTICK_CLKSourceConfig+0x18>)
  /* Check the parameters */
  assert_param(IS_SYSTICK_CLK_SOURCE(CLKSource));
  if (CLKSource == SYSTICK_CLKSOURCE_HCLK)
  {
    SysTick->CTRL |= SYSTICK_CLKSOURCE_HCLK;
 800113a:	681a      	ldr	r2, [r3, #0]
  if (CLKSource == SYSTICK_CLKSOURCE_HCLK)
 800113c:	2804      	cmp	r0, #4
 800113e:	d102      	bne.n	8001146 <HAL_SYSTICK_CLKSourceConfig+0xe>
    SysTick->CTRL |= SYSTICK_CLKSOURCE_HCLK;
 8001140:	4310      	orrs	r0, r2
 8001142:	6018      	str	r0, [r3, #0]
  }
  else
  {
    SysTick->CTRL &= ~SYSTICK_CLKSOURCE_HCLK;
  }
}
 8001144:	4770      	bx	lr
    SysTick->CTRL &= ~SYSTICK_CLKSOURCE_HCLK;
 8001146:	2104      	movs	r1, #4
 8001148:	438a      	bics	r2, r1
 800114a:	601a      	str	r2, [r3, #0]
}
 800114c:	e7fa      	b.n	8001144 <HAL_SYSTICK_CLKSourceConfig+0xc>
 800114e:	46c0      	nop			; (mov r8, r8)
 8001150:	e000e010 	.word	0xe000e010

08001154 <HAL_SYSTICK_Callback>:
__weak void HAL_SYSTICK_Callback(void)
{
  /* NOTE : This function Should not be modified, when the callback is needed,
            the HAL_SYSTICK_Callback could be implemented in the user file
   */
}
 8001154:	4770      	bx	lr

08001156 <HAL_SYSTICK_IRQHandler>:
{
 8001156:	b510      	push	{r4, lr}
  HAL_SYSTICK_Callback();
 8001158:	f7ff fffc 	bl	8001154 <HAL_SYSTICK_Callback>
}
 800115c:	bd10      	pop	{r4, pc}
	...

08001160 <HAL_DMA_Init>:
  * @param  hdma Pointer to a DMA_HandleTypeDef structure that contains
  *               the configuration information for the specified DMA Channel.  
  * @retval HAL status
  */
HAL_StatusTypeDef HAL_DMA_Init(DMA_HandleTypeDef *hdma)
{ 
 8001160:	b570      	push	{r4, r5, r6, lr}
 8001162:	0004      	movs	r4, r0
  uint32_t tmp = 0U;
  
  /* Check the DMA handle allocation */
  if(NULL == hdma)
  {
    return HAL_ERROR;
 8001164:	2001      	movs	r0, #1
  if(NULL == hdma)
 8001166:	2c00      	cmp	r4, #0
 8001168:	d028      	beq.n	80011bc <HAL_DMA_Init+0x5c>
  assert_param(IS_DMA_MEMORY_DATA_SIZE(hdma->Init.MemDataAlignment));
  assert_param(IS_DMA_MODE(hdma->Init.Mode));
  assert_param(IS_DMA_PRIORITY(hdma->Init.Priority));
  
  /* Change DMA peripheral state */
  hdma->State = HAL_DMA_STATE_BUSY;
 800116a:	2302      	movs	r3, #2

  /* Get the CR register value */
  tmp = hdma->Instance->CCR;
 800116c:	6820      	ldr	r0, [r4, #0]
  hdma->State = HAL_DMA_STATE_BUSY;
 800116e:	1ca5      	adds	r5, r4, #2
 8001170:	77eb      	strb	r3, [r5, #31]
  tmp = hdma->Instance->CCR;
 8001172:	6802      	ldr	r2, [r0, #0]
  
  /* Clear PL, MSIZE, PSIZE, MINC, PINC, CIRC, DIR bits */
  tmp &= ((uint32_t)~(DMA_CCR_PL    | DMA_CCR_MSIZE  | DMA_CCR_PSIZE  | \
 8001174:	4b12      	ldr	r3, [pc, #72]	; (80011c0 <HAL_DMA_Init+0x60>)
                      DMA_CCR_MINC  | DMA_CCR_PINC   | DMA_CCR_CIRC   | \
                      DMA_CCR_DIR));
  
  /* Prepare the DMA Channel configuration */
  tmp |=  hdma->Init.Direction        |
 8001176:	68a1      	ldr	r1, [r4, #8]
  tmp &= ((uint32_t)~(DMA_CCR_PL    | DMA_CCR_MSIZE  | DMA_CCR_PSIZE  | \
 8001178:	401a      	ands	r2, r3
  tmp |=  hdma->Init.Direction        |
 800117a:	6863      	ldr	r3, [r4, #4]
 800117c:	430b      	orrs	r3, r1
          hdma->Init.PeriphInc           | hdma->Init.MemInc           |
 800117e:	68e1      	ldr	r1, [r4, #12]
 8001180:	430b      	orrs	r3, r1
 8001182:	6921      	ldr	r1, [r4, #16]
 8001184:	430b      	orrs	r3, r1
          hdma->Init.PeriphDataAlignment | hdma->Init.MemDataAlignment |
 8001186:	6961      	ldr	r1, [r4, #20]
 8001188:	430b      	orrs	r3, r1
 800118a:	69a1      	ldr	r1, [r4, #24]
 800118c:	430b      	orrs	r3, r1
          hdma->Init.Mode                | hdma->Init.Priority;
 800118e:	69e1      	ldr	r1, [r4, #28]
 8001190:	430b      	orrs	r3, r1
  tmp |=  hdma->Init.Direction        |
 8001192:	4313      	orrs	r3, r2

  /* Write to DMA Channel CR register */
  hdma->Instance->CCR = tmp;  
 8001194:	6003      	str	r3, [r0, #0]
    hdma->DmaBaseAddress = DMA2;
  }
#else
  /* calculation of the channel index */
  /* DMA1 */
  hdma->ChannelIndex = (((uint32_t)hdma->Instance - (uint32_t)DMA1_Channel1) / ((uint32_t)DMA1_Channel2 - (uint32_t)DMA1_Channel1)) << 2U;
 8001196:	4b0b      	ldr	r3, [pc, #44]	; (80011c4 <HAL_DMA_Init+0x64>)
 8001198:	2114      	movs	r1, #20
 800119a:	18c0      	adds	r0, r0, r3
 800119c:	f7fe ffc6 	bl	800012c <__udivsi3>
  hdma->DmaBaseAddress = DMA1;
 80011a0:	4b09      	ldr	r3, [pc, #36]	; (80011c8 <HAL_DMA_Init+0x68>)
  hdma->ChannelIndex = (((uint32_t)hdma->Instance - (uint32_t)DMA1_Channel1) / ((uint32_t)DMA1_Channel2 - (uint32_t)DMA1_Channel1)) << 2U;
 80011a2:	0080      	lsls	r0, r0, #2
 80011a4:	6420      	str	r0, [r4, #64]	; 0x40
  hdma->DmaBaseAddress = DMA1;
 80011a6:	63e3      	str	r3, [r4, #60]	; 0x3c
  hdma->XferCpltCallback = NULL;
 80011a8:	2000      	movs	r0, #0
  hdma->State = HAL_DMA_STATE_READY;
 80011aa:	2301      	movs	r3, #1
  hdma->XferCpltCallback = NULL;
 80011ac:	62a0      	str	r0, [r4, #40]	; 0x28
  hdma->XferHalfCpltCallback = NULL;
 80011ae:	62e0      	str	r0, [r4, #44]	; 0x2c
  hdma->XferErrorCallback = NULL;
 80011b0:	6320      	str	r0, [r4, #48]	; 0x30
  hdma->XferAbortCallback = NULL;
 80011b2:	6360      	str	r0, [r4, #52]	; 0x34
  hdma->ErrorCode = HAL_DMA_ERROR_NONE;
 80011b4:	63a0      	str	r0, [r4, #56]	; 0x38
  hdma->Lock = HAL_UNLOCKED;
 80011b6:	18e4      	adds	r4, r4, r3
  hdma->State = HAL_DMA_STATE_READY;
 80011b8:	77eb      	strb	r3, [r5, #31]
  hdma->Lock = HAL_UNLOCKED;
 80011ba:	77e0      	strb	r0, [r4, #31]
}  
 80011bc:	bd70      	pop	{r4, r5, r6, pc}
 80011be:	46c0      	nop			; (mov r8, r8)
 80011c0:	ffffc00f 	.word	0xffffc00f
 80011c4:	bffdfff8 	.word	0xbffdfff8
 80011c8:	40020000 	.word	0x40020000

080011cc <HAL_DMA_Start_IT>:
{
 80011cc:	b5f0      	push	{r4, r5, r6, r7, lr}
  __HAL_LOCK(hdma);
 80011ce:	1c46      	adds	r6, r0, #1
 80011d0:	7ff5      	ldrb	r5, [r6, #31]
 80011d2:	2402      	movs	r4, #2
 80011d4:	2d01      	cmp	r5, #1
 80011d6:	d026      	beq.n	8001226 <HAL_DMA_Start_IT+0x5a>
 80011d8:	2501      	movs	r5, #1
 80011da:	77f5      	strb	r5, [r6, #31]
  if(HAL_DMA_STATE_READY == hdma->State)
 80011dc:	1905      	adds	r5, r0, r4
 80011de:	46ac      	mov	ip, r5
 80011e0:	7fed      	ldrb	r5, [r5, #31]
 80011e2:	2700      	movs	r7, #0
 80011e4:	b2ed      	uxtb	r5, r5
 80011e6:	2d01      	cmp	r5, #1
 80011e8:	d129      	bne.n	800123e <HAL_DMA_Start_IT+0x72>
  	hdma->State = HAL_DMA_STATE_BUSY;
 80011ea:	4666      	mov	r6, ip
 80011ec:	77f4      	strb	r4, [r6, #31]
  	hdma->Instance->CCR &= ~DMA_CCR_EN;
 80011ee:	6804      	ldr	r4, [r0, #0]
  	hdma->ErrorCode = HAL_DMA_ERROR_NONE;
 80011f0:	6387      	str	r7, [r0, #56]	; 0x38
  	hdma->Instance->CCR &= ~DMA_CCR_EN;
 80011f2:	6826      	ldr	r6, [r4, #0]
  hdma->DmaBaseAddress->IFCR  = (DMA_FLAG_GL1 << hdma->ChannelIndex);
 80011f4:	6c07      	ldr	r7, [r0, #64]	; 0x40
  	hdma->Instance->CCR &= ~DMA_CCR_EN;
 80011f6:	43ae      	bics	r6, r5
  hdma->DmaBaseAddress->IFCR  = (DMA_FLAG_GL1 << hdma->ChannelIndex);
 80011f8:	40bd      	lsls	r5, r7
  	hdma->Instance->CCR &= ~DMA_CCR_EN;
 80011fa:	6026      	str	r6, [r4, #0]
  hdma->DmaBaseAddress->IFCR  = (DMA_FLAG_GL1 << hdma->ChannelIndex);
 80011fc:	6bc6      	ldr	r6, [r0, #60]	; 0x3c
 80011fe:	6075      	str	r5, [r6, #4]
  hdma->Instance->CNDTR = DataLength;
 8001200:	6063      	str	r3, [r4, #4]
  if((hdma->Init.Direction) == DMA_MEMORY_TO_PERIPH)
 8001202:	6843      	ldr	r3, [r0, #4]
 8001204:	6805      	ldr	r5, [r0, #0]
 8001206:	2b10      	cmp	r3, #16
 8001208:	d10f      	bne.n	800122a <HAL_DMA_Start_IT+0x5e>
    hdma->Instance->CPAR = DstAddress;
 800120a:	60a2      	str	r2, [r4, #8]
    hdma->Instance->CMAR = SrcAddress;
 800120c:	60e1      	str	r1, [r4, #12]
    if(NULL != hdma->XferHalfCpltCallback )
 800120e:	6ac3      	ldr	r3, [r0, #44]	; 0x2c
      hdma->Instance->CCR |= (DMA_IT_TC | DMA_IT_HT | DMA_IT_TE);
 8001210:	6822      	ldr	r2, [r4, #0]
    if(NULL != hdma->XferHalfCpltCallback )
 8001212:	2b00      	cmp	r3, #0
 8001214:	d00c      	beq.n	8001230 <HAL_DMA_Start_IT+0x64>
      hdma->Instance->CCR |= (DMA_IT_TC | DMA_IT_HT | DMA_IT_TE);
 8001216:	230e      	movs	r3, #14
 8001218:	4313      	orrs	r3, r2
  		hdma->Instance->CCR &= ~DMA_IT_HT;
 800121a:	6023      	str	r3, [r4, #0]
  	hdma->Instance->CCR |= DMA_CCR_EN;
 800121c:	2301      	movs	r3, #1
	HAL_StatusTypeDef status = HAL_OK;
 800121e:	2400      	movs	r4, #0
  	hdma->Instance->CCR |= DMA_CCR_EN;
 8001220:	682a      	ldr	r2, [r5, #0]
 8001222:	4313      	orrs	r3, r2
 8001224:	602b      	str	r3, [r5, #0]
} 
 8001226:	0020      	movs	r0, r4
 8001228:	bdf0      	pop	{r4, r5, r6, r7, pc}
    hdma->Instance->CPAR = SrcAddress;
 800122a:	60a1      	str	r1, [r4, #8]
    hdma->Instance->CMAR = DstAddress;
 800122c:	60e2      	str	r2, [r4, #12]
 800122e:	e7ee      	b.n	800120e <HAL_DMA_Start_IT+0x42>
  		hdma->Instance->CCR |= (DMA_IT_TC | DMA_IT_TE);
 8001230:	230a      	movs	r3, #10
 8001232:	4313      	orrs	r3, r2
  		hdma->Instance->CCR &= ~DMA_IT_HT;
 8001234:	2204      	movs	r2, #4
  		hdma->Instance->CCR |= (DMA_IT_TC | DMA_IT_TE);
 8001236:	6023      	str	r3, [r4, #0]
  		hdma->Instance->CCR &= ~DMA_IT_HT;
 8001238:	6823      	ldr	r3, [r4, #0]
 800123a:	4393      	bics	r3, r2
 800123c:	e7ed      	b.n	800121a <HAL_DMA_Start_IT+0x4e>
    __HAL_UNLOCK(hdma); 
 800123e:	77f7      	strb	r7, [r6, #31]
 8001240:	e7f1      	b.n	8001226 <HAL_DMA_Start_IT+0x5a>

08001242 <HAL_DMA_Abort_IT>:
{  
 8001242:	b570      	push	{r4, r5, r6, lr}
  if(HAL_DMA_STATE_BUSY != hdma->State)
 8001244:	1c84      	adds	r4, r0, #2
 8001246:	7fe3      	ldrb	r3, [r4, #31]
 8001248:	2b02      	cmp	r3, #2
 800124a:	d004      	beq.n	8001256 <HAL_DMA_Abort_IT+0x14>
    hdma->ErrorCode = HAL_DMA_ERROR_NO_XFER;
 800124c:	2304      	movs	r3, #4
 800124e:	6383      	str	r3, [r0, #56]	; 0x38
    status = HAL_ERROR;
 8001250:	3b03      	subs	r3, #3
}
 8001252:	0018      	movs	r0, r3
 8001254:	bd70      	pop	{r4, r5, r6, pc}
    hdma->Instance->CCR &= ~(DMA_IT_TC | DMA_IT_HT | DMA_IT_TE);
 8001256:	210e      	movs	r1, #14
 8001258:	6803      	ldr	r3, [r0, #0]
    hdma->DmaBaseAddress->IFCR = DMA_FLAG_GL1 << hdma->ChannelIndex;
 800125a:	6c05      	ldr	r5, [r0, #64]	; 0x40
    hdma->Instance->CCR &= ~(DMA_IT_TC | DMA_IT_HT | DMA_IT_TE);
 800125c:	681a      	ldr	r2, [r3, #0]
 800125e:	438a      	bics	r2, r1
 8001260:	601a      	str	r2, [r3, #0]
    hdma->Instance->CCR &= ~DMA_CCR_EN;
 8001262:	2201      	movs	r2, #1
 8001264:	6819      	ldr	r1, [r3, #0]
 8001266:	4391      	bics	r1, r2
 8001268:	6019      	str	r1, [r3, #0]
    hdma->DmaBaseAddress->IFCR = DMA_FLAG_GL1 << hdma->ChannelIndex;
 800126a:	0011      	movs	r1, r2
 800126c:	40a9      	lsls	r1, r5
 800126e:	6bc3      	ldr	r3, [r0, #60]	; 0x3c
 8001270:	6059      	str	r1, [r3, #4]
    hdma->State = HAL_DMA_STATE_READY;
 8001272:	77e2      	strb	r2, [r4, #31]
    __HAL_UNLOCK(hdma);
 8001274:	2400      	movs	r4, #0
 8001276:	1883      	adds	r3, r0, r2
    if(hdma->XferAbortCallback != NULL)
 8001278:	6b42      	ldr	r2, [r0, #52]	; 0x34
    __HAL_UNLOCK(hdma);
 800127a:	77dc      	strb	r4, [r3, #31]
  HAL_StatusTypeDef status = HAL_OK;
 800127c:	0013      	movs	r3, r2
    if(hdma->XferAbortCallback != NULL)
 800127e:	42a2      	cmp	r2, r4
 8001280:	d0e7      	beq.n	8001252 <HAL_DMA_Abort_IT+0x10>
      hdma->XferAbortCallback(hdma);
 8001282:	4790      	blx	r2
  HAL_StatusTypeDef status = HAL_OK;
 8001284:	0023      	movs	r3, r4
 8001286:	e7e4      	b.n	8001252 <HAL_DMA_Abort_IT+0x10>

08001288 <HAL_DMA_IRQHandler>:
{
 8001288:	b5f8      	push	{r3, r4, r5, r6, r7, lr}
  if ((RESET != (flag_it & (DMA_FLAG_HT1 << hdma->ChannelIndex))) && (RESET != (source_it & DMA_IT_HT)))
 800128a:	2704      	movs	r7, #4
 800128c:	003e      	movs	r6, r7
 800128e:	6c01      	ldr	r1, [r0, #64]	; 0x40
	uint32_t flag_it = hdma->DmaBaseAddress->ISR;
 8001290:	6bc2      	ldr	r2, [r0, #60]	; 0x3c
  if ((RESET != (flag_it & (DMA_FLAG_HT1 << hdma->ChannelIndex))) && (RESET != (source_it & DMA_IT_HT)))
 8001292:	408e      	lsls	r6, r1
	uint32_t flag_it = hdma->DmaBaseAddress->ISR;
 8001294:	6815      	ldr	r5, [r2, #0]
  uint32_t source_it = hdma->Instance->CCR;
 8001296:	6803      	ldr	r3, [r0, #0]
 8001298:	681c      	ldr	r4, [r3, #0]
  if ((RESET != (flag_it & (DMA_FLAG_HT1 << hdma->ChannelIndex))) && (RESET != (source_it & DMA_IT_HT)))
 800129a:	422e      	tst	r6, r5
 800129c:	d00d      	beq.n	80012ba <HAL_DMA_IRQHandler+0x32>
 800129e:	423c      	tst	r4, r7
 80012a0:	d00b      	beq.n	80012ba <HAL_DMA_IRQHandler+0x32>
  	if((hdma->Instance->CCR & DMA_CCR_CIRC) == 0U)
 80012a2:	6819      	ldr	r1, [r3, #0]
 80012a4:	0689      	lsls	r1, r1, #26
 80012a6:	d402      	bmi.n	80012ae <HAL_DMA_IRQHandler+0x26>
  		hdma->Instance->CCR &= ~DMA_IT_HT;
 80012a8:	6819      	ldr	r1, [r3, #0]
 80012aa:	43b9      	bics	r1, r7
 80012ac:	6019      	str	r1, [r3, #0]
  	if(hdma->XferHalfCpltCallback != NULL)
 80012ae:	6ac3      	ldr	r3, [r0, #44]	; 0x2c
  	hdma->DmaBaseAddress->IFCR = DMA_FLAG_HT1 << hdma->ChannelIndex;
 80012b0:	6056      	str	r6, [r2, #4]
  	if(hdma->XferHalfCpltCallback != NULL)
 80012b2:	2b00      	cmp	r3, #0
 80012b4:	d019      	beq.n	80012ea <HAL_DMA_IRQHandler+0x62>
    	hdma->XferErrorCallback(hdma);
 80012b6:	4798      	blx	r3
}  
 80012b8:	e017      	b.n	80012ea <HAL_DMA_IRQHandler+0x62>
  else if ((RESET != (flag_it & (DMA_FLAG_TC1 << hdma->ChannelIndex))) && (RESET != (source_it & DMA_IT_TC)))
 80012ba:	2702      	movs	r7, #2
 80012bc:	003e      	movs	r6, r7
 80012be:	408e      	lsls	r6, r1
 80012c0:	422e      	tst	r6, r5
 80012c2:	d013      	beq.n	80012ec <HAL_DMA_IRQHandler+0x64>
 80012c4:	423c      	tst	r4, r7
 80012c6:	d011      	beq.n	80012ec <HAL_DMA_IRQHandler+0x64>
  	if((hdma->Instance->CCR & DMA_CCR_CIRC) == 0U)
 80012c8:	6819      	ldr	r1, [r3, #0]
 80012ca:	0689      	lsls	r1, r1, #26
 80012cc:	d406      	bmi.n	80012dc <HAL_DMA_IRQHandler+0x54>
  		hdma->Instance->CCR &= ~(DMA_IT_TC | DMA_IT_TE);
 80012ce:	240a      	movs	r4, #10
 80012d0:	6819      	ldr	r1, [r3, #0]
 80012d2:	43a1      	bics	r1, r4
 80012d4:	6019      	str	r1, [r3, #0]
  		hdma->State = HAL_DMA_STATE_READY;
 80012d6:	2101      	movs	r1, #1
 80012d8:	19c3      	adds	r3, r0, r7
 80012da:	77d9      	strb	r1, [r3, #31]
  	hdma->DmaBaseAddress->IFCR = DMA_FLAG_TC1 << hdma->ChannelIndex;
 80012dc:	6056      	str	r6, [r2, #4]
  	__HAL_UNLOCK(hdma);
 80012de:	2200      	movs	r2, #0
 80012e0:	1c43      	adds	r3, r0, #1
 80012e2:	77da      	strb	r2, [r3, #31]
  	if(hdma->XferCpltCallback != NULL)
 80012e4:	6a83      	ldr	r3, [r0, #40]	; 0x28
    if(hdma->XferErrorCallback != NULL)
 80012e6:	4293      	cmp	r3, r2
 80012e8:	d1e5      	bne.n	80012b6 <HAL_DMA_IRQHandler+0x2e>
}  
 80012ea:	bdf8      	pop	{r3, r4, r5, r6, r7, pc}
  else if (( RESET != (flag_it & (DMA_FLAG_TE1 << hdma->ChannelIndex))) && (RESET != (source_it & DMA_IT_TE)))
 80012ec:	2608      	movs	r6, #8
 80012ee:	0037      	movs	r7, r6
 80012f0:	408f      	lsls	r7, r1
 80012f2:	423d      	tst	r5, r7
 80012f4:	d0f9      	beq.n	80012ea <HAL_DMA_IRQHandler+0x62>
 80012f6:	4234      	tst	r4, r6
 80012f8:	d0f7      	beq.n	80012ea <HAL_DMA_IRQHandler+0x62>
    hdma->Instance->CCR &= ~(DMA_IT_TC | DMA_IT_HT | DMA_IT_TE);
 80012fa:	250e      	movs	r5, #14
 80012fc:	681c      	ldr	r4, [r3, #0]
 80012fe:	43ac      	bics	r4, r5
 8001300:	601c      	str	r4, [r3, #0]
    hdma->DmaBaseAddress->IFCR = DMA_FLAG_GL1 << hdma->ChannelIndex;
 8001302:	2301      	movs	r3, #1
 8001304:	001c      	movs	r4, r3
 8001306:	408c      	lsls	r4, r1
 8001308:	6054      	str	r4, [r2, #4]
    hdma->State = HAL_DMA_STATE_READY;    
 800130a:	1c82      	adds	r2, r0, #2
    hdma->ErrorCode = HAL_DMA_ERROR_TE;
 800130c:	6383      	str	r3, [r0, #56]	; 0x38
    hdma->State = HAL_DMA_STATE_READY;    
 800130e:	77d3      	strb	r3, [r2, #31]
    __HAL_UNLOCK(hdma); 
 8001310:	2200      	movs	r2, #0
 8001312:	18c3      	adds	r3, r0, r3
 8001314:	77da      	strb	r2, [r3, #31]
    if(hdma->XferErrorCallback != NULL)
 8001316:	6b03      	ldr	r3, [r0, #48]	; 0x30
 8001318:	e7e5      	b.n	80012e6 <HAL_DMA_IRQHandler+0x5e>
	...

0800131c <HAL_GPIO_Init>:
  * @param  GPIO_Init pointer to a GPIO_InitTypeDef structure that contains
  *         the configuration information for the specified GPIO peripheral.
  * @retval None
  */
void HAL_GPIO_Init(GPIO_TypeDef  *GPIOx, GPIO_InitTypeDef *GPIO_Init)
{ 
 800131c:	b5f0      	push	{r4, r5, r6, r7, lr}
  assert_param(IS_GPIO_PIN(GPIO_Init->Pin));
  assert_param(IS_GPIO_MODE(GPIO_Init->Mode));
  assert_param(IS_GPIO_PULL(GPIO_Init->Pull)); 

  /* Configure the port pins */
  while (((GPIO_Init->Pin) >> position) != RESET)
 800131e:	680b      	ldr	r3, [r1, #0]
{ 
 8001320:	b087      	sub	sp, #28
  while (((GPIO_Init->Pin) >> position) != RESET)
 8001322:	9302      	str	r3, [sp, #8]
  uint32_t position = 0x00U;
 8001324:	2300      	movs	r3, #0
{ 
 8001326:	9101      	str	r1, [sp, #4]
  while (((GPIO_Init->Pin) >> position) != RESET)
 8001328:	9a02      	ldr	r2, [sp, #8]
 800132a:	40da      	lsrs	r2, r3
 800132c:	d101      	bne.n	8001332 <HAL_GPIO_Init+0x16>
      }
    }
    
    position++;
  } 
}
 800132e:	b007      	add	sp, #28
 8001330:	bdf0      	pop	{r4, r5, r6, r7, pc}
    iocurrent = (GPIO_Init->Pin) & (1U << position);
 8001332:	2201      	movs	r2, #1
 8001334:	409a      	lsls	r2, r3
 8001336:	9203      	str	r2, [sp, #12]
 8001338:	9903      	ldr	r1, [sp, #12]
 800133a:	9a02      	ldr	r2, [sp, #8]
 800133c:	400a      	ands	r2, r1
 800133e:	9200      	str	r2, [sp, #0]
    if(iocurrent)
 8001340:	d100      	bne.n	8001344 <HAL_GPIO_Init+0x28>
 8001342:	e08c      	b.n	800145e <HAL_GPIO_Init+0x142>
      if((GPIO_Init->Mode == GPIO_MODE_AF_PP) || (GPIO_Init->Mode == GPIO_MODE_AF_OD)) 
 8001344:	9a01      	ldr	r2, [sp, #4]
 8001346:	2110      	movs	r1, #16
 8001348:	6852      	ldr	r2, [r2, #4]
 800134a:	0016      	movs	r6, r2
 800134c:	438e      	bics	r6, r1
 800134e:	2e02      	cmp	r6, #2
 8001350:	d10e      	bne.n	8001370 <HAL_GPIO_Init+0x54>
        CLEAR_BIT(temp, 0xFU << ((uint32_t)(position & 0x07U) * 4U)) ;      
 8001352:	2507      	movs	r5, #7
 8001354:	401d      	ands	r5, r3
 8001356:	00ad      	lsls	r5, r5, #2
 8001358:	3901      	subs	r1, #1
 800135a:	40a9      	lsls	r1, r5
        temp = GPIOx->AFR[position >> 3];
 800135c:	08dc      	lsrs	r4, r3, #3
 800135e:	00a4      	lsls	r4, r4, #2
 8001360:	1904      	adds	r4, r0, r4
 8001362:	6a27      	ldr	r7, [r4, #32]
        CLEAR_BIT(temp, 0xFU << ((uint32_t)(position & 0x07U) * 4U)) ;      
 8001364:	438f      	bics	r7, r1
        SET_BIT(temp, (uint32_t)(GPIO_Init->Alternate) << (((uint32_t)position & 0x07U) * 4U));       
 8001366:	9901      	ldr	r1, [sp, #4]
 8001368:	6909      	ldr	r1, [r1, #16]
 800136a:	40a9      	lsls	r1, r5
 800136c:	430f      	orrs	r7, r1
        GPIOx->AFR[position >> 3U] = temp;
 800136e:	6227      	str	r7, [r4, #32]
      CLEAR_BIT(temp, GPIO_MODER_MODER0 << (position * 2U));   
 8001370:	2403      	movs	r4, #3
 8001372:	005f      	lsls	r7, r3, #1
 8001374:	40bc      	lsls	r4, r7
 8001376:	43e4      	mvns	r4, r4
      temp = GPIOx->MODER;
 8001378:	6805      	ldr	r5, [r0, #0]
      if ((GPIO_Init->Mode == GPIO_MODE_OUTPUT_PP) || (GPIO_Init->Mode == GPIO_MODE_AF_PP) ||
 800137a:	3e01      	subs	r6, #1
      CLEAR_BIT(temp, GPIO_MODER_MODER0 << (position * 2U));   
 800137c:	4025      	ands	r5, r4
 800137e:	46ac      	mov	ip, r5
      SET_BIT(temp, (GPIO_Init->Mode & GPIO_MODE) << (position * 2U));
 8001380:	2503      	movs	r5, #3
 8001382:	4015      	ands	r5, r2
 8001384:	40bd      	lsls	r5, r7
 8001386:	4661      	mov	r1, ip
 8001388:	430d      	orrs	r5, r1
      GPIOx->MODER = temp;
 800138a:	6005      	str	r5, [r0, #0]
      if ((GPIO_Init->Mode == GPIO_MODE_OUTPUT_PP) || (GPIO_Init->Mode == GPIO_MODE_AF_PP) ||
 800138c:	2e01      	cmp	r6, #1
 800138e:	d80f      	bhi.n	80013b0 <HAL_GPIO_Init+0x94>
        SET_BIT(temp, GPIO_Init->Speed << (position * 2U));
 8001390:	9901      	ldr	r1, [sp, #4]
        temp = GPIOx->OSPEEDR; 
 8001392:	6886      	ldr	r6, [r0, #8]
        SET_BIT(temp, GPIO_Init->Speed << (position * 2U));
 8001394:	68cd      	ldr	r5, [r1, #12]
        CLEAR_BIT(temp, GPIO_OSPEEDER_OSPEEDR0 << (position * 2U));
 8001396:	4026      	ands	r6, r4
        SET_BIT(temp, GPIO_Init->Speed << (position * 2U));
 8001398:	40bd      	lsls	r5, r7
 800139a:	4335      	orrs	r5, r6
        GPIOx->OSPEEDR = temp;
 800139c:	6085      	str	r5, [r0, #8]
        temp = GPIOx->OTYPER;
 800139e:	6846      	ldr	r6, [r0, #4]
        CLEAR_BIT(temp, GPIO_OTYPER_OT_0 << position) ;
 80013a0:	9903      	ldr	r1, [sp, #12]
        SET_BIT(temp, ((GPIO_Init->Mode & GPIO_OUTPUT_TYPE) >> 4U) << position);
 80013a2:	0915      	lsrs	r5, r2, #4
        CLEAR_BIT(temp, GPIO_OTYPER_OT_0 << position) ;
 80013a4:	438e      	bics	r6, r1
        SET_BIT(temp, ((GPIO_Init->Mode & GPIO_OUTPUT_TYPE) >> 4U) << position);
 80013a6:	2101      	movs	r1, #1
 80013a8:	400d      	ands	r5, r1
 80013aa:	409d      	lsls	r5, r3
 80013ac:	4335      	orrs	r5, r6
        GPIOx->OTYPER = temp;
 80013ae:	6045      	str	r5, [r0, #4]
      temp = GPIOx->PUPDR;
 80013b0:	68c5      	ldr	r5, [r0, #12]
      SET_BIT(temp, (GPIO_Init->Pull) << (position * 2U));
 80013b2:	9901      	ldr	r1, [sp, #4]
      CLEAR_BIT(temp, GPIO_PUPDR_PUPDR0 << (position * 2U));
 80013b4:	402c      	ands	r4, r5
      SET_BIT(temp, (GPIO_Init->Pull) << (position * 2U));
 80013b6:	688d      	ldr	r5, [r1, #8]
      if((GPIO_Init->Mode & EXTI_MODE) == EXTI_MODE) 
 80013b8:	2180      	movs	r1, #128	; 0x80
      SET_BIT(temp, (GPIO_Init->Pull) << (position * 2U));
 80013ba:	40bd      	lsls	r5, r7
      if((GPIO_Init->Mode & EXTI_MODE) == EXTI_MODE) 
 80013bc:	0549      	lsls	r1, r1, #21
      SET_BIT(temp, (GPIO_Init->Pull) << (position * 2U));
 80013be:	432c      	orrs	r4, r5
      GPIOx->PUPDR = temp;
 80013c0:	60c4      	str	r4, [r0, #12]
      if((GPIO_Init->Mode & EXTI_MODE) == EXTI_MODE) 
 80013c2:	420a      	tst	r2, r1
 80013c4:	d04b      	beq.n	800145e <HAL_GPIO_Init+0x142>
        __HAL_RCC_SYSCFG_CLK_ENABLE();
 80013c6:	2101      	movs	r1, #1
 80013c8:	4c26      	ldr	r4, [pc, #152]	; (8001464 <HAL_GPIO_Init+0x148>)
        CLEAR_BIT(temp, (0x0FU) << (4U * (position & 0x03U)));
 80013ca:	2603      	movs	r6, #3
        __HAL_RCC_SYSCFG_CLK_ENABLE();
 80013cc:	69a5      	ldr	r5, [r4, #24]
        CLEAR_BIT(temp, (0x0FU) << (4U * (position & 0x03U)));
 80013ce:	401e      	ands	r6, r3
        __HAL_RCC_SYSCFG_CLK_ENABLE();
 80013d0:	430d      	orrs	r5, r1
 80013d2:	61a5      	str	r5, [r4, #24]
 80013d4:	69a4      	ldr	r4, [r4, #24]
        temp = SYSCFG->EXTICR[position >> 2];
 80013d6:	089d      	lsrs	r5, r3, #2
        __HAL_RCC_SYSCFG_CLK_ENABLE();
 80013d8:	400c      	ands	r4, r1
 80013da:	9405      	str	r4, [sp, #20]
 80013dc:	9c05      	ldr	r4, [sp, #20]
        CLEAR_BIT(temp, (0x0FU) << (4U * (position & 0x03U)));
 80013de:	240f      	movs	r4, #15
 80013e0:	4921      	ldr	r1, [pc, #132]	; (8001468 <HAL_GPIO_Init+0x14c>)
 80013e2:	00ad      	lsls	r5, r5, #2
 80013e4:	00b6      	lsls	r6, r6, #2
 80013e6:	186d      	adds	r5, r5, r1
 80013e8:	40b4      	lsls	r4, r6
        SET_BIT(temp, (GPIO_GET_INDEX(GPIOx)) << (4U * (position & 0x03U)));
 80013ea:	2190      	movs	r1, #144	; 0x90
        temp = SYSCFG->EXTICR[position >> 2];
 80013ec:	68af      	ldr	r7, [r5, #8]
        SET_BIT(temp, (GPIO_GET_INDEX(GPIOx)) << (4U * (position & 0x03U)));
 80013ee:	05c9      	lsls	r1, r1, #23
        CLEAR_BIT(temp, (0x0FU) << (4U * (position & 0x03U)));
 80013f0:	43a7      	bics	r7, r4
        SET_BIT(temp, (GPIO_GET_INDEX(GPIOx)) << (4U * (position & 0x03U)));
 80013f2:	2400      	movs	r4, #0
 80013f4:	4288      	cmp	r0, r1
 80013f6:	d00c      	beq.n	8001412 <HAL_GPIO_Init+0xf6>
 80013f8:	491c      	ldr	r1, [pc, #112]	; (800146c <HAL_GPIO_Init+0x150>)
 80013fa:	3401      	adds	r4, #1
 80013fc:	4288      	cmp	r0, r1
 80013fe:	d008      	beq.n	8001412 <HAL_GPIO_Init+0xf6>
 8001400:	491b      	ldr	r1, [pc, #108]	; (8001470 <HAL_GPIO_Init+0x154>)
 8001402:	3401      	adds	r4, #1
 8001404:	4288      	cmp	r0, r1
 8001406:	d004      	beq.n	8001412 <HAL_GPIO_Init+0xf6>
 8001408:	491a      	ldr	r1, [pc, #104]	; (8001474 <HAL_GPIO_Init+0x158>)
 800140a:	3403      	adds	r4, #3
 800140c:	4288      	cmp	r0, r1
 800140e:	d100      	bne.n	8001412 <HAL_GPIO_Init+0xf6>
 8001410:	3c02      	subs	r4, #2
 8001412:	40b4      	lsls	r4, r6
        CLEAR_BIT(temp, (uint32_t)iocurrent);
 8001414:	9900      	ldr	r1, [sp, #0]
        SET_BIT(temp, (GPIO_GET_INDEX(GPIOx)) << (4U * (position & 0x03U)));
 8001416:	433c      	orrs	r4, r7
          SET_BIT(temp, iocurrent); 
 8001418:	000e      	movs	r6, r1
        SYSCFG->EXTICR[position >> 2] = temp;
 800141a:	60ac      	str	r4, [r5, #8]
        temp = EXTI->IMR;
 800141c:	4c16      	ldr	r4, [pc, #88]	; (8001478 <HAL_GPIO_Init+0x15c>)
        CLEAR_BIT(temp, (uint32_t)iocurrent);
 800141e:	43cd      	mvns	r5, r1
        temp = EXTI->IMR;
 8001420:	6827      	ldr	r7, [r4, #0]
          SET_BIT(temp, iocurrent); 
 8001422:	433e      	orrs	r6, r7
        if((GPIO_Init->Mode & GPIO_MODE_IT) == GPIO_MODE_IT)
 8001424:	03d1      	lsls	r1, r2, #15
 8001426:	d401      	bmi.n	800142c <HAL_GPIO_Init+0x110>
        CLEAR_BIT(temp, (uint32_t)iocurrent);
 8001428:	003e      	movs	r6, r7
 800142a:	402e      	ands	r6, r5
        EXTI->IMR = temp;
 800142c:	6026      	str	r6, [r4, #0]
        temp = EXTI->EMR;
 800142e:	6867      	ldr	r7, [r4, #4]
          SET_BIT(temp, iocurrent); 
 8001430:	9e00      	ldr	r6, [sp, #0]
 8001432:	433e      	orrs	r6, r7
        if((GPIO_Init->Mode & GPIO_MODE_EVT) == GPIO_MODE_EVT)
 8001434:	0391      	lsls	r1, r2, #14
 8001436:	d401      	bmi.n	800143c <HAL_GPIO_Init+0x120>
        CLEAR_BIT(temp, (uint32_t)iocurrent);      
 8001438:	003e      	movs	r6, r7
 800143a:	402e      	ands	r6, r5
        EXTI->EMR = temp;
 800143c:	6066      	str	r6, [r4, #4]
        temp = EXTI->RTSR;
 800143e:	68a7      	ldr	r7, [r4, #8]
          SET_BIT(temp, iocurrent); 
 8001440:	9e00      	ldr	r6, [sp, #0]
 8001442:	433e      	orrs	r6, r7
        if((GPIO_Init->Mode & RISING_EDGE) == RISING_EDGE)
 8001444:	02d1      	lsls	r1, r2, #11
 8001446:	d401      	bmi.n	800144c <HAL_GPIO_Init+0x130>
        CLEAR_BIT(temp, (uint32_t)iocurrent); 
 8001448:	003e      	movs	r6, r7
 800144a:	402e      	ands	r6, r5
        EXTI->RTSR = temp;
 800144c:	60a6      	str	r6, [r4, #8]
        temp = EXTI->FTSR;
 800144e:	68e6      	ldr	r6, [r4, #12]
          SET_BIT(temp, iocurrent); 
 8001450:	9f00      	ldr	r7, [sp, #0]
 8001452:	4337      	orrs	r7, r6
        if((GPIO_Init->Mode & FALLING_EDGE) == FALLING_EDGE)
 8001454:	0292      	lsls	r2, r2, #10
 8001456:	d401      	bmi.n	800145c <HAL_GPIO_Init+0x140>
        CLEAR_BIT(temp, (uint32_t)iocurrent); 
 8001458:	402e      	ands	r6, r5
 800145a:	0037      	movs	r7, r6
        EXTI->FTSR = temp;
 800145c:	60e7      	str	r7, [r4, #12]
    position++;
 800145e:	3301      	adds	r3, #1
 8001460:	e762      	b.n	8001328 <HAL_GPIO_Init+0xc>
 8001462:	46c0      	nop			; (mov r8, r8)
 8001464:	40021000 	.word	0x40021000
 8001468:	40010000 	.word	0x40010000
 800146c:	48000400 	.word	0x48000400
 8001470:	48000800 	.word	0x48000800
 8001474:	48000c00 	.word	0x48000c00
 8001478:	40010400 	.word	0x40010400

0800147c <HAL_GPIO_ReadPin>:
  GPIO_PinState bitstatus;

  /* Check the parameters */
  assert_param(IS_GPIO_PIN(GPIO_Pin));

  if ((GPIOx->IDR & GPIO_Pin) != (uint32_t)GPIO_PIN_RESET)
 800147c:	6900      	ldr	r0, [r0, #16]
 800147e:	4008      	ands	r0, r1
 8001480:	1e41      	subs	r1, r0, #1
 8001482:	4188      	sbcs	r0, r1
  }
  else
  {
    bitstatus = GPIO_PIN_RESET;
  }
  return bitstatus;
 8001484:	b2c0      	uxtb	r0, r0
  }
 8001486:	4770      	bx	lr

08001488 <HAL_GPIO_WritePin>:
{
  /* Check the parameters */
  assert_param(IS_GPIO_PIN(GPIO_Pin));
  assert_param(IS_GPIO_PIN_ACTION(PinState));

  if (PinState != GPIO_PIN_RESET)
 8001488:	2a00      	cmp	r2, #0
 800148a:	d001      	beq.n	8001490 <HAL_GPIO_WritePin+0x8>
  {
    GPIOx->BSRR = (uint32_t)GPIO_Pin;
 800148c:	6181      	str	r1, [r0, #24]
  }
  else
  {
    GPIOx->BRR = (uint32_t)GPIO_Pin;
  }
}
 800148e:	4770      	bx	lr
    GPIOx->BRR = (uint32_t)GPIO_Pin;
 8001490:	6281      	str	r1, [r0, #40]	; 0x28
}
 8001492:	e7fc      	b.n	800148e <HAL_GPIO_WritePin+0x6>

08001494 <HAL_GPIO_EXTI_IRQHandler>:
  * @retval None
  */
void HAL_GPIO_EXTI_IRQHandler(uint16_t GPIO_Pin)
{
  /* EXTI line interrupt detected */
  if(__HAL_GPIO_EXTI_GET_IT(GPIO_Pin) != RESET) 
 8001494:	4b04      	ldr	r3, [pc, #16]	; (80014a8 <HAL_GPIO_EXTI_IRQHandler+0x14>)
{
 8001496:	b510      	push	{r4, lr}
  if(__HAL_GPIO_EXTI_GET_IT(GPIO_Pin) != RESET) 
 8001498:	695a      	ldr	r2, [r3, #20]
 800149a:	4210      	tst	r0, r2
 800149c:	d002      	beq.n	80014a4 <HAL_GPIO_EXTI_IRQHandler+0x10>
  { 
    __HAL_GPIO_EXTI_CLEAR_IT(GPIO_Pin);
 800149e:	6158      	str	r0, [r3, #20]
    HAL_GPIO_EXTI_Callback(GPIO_Pin);
 80014a0:	f001 f9da 	bl	8002858 <HAL_GPIO_EXTI_Callback>
  }
}
 80014a4:	bd10      	pop	{r4, pc}
 80014a6:	46c0      	nop			; (mov r8, r8)
 80014a8:	40010400 	.word	0x40010400

080014ac <HAL_RCC_OscConfig>:
  *         supported by this macro. User should request a transition to HSE Off
  *         first and then HSE On or HSE Bypass.
  * @retval HAL status
  */
HAL_StatusTypeDef HAL_RCC_OscConfig(RCC_OscInitTypeDef  *RCC_OscInitStruct)
{
 80014ac:	b5f0      	push	{r4, r5, r6, r7, lr}
  /* Check the parameters */
  assert_param(RCC_OscInitStruct != NULL);
  assert_param(IS_RCC_OSCILLATORTYPE(RCC_OscInitStruct->OscillatorType));

  /*------------------------------- HSE Configuration ------------------------*/ 
  if(((RCC_OscInitStruct->OscillatorType) & RCC_OSCILLATORTYPE_HSE) == RCC_OSCILLATORTYPE_HSE)
 80014ae:	6803      	ldr	r3, [r0, #0]
{
 80014b0:	b085      	sub	sp, #20
 80014b2:	0005      	movs	r5, r0
  if(((RCC_OscInitStruct->OscillatorType) & RCC_OSCILLATORTYPE_HSE) == RCC_OSCILLATORTYPE_HSE)
 80014b4:	07db      	lsls	r3, r3, #31
 80014b6:	d42f      	bmi.n	8001518 <HAL_RCC_OscConfig+0x6c>
        }
      }
    }
  }
  /*----------------------------- HSI Configuration --------------------------*/ 
  if(((RCC_OscInitStruct->OscillatorType) & RCC_OSCILLATORTYPE_HSI) == RCC_OSCILLATORTYPE_HSI)
 80014b8:	682b      	ldr	r3, [r5, #0]
 80014ba:	079b      	lsls	r3, r3, #30
 80014bc:	d500      	bpl.n	80014c0 <HAL_RCC_OscConfig+0x14>
 80014be:	e081      	b.n	80015c4 <HAL_RCC_OscConfig+0x118>
        }
      }
    }
  }
  /*------------------------------ LSI Configuration -------------------------*/ 
  if(((RCC_OscInitStruct->OscillatorType) & RCC_OSCILLATORTYPE_LSI) == RCC_OSCILLATORTYPE_LSI)
 80014c0:	682b      	ldr	r3, [r5, #0]
 80014c2:	071b      	lsls	r3, r3, #28
 80014c4:	d500      	bpl.n	80014c8 <HAL_RCC_OscConfig+0x1c>
 80014c6:	e0bc      	b.n	8001642 <HAL_RCC_OscConfig+0x196>
        }
      }
    }
  }
  /*------------------------------ LSE Configuration -------------------------*/ 
  if(((RCC_OscInitStruct->OscillatorType) & RCC_OSCILLATORTYPE_LSE) == RCC_OSCILLATORTYPE_LSE)
 80014c8:	682b      	ldr	r3, [r5, #0]
 80014ca:	075b      	lsls	r3, r3, #29
 80014cc:	d500      	bpl.n	80014d0 <HAL_RCC_OscConfig+0x24>
 80014ce:	e0df      	b.n	8001690 <HAL_RCC_OscConfig+0x1e4>
      __HAL_RCC_PWR_CLK_DISABLE();
    }
  }

  /*----------------------------- HSI14 Configuration --------------------------*/
  if(((RCC_OscInitStruct->OscillatorType) & RCC_OSCILLATORTYPE_HSI14) == RCC_OSCILLATORTYPE_HSI14)
 80014d0:	682b      	ldr	r3, [r5, #0]
 80014d2:	06db      	lsls	r3, r3, #27
 80014d4:	d51a      	bpl.n	800150c <HAL_RCC_OscConfig+0x60>
    /* Check the parameters */
    assert_param(IS_RCC_HSI14(RCC_OscInitStruct->HSI14State));
    assert_param(IS_RCC_CALIBRATION_VALUE(RCC_OscInitStruct->HSI14CalibrationValue));

    /* Check the HSI14 State */
    if(RCC_OscInitStruct->HSI14State == RCC_HSI14_ON)
 80014d6:	696a      	ldr	r2, [r5, #20]
 80014d8:	4cb5      	ldr	r4, [pc, #724]	; (80017b0 <HAL_RCC_OscConfig+0x304>)
 80014da:	2304      	movs	r3, #4
 80014dc:	2a01      	cmp	r2, #1
 80014de:	d000      	beq.n	80014e2 <HAL_RCC_OscConfig+0x36>
 80014e0:	e14b      	b.n	800177a <HAL_RCC_OscConfig+0x2ce>
    {
      /* Disable ADC control of the Internal High Speed oscillator HSI14 */
      __HAL_RCC_HSI14ADC_DISABLE();
 80014e2:	6b61      	ldr	r1, [r4, #52]	; 0x34

      /* Get Start Tick */
      tickstart = HAL_GetTick();
      
      /* Wait till HSI is ready */  
      while(__HAL_RCC_GET_FLAG(RCC_FLAG_HSI14RDY) == RESET)
 80014e4:	2602      	movs	r6, #2
      __HAL_RCC_HSI14ADC_DISABLE();
 80014e6:	430b      	orrs	r3, r1
 80014e8:	6363      	str	r3, [r4, #52]	; 0x34
      __HAL_RCC_HSI14_ENABLE();
 80014ea:	6b63      	ldr	r3, [r4, #52]	; 0x34
 80014ec:	431a      	orrs	r2, r3
 80014ee:	6362      	str	r2, [r4, #52]	; 0x34
      tickstart = HAL_GetTick();
 80014f0:	f7ff fb74 	bl	8000bdc <HAL_GetTick>
 80014f4:	0007      	movs	r7, r0
      while(__HAL_RCC_GET_FLAG(RCC_FLAG_HSI14RDY) == RESET)
 80014f6:	6b63      	ldr	r3, [r4, #52]	; 0x34
 80014f8:	4233      	tst	r3, r6
 80014fa:	d100      	bne.n	80014fe <HAL_RCC_OscConfig+0x52>
 80014fc:	e136      	b.n	800176c <HAL_RCC_OscConfig+0x2c0>
    {
      /* Enable ADC control of the Internal High Speed oscillator HSI14 */
      __HAL_RCC_HSI14ADC_ENABLE();

      /* Adjusts the Internal High Speed oscillator 14Mhz (HSI14) calibration value. */
      __HAL_RCC_HSI14_CALIBRATIONVALUE_ADJUST(RCC_OscInitStruct->HSI14CalibrationValue);
 80014fe:	21f8      	movs	r1, #248	; 0xf8
 8001500:	6b62      	ldr	r2, [r4, #52]	; 0x34
 8001502:	69ab      	ldr	r3, [r5, #24]
 8001504:	438a      	bics	r2, r1
 8001506:	00db      	lsls	r3, r3, #3
 8001508:	4313      	orrs	r3, r2
 800150a:	6363      	str	r3, [r4, #52]	; 0x34
#endif /* RCC_HSI48_SUPPORT */
       
  /*-------------------------------- PLL Configuration -----------------------*/
  /* Check the parameters */
  assert_param(IS_RCC_PLL(RCC_OscInitStruct->PLL.PLLState));
  if ((RCC_OscInitStruct->PLL.PLLState) != RCC_PLL_NONE)
 800150c:	6a29      	ldr	r1, [r5, #32]
 800150e:	2900      	cmp	r1, #0
 8001510:	d000      	beq.n	8001514 <HAL_RCC_OscConfig+0x68>
 8001512:	e159      	b.n	80017c8 <HAL_RCC_OscConfig+0x31c>
    {
      return HAL_ERROR;
    }
  }
  
  return HAL_OK;
 8001514:	2000      	movs	r0, #0
 8001516:	e013      	b.n	8001540 <HAL_RCC_OscConfig+0x94>
    if((__HAL_RCC_GET_SYSCLK_SOURCE() == RCC_SYSCLKSOURCE_STATUS_HSE) 
 8001518:	210c      	movs	r1, #12
 800151a:	4ca5      	ldr	r4, [pc, #660]	; (80017b0 <HAL_RCC_OscConfig+0x304>)
 800151c:	6862      	ldr	r2, [r4, #4]
 800151e:	400a      	ands	r2, r1
 8001520:	2a04      	cmp	r2, #4
 8001522:	d006      	beq.n	8001532 <HAL_RCC_OscConfig+0x86>
       || ((__HAL_RCC_GET_SYSCLK_SOURCE() == RCC_SYSCLKSOURCE_STATUS_PLLCLK) && (__HAL_RCC_GET_PLL_OSCSOURCE() == RCC_PLLSOURCE_HSE)))
 8001524:	6863      	ldr	r3, [r4, #4]
 8001526:	400b      	ands	r3, r1
 8001528:	2b08      	cmp	r3, #8
 800152a:	d10b      	bne.n	8001544 <HAL_RCC_OscConfig+0x98>
 800152c:	6863      	ldr	r3, [r4, #4]
 800152e:	03db      	lsls	r3, r3, #15
 8001530:	d508      	bpl.n	8001544 <HAL_RCC_OscConfig+0x98>
      if((__HAL_RCC_GET_FLAG(RCC_FLAG_HSERDY) != RESET) && (RCC_OscInitStruct->HSEState == RCC_HSE_OFF))
 8001532:	6823      	ldr	r3, [r4, #0]
 8001534:	039b      	lsls	r3, r3, #14
 8001536:	d5bf      	bpl.n	80014b8 <HAL_RCC_OscConfig+0xc>
 8001538:	686b      	ldr	r3, [r5, #4]
 800153a:	2b00      	cmp	r3, #0
 800153c:	d1bc      	bne.n	80014b8 <HAL_RCC_OscConfig+0xc>
        return HAL_ERROR;
 800153e:	2001      	movs	r0, #1
}
 8001540:	b005      	add	sp, #20
 8001542:	bdf0      	pop	{r4, r5, r6, r7, pc}
      __HAL_RCC_HSE_CONFIG(RCC_OscInitStruct->HSEState);
 8001544:	686b      	ldr	r3, [r5, #4]
 8001546:	2b01      	cmp	r3, #1
 8001548:	d113      	bne.n	8001572 <HAL_RCC_OscConfig+0xc6>
 800154a:	2380      	movs	r3, #128	; 0x80
 800154c:	6822      	ldr	r2, [r4, #0]
 800154e:	025b      	lsls	r3, r3, #9
 8001550:	4313      	orrs	r3, r2
 8001552:	6023      	str	r3, [r4, #0]
        tickstart = HAL_GetTick();
 8001554:	f7ff fb42 	bl	8000bdc <HAL_GetTick>
        while(__HAL_RCC_GET_FLAG(RCC_FLAG_HSERDY) == RESET)
 8001558:	2680      	movs	r6, #128	; 0x80
        tickstart = HAL_GetTick();
 800155a:	0007      	movs	r7, r0
        while(__HAL_RCC_GET_FLAG(RCC_FLAG_HSERDY) == RESET)
 800155c:	02b6      	lsls	r6, r6, #10
 800155e:	6823      	ldr	r3, [r4, #0]
 8001560:	4233      	tst	r3, r6
 8001562:	d1a9      	bne.n	80014b8 <HAL_RCC_OscConfig+0xc>
          if((HAL_GetTick() - tickstart ) > HSE_TIMEOUT_VALUE)
 8001564:	f7ff fb3a 	bl	8000bdc <HAL_GetTick>
 8001568:	1bc0      	subs	r0, r0, r7
 800156a:	2864      	cmp	r0, #100	; 0x64
 800156c:	d9f7      	bls.n	800155e <HAL_RCC_OscConfig+0xb2>
            return HAL_TIMEOUT;
 800156e:	2003      	movs	r0, #3
 8001570:	e7e6      	b.n	8001540 <HAL_RCC_OscConfig+0x94>
      __HAL_RCC_HSE_CONFIG(RCC_OscInitStruct->HSEState);
 8001572:	2b00      	cmp	r3, #0
 8001574:	d116      	bne.n	80015a4 <HAL_RCC_OscConfig+0xf8>
 8001576:	6823      	ldr	r3, [r4, #0]
 8001578:	4a8e      	ldr	r2, [pc, #568]	; (80017b4 <HAL_RCC_OscConfig+0x308>)
        while(__HAL_RCC_GET_FLAG(RCC_FLAG_HSERDY) != RESET)
 800157a:	2680      	movs	r6, #128	; 0x80
      __HAL_RCC_HSE_CONFIG(RCC_OscInitStruct->HSEState);
 800157c:	4013      	ands	r3, r2
 800157e:	6023      	str	r3, [r4, #0]
 8001580:	6823      	ldr	r3, [r4, #0]
 8001582:	4a8d      	ldr	r2, [pc, #564]	; (80017b8 <HAL_RCC_OscConfig+0x30c>)
        while(__HAL_RCC_GET_FLAG(RCC_FLAG_HSERDY) != RESET)
 8001584:	02b6      	lsls	r6, r6, #10
      __HAL_RCC_HSE_CONFIG(RCC_OscInitStruct->HSEState);
 8001586:	4013      	ands	r3, r2
 8001588:	6023      	str	r3, [r4, #0]
        tickstart = HAL_GetTick();
 800158a:	f7ff fb27 	bl	8000bdc <HAL_GetTick>
 800158e:	0007      	movs	r7, r0
        while(__HAL_RCC_GET_FLAG(RCC_FLAG_HSERDY) != RESET)
 8001590:	6823      	ldr	r3, [r4, #0]
 8001592:	4233      	tst	r3, r6
 8001594:	d100      	bne.n	8001598 <HAL_RCC_OscConfig+0xec>
 8001596:	e78f      	b.n	80014b8 <HAL_RCC_OscConfig+0xc>
           if((HAL_GetTick() - tickstart ) > HSE_TIMEOUT_VALUE)
 8001598:	f7ff fb20 	bl	8000bdc <HAL_GetTick>
 800159c:	1bc0      	subs	r0, r0, r7
 800159e:	2864      	cmp	r0, #100	; 0x64
 80015a0:	d9f6      	bls.n	8001590 <HAL_RCC_OscConfig+0xe4>
 80015a2:	e7e4      	b.n	800156e <HAL_RCC_OscConfig+0xc2>
      __HAL_RCC_HSE_CONFIG(RCC_OscInitStruct->HSEState);
 80015a4:	2b05      	cmp	r3, #5
 80015a6:	d105      	bne.n	80015b4 <HAL_RCC_OscConfig+0x108>
 80015a8:	2380      	movs	r3, #128	; 0x80
 80015aa:	6822      	ldr	r2, [r4, #0]
 80015ac:	02db      	lsls	r3, r3, #11
 80015ae:	4313      	orrs	r3, r2
 80015b0:	6023      	str	r3, [r4, #0]
 80015b2:	e7ca      	b.n	800154a <HAL_RCC_OscConfig+0x9e>
 80015b4:	6823      	ldr	r3, [r4, #0]
 80015b6:	4a7f      	ldr	r2, [pc, #508]	; (80017b4 <HAL_RCC_OscConfig+0x308>)
 80015b8:	4013      	ands	r3, r2
 80015ba:	6023      	str	r3, [r4, #0]
 80015bc:	6823      	ldr	r3, [r4, #0]
 80015be:	4a7e      	ldr	r2, [pc, #504]	; (80017b8 <HAL_RCC_OscConfig+0x30c>)
 80015c0:	4013      	ands	r3, r2
 80015c2:	e7c6      	b.n	8001552 <HAL_RCC_OscConfig+0xa6>
    if((__HAL_RCC_GET_SYSCLK_SOURCE() == RCC_SYSCLKSOURCE_STATUS_HSI) 
 80015c4:	220c      	movs	r2, #12
 80015c6:	4c7a      	ldr	r4, [pc, #488]	; (80017b0 <HAL_RCC_OscConfig+0x304>)
 80015c8:	6863      	ldr	r3, [r4, #4]
 80015ca:	4213      	tst	r3, r2
 80015cc:	d006      	beq.n	80015dc <HAL_RCC_OscConfig+0x130>
       || ((__HAL_RCC_GET_SYSCLK_SOURCE() == RCC_SYSCLKSOURCE_STATUS_PLLCLK) && (__HAL_RCC_GET_PLL_OSCSOURCE() == RCC_PLLSOURCE_HSI)))
 80015ce:	6863      	ldr	r3, [r4, #4]
 80015d0:	4013      	ands	r3, r2
 80015d2:	2b08      	cmp	r3, #8
 80015d4:	d110      	bne.n	80015f8 <HAL_RCC_OscConfig+0x14c>
 80015d6:	6863      	ldr	r3, [r4, #4]
 80015d8:	03db      	lsls	r3, r3, #15
 80015da:	d40d      	bmi.n	80015f8 <HAL_RCC_OscConfig+0x14c>
      if((__HAL_RCC_GET_FLAG(RCC_FLAG_HSIRDY) != RESET) && (RCC_OscInitStruct->HSIState != RCC_HSI_ON))
 80015dc:	6823      	ldr	r3, [r4, #0]
 80015de:	079b      	lsls	r3, r3, #30
 80015e0:	d502      	bpl.n	80015e8 <HAL_RCC_OscConfig+0x13c>
 80015e2:	68eb      	ldr	r3, [r5, #12]
 80015e4:	2b01      	cmp	r3, #1
 80015e6:	d1aa      	bne.n	800153e <HAL_RCC_OscConfig+0x92>
        __HAL_RCC_HSI_CALIBRATIONVALUE_ADJUST(RCC_OscInitStruct->HSICalibrationValue);
 80015e8:	21f8      	movs	r1, #248	; 0xf8
 80015ea:	6822      	ldr	r2, [r4, #0]
 80015ec:	692b      	ldr	r3, [r5, #16]
 80015ee:	438a      	bics	r2, r1
 80015f0:	00db      	lsls	r3, r3, #3
 80015f2:	4313      	orrs	r3, r2
 80015f4:	6023      	str	r3, [r4, #0]
 80015f6:	e763      	b.n	80014c0 <HAL_RCC_OscConfig+0x14>
      if(RCC_OscInitStruct->HSIState != RCC_HSI_OFF)
 80015f8:	68ea      	ldr	r2, [r5, #12]
 80015fa:	2301      	movs	r3, #1
 80015fc:	2a00      	cmp	r2, #0
 80015fe:	d00f      	beq.n	8001620 <HAL_RCC_OscConfig+0x174>
        __HAL_RCC_HSI_ENABLE();
 8001600:	6822      	ldr	r2, [r4, #0]
        while(__HAL_RCC_GET_FLAG(RCC_FLAG_HSIRDY) == RESET)
 8001602:	2602      	movs	r6, #2
        __HAL_RCC_HSI_ENABLE();
 8001604:	4313      	orrs	r3, r2
 8001606:	6023      	str	r3, [r4, #0]
        tickstart = HAL_GetTick();
 8001608:	f7ff fae8 	bl	8000bdc <HAL_GetTick>
 800160c:	0007      	movs	r7, r0
        while(__HAL_RCC_GET_FLAG(RCC_FLAG_HSIRDY) == RESET)
 800160e:	6823      	ldr	r3, [r4, #0]
 8001610:	4233      	tst	r3, r6
 8001612:	d1e9      	bne.n	80015e8 <HAL_RCC_OscConfig+0x13c>
          if((HAL_GetTick() - tickstart ) > HSI_TIMEOUT_VALUE)
 8001614:	f7ff fae2 	bl	8000bdc <HAL_GetTick>
 8001618:	1bc0      	subs	r0, r0, r7
 800161a:	2802      	cmp	r0, #2
 800161c:	d9f7      	bls.n	800160e <HAL_RCC_OscConfig+0x162>
 800161e:	e7a6      	b.n	800156e <HAL_RCC_OscConfig+0xc2>
        __HAL_RCC_HSI_DISABLE();
 8001620:	6822      	ldr	r2, [r4, #0]
        while(__HAL_RCC_GET_FLAG(RCC_FLAG_HSIRDY) != RESET)
 8001622:	2602      	movs	r6, #2
        __HAL_RCC_HSI_DISABLE();
 8001624:	439a      	bics	r2, r3
 8001626:	6022      	str	r2, [r4, #0]
        tickstart = HAL_GetTick();
 8001628:	f7ff fad8 	bl	8000bdc <HAL_GetTick>
 800162c:	0007      	movs	r7, r0
        while(__HAL_RCC_GET_FLAG(RCC_FLAG_HSIRDY) != RESET)
 800162e:	6823      	ldr	r3, [r4, #0]
 8001630:	4233      	tst	r3, r6
 8001632:	d100      	bne.n	8001636 <HAL_RCC_OscConfig+0x18a>
 8001634:	e744      	b.n	80014c0 <HAL_RCC_OscConfig+0x14>
          if((HAL_GetTick() - tickstart ) > HSI_TIMEOUT_VALUE)
 8001636:	f7ff fad1 	bl	8000bdc <HAL_GetTick>
 800163a:	1bc0      	subs	r0, r0, r7
 800163c:	2802      	cmp	r0, #2
 800163e:	d9f6      	bls.n	800162e <HAL_RCC_OscConfig+0x182>
 8001640:	e795      	b.n	800156e <HAL_RCC_OscConfig+0xc2>
    if(RCC_OscInitStruct->LSIState != RCC_LSI_OFF)
 8001642:	69ea      	ldr	r2, [r5, #28]
 8001644:	2301      	movs	r3, #1
 8001646:	4c5a      	ldr	r4, [pc, #360]	; (80017b0 <HAL_RCC_OscConfig+0x304>)
 8001648:	2a00      	cmp	r2, #0
 800164a:	d010      	beq.n	800166e <HAL_RCC_OscConfig+0x1c2>
      __HAL_RCC_LSI_ENABLE();
 800164c:	6a62      	ldr	r2, [r4, #36]	; 0x24
      while(__HAL_RCC_GET_FLAG(RCC_FLAG_LSIRDY) == RESET)
 800164e:	2602      	movs	r6, #2
      __HAL_RCC_LSI_ENABLE();
 8001650:	4313      	orrs	r3, r2
 8001652:	6263      	str	r3, [r4, #36]	; 0x24
      tickstart = HAL_GetTick();
 8001654:	f7ff fac2 	bl	8000bdc <HAL_GetTick>
 8001658:	0007      	movs	r7, r0
      while(__HAL_RCC_GET_FLAG(RCC_FLAG_LSIRDY) == RESET)
 800165a:	6a63      	ldr	r3, [r4, #36]	; 0x24
 800165c:	4233      	tst	r3, r6
 800165e:	d000      	beq.n	8001662 <HAL_RCC_OscConfig+0x1b6>
 8001660:	e732      	b.n	80014c8 <HAL_RCC_OscConfig+0x1c>
        if((HAL_GetTick() - tickstart ) > LSI_TIMEOUT_VALUE)
 8001662:	f7ff fabb 	bl	8000bdc <HAL_GetTick>
 8001666:	1bc0      	subs	r0, r0, r7
 8001668:	2802      	cmp	r0, #2
 800166a:	d9f6      	bls.n	800165a <HAL_RCC_OscConfig+0x1ae>
 800166c:	e77f      	b.n	800156e <HAL_RCC_OscConfig+0xc2>
      __HAL_RCC_LSI_DISABLE();
 800166e:	6a62      	ldr	r2, [r4, #36]	; 0x24
      while(__HAL_RCC_GET_FLAG(RCC_FLAG_LSIRDY) != RESET)
 8001670:	2602      	movs	r6, #2
      __HAL_RCC_LSI_DISABLE();
 8001672:	439a      	bics	r2, r3
 8001674:	6262      	str	r2, [r4, #36]	; 0x24
      tickstart = HAL_GetTick();
 8001676:	f7ff fab1 	bl	8000bdc <HAL_GetTick>
 800167a:	0007      	movs	r7, r0
      while(__HAL_RCC_GET_FLAG(RCC_FLAG_LSIRDY) != RESET)
 800167c:	6a63      	ldr	r3, [r4, #36]	; 0x24
 800167e:	4233      	tst	r3, r6
 8001680:	d100      	bne.n	8001684 <HAL_RCC_OscConfig+0x1d8>
 8001682:	e721      	b.n	80014c8 <HAL_RCC_OscConfig+0x1c>
        if((HAL_GetTick() - tickstart ) > LSI_TIMEOUT_VALUE)
 8001684:	f7ff faaa 	bl	8000bdc <HAL_GetTick>
 8001688:	1bc0      	subs	r0, r0, r7
 800168a:	2802      	cmp	r0, #2
 800168c:	d9f6      	bls.n	800167c <HAL_RCC_OscConfig+0x1d0>
 800168e:	e76e      	b.n	800156e <HAL_RCC_OscConfig+0xc2>
    if(__HAL_RCC_PWR_IS_CLK_DISABLED())
 8001690:	2280      	movs	r2, #128	; 0x80
    FlagStatus       pwrclkchanged = RESET;
 8001692:	2100      	movs	r1, #0
    if(__HAL_RCC_PWR_IS_CLK_DISABLED())
 8001694:	4c46      	ldr	r4, [pc, #280]	; (80017b0 <HAL_RCC_OscConfig+0x304>)
 8001696:	0552      	lsls	r2, r2, #21
 8001698:	69e3      	ldr	r3, [r4, #28]
    FlagStatus       pwrclkchanged = RESET;
 800169a:	9100      	str	r1, [sp, #0]
    if(__HAL_RCC_PWR_IS_CLK_DISABLED())
 800169c:	4213      	tst	r3, r2
 800169e:	d108      	bne.n	80016b2 <HAL_RCC_OscConfig+0x206>
      __HAL_RCC_PWR_CLK_ENABLE();
 80016a0:	69e3      	ldr	r3, [r4, #28]
 80016a2:	4313      	orrs	r3, r2
 80016a4:	61e3      	str	r3, [r4, #28]
 80016a6:	69e3      	ldr	r3, [r4, #28]
 80016a8:	4013      	ands	r3, r2
 80016aa:	9303      	str	r3, [sp, #12]
 80016ac:	9b03      	ldr	r3, [sp, #12]
      pwrclkchanged = SET;
 80016ae:	2301      	movs	r3, #1
 80016b0:	9300      	str	r3, [sp, #0]
    if(HAL_IS_BIT_CLR(PWR->CR, PWR_CR_DBP))
 80016b2:	2780      	movs	r7, #128	; 0x80
 80016b4:	4e41      	ldr	r6, [pc, #260]	; (80017bc <HAL_RCC_OscConfig+0x310>)
 80016b6:	007f      	lsls	r7, r7, #1
 80016b8:	6833      	ldr	r3, [r6, #0]
 80016ba:	423b      	tst	r3, r7
 80016bc:	d006      	beq.n	80016cc <HAL_RCC_OscConfig+0x220>
    __HAL_RCC_LSE_CONFIG(RCC_OscInitStruct->LSEState);
 80016be:	68ab      	ldr	r3, [r5, #8]
 80016c0:	2b01      	cmp	r3, #1
 80016c2:	d113      	bne.n	80016ec <HAL_RCC_OscConfig+0x240>
 80016c4:	6a22      	ldr	r2, [r4, #32]
 80016c6:	4313      	orrs	r3, r2
 80016c8:	6223      	str	r3, [r4, #32]
 80016ca:	e030      	b.n	800172e <HAL_RCC_OscConfig+0x282>
      SET_BIT(PWR->CR, PWR_CR_DBP);
 80016cc:	6833      	ldr	r3, [r6, #0]
 80016ce:	433b      	orrs	r3, r7
 80016d0:	6033      	str	r3, [r6, #0]
      tickstart = HAL_GetTick();
 80016d2:	f7ff fa83 	bl	8000bdc <HAL_GetTick>
 80016d6:	9001      	str	r0, [sp, #4]
      while(HAL_IS_BIT_CLR(PWR->CR, PWR_CR_DBP))
 80016d8:	6833      	ldr	r3, [r6, #0]
 80016da:	423b      	tst	r3, r7
 80016dc:	d1ef      	bne.n	80016be <HAL_RCC_OscConfig+0x212>
        if((HAL_GetTick() - tickstart) > RCC_DBP_TIMEOUT_VALUE)
 80016de:	f7ff fa7d 	bl	8000bdc <HAL_GetTick>
 80016e2:	9b01      	ldr	r3, [sp, #4]
 80016e4:	1ac0      	subs	r0, r0, r3
 80016e6:	2864      	cmp	r0, #100	; 0x64
 80016e8:	d9f6      	bls.n	80016d8 <HAL_RCC_OscConfig+0x22c>
 80016ea:	e740      	b.n	800156e <HAL_RCC_OscConfig+0xc2>
 80016ec:	2201      	movs	r2, #1
    __HAL_RCC_LSE_CONFIG(RCC_OscInitStruct->LSEState);
 80016ee:	2b00      	cmp	r3, #0
 80016f0:	d114      	bne.n	800171c <HAL_RCC_OscConfig+0x270>
 80016f2:	6a23      	ldr	r3, [r4, #32]
      while(__HAL_RCC_GET_FLAG(RCC_FLAG_LSERDY) != RESET)
 80016f4:	2702      	movs	r7, #2
    __HAL_RCC_LSE_CONFIG(RCC_OscInitStruct->LSEState);
 80016f6:	4393      	bics	r3, r2
 80016f8:	6223      	str	r3, [r4, #32]
 80016fa:	6a23      	ldr	r3, [r4, #32]
 80016fc:	3203      	adds	r2, #3
 80016fe:	4393      	bics	r3, r2
 8001700:	6223      	str	r3, [r4, #32]
      tickstart = HAL_GetTick();
 8001702:	f7ff fa6b 	bl	8000bdc <HAL_GetTick>
 8001706:	0006      	movs	r6, r0
      while(__HAL_RCC_GET_FLAG(RCC_FLAG_LSERDY) != RESET)
 8001708:	6a23      	ldr	r3, [r4, #32]
 800170a:	423b      	tst	r3, r7
 800170c:	d025      	beq.n	800175a <HAL_RCC_OscConfig+0x2ae>
        if((HAL_GetTick() - tickstart ) > RCC_LSE_TIMEOUT_VALUE)
 800170e:	f7ff fa65 	bl	8000bdc <HAL_GetTick>
 8001712:	4b2b      	ldr	r3, [pc, #172]	; (80017c0 <HAL_RCC_OscConfig+0x314>)
 8001714:	1b80      	subs	r0, r0, r6
 8001716:	4298      	cmp	r0, r3
 8001718:	d9f6      	bls.n	8001708 <HAL_RCC_OscConfig+0x25c>
 800171a:	e728      	b.n	800156e <HAL_RCC_OscConfig+0xc2>
    __HAL_RCC_LSE_CONFIG(RCC_OscInitStruct->LSEState);
 800171c:	2b05      	cmp	r3, #5
 800171e:	d10b      	bne.n	8001738 <HAL_RCC_OscConfig+0x28c>
 8001720:	6a21      	ldr	r1, [r4, #32]
 8001722:	3b01      	subs	r3, #1
 8001724:	430b      	orrs	r3, r1
 8001726:	6223      	str	r3, [r4, #32]
 8001728:	6a23      	ldr	r3, [r4, #32]
 800172a:	431a      	orrs	r2, r3
 800172c:	6222      	str	r2, [r4, #32]
      tickstart = HAL_GetTick();
 800172e:	f7ff fa55 	bl	8000bdc <HAL_GetTick>
      while(__HAL_RCC_GET_FLAG(RCC_FLAG_LSERDY) == RESET)
 8001732:	2702      	movs	r7, #2
      tickstart = HAL_GetTick();
 8001734:	0006      	movs	r6, r0
      while(__HAL_RCC_GET_FLAG(RCC_FLAG_LSERDY) == RESET)
 8001736:	e00d      	b.n	8001754 <HAL_RCC_OscConfig+0x2a8>
    __HAL_RCC_LSE_CONFIG(RCC_OscInitStruct->LSEState);
 8001738:	6a23      	ldr	r3, [r4, #32]
 800173a:	4393      	bics	r3, r2
 800173c:	2204      	movs	r2, #4
 800173e:	6223      	str	r3, [r4, #32]
 8001740:	6a23      	ldr	r3, [r4, #32]
 8001742:	4393      	bics	r3, r2
 8001744:	e7c0      	b.n	80016c8 <HAL_RCC_OscConfig+0x21c>
        if((HAL_GetTick() - tickstart ) > RCC_LSE_TIMEOUT_VALUE)
 8001746:	f7ff fa49 	bl	8000bdc <HAL_GetTick>
 800174a:	4b1d      	ldr	r3, [pc, #116]	; (80017c0 <HAL_RCC_OscConfig+0x314>)
 800174c:	1b80      	subs	r0, r0, r6
 800174e:	4298      	cmp	r0, r3
 8001750:	d900      	bls.n	8001754 <HAL_RCC_OscConfig+0x2a8>
 8001752:	e70c      	b.n	800156e <HAL_RCC_OscConfig+0xc2>
      while(__HAL_RCC_GET_FLAG(RCC_FLAG_LSERDY) == RESET)
 8001754:	6a23      	ldr	r3, [r4, #32]
 8001756:	423b      	tst	r3, r7
 8001758:	d0f5      	beq.n	8001746 <HAL_RCC_OscConfig+0x29a>
    if(pwrclkchanged == SET)
 800175a:	9b00      	ldr	r3, [sp, #0]
 800175c:	2b01      	cmp	r3, #1
 800175e:	d000      	beq.n	8001762 <HAL_RCC_OscConfig+0x2b6>
 8001760:	e6b6      	b.n	80014d0 <HAL_RCC_OscConfig+0x24>
      __HAL_RCC_PWR_CLK_DISABLE();
 8001762:	69e3      	ldr	r3, [r4, #28]
 8001764:	4a17      	ldr	r2, [pc, #92]	; (80017c4 <HAL_RCC_OscConfig+0x318>)
 8001766:	4013      	ands	r3, r2
 8001768:	61e3      	str	r3, [r4, #28]
 800176a:	e6b1      	b.n	80014d0 <HAL_RCC_OscConfig+0x24>
        if((HAL_GetTick() - tickstart) > HSI14_TIMEOUT_VALUE)
 800176c:	f7ff fa36 	bl	8000bdc <HAL_GetTick>
 8001770:	1bc0      	subs	r0, r0, r7
 8001772:	2802      	cmp	r0, #2
 8001774:	d800      	bhi.n	8001778 <HAL_RCC_OscConfig+0x2cc>
 8001776:	e6be      	b.n	80014f6 <HAL_RCC_OscConfig+0x4a>
 8001778:	e6f9      	b.n	800156e <HAL_RCC_OscConfig+0xc2>
    else if(RCC_OscInitStruct->HSI14State == RCC_HSI14_ADC_CONTROL)
 800177a:	3205      	adds	r2, #5
 800177c:	d103      	bne.n	8001786 <HAL_RCC_OscConfig+0x2da>
      __HAL_RCC_HSI14ADC_ENABLE();
 800177e:	6b62      	ldr	r2, [r4, #52]	; 0x34
 8001780:	439a      	bics	r2, r3
 8001782:	6362      	str	r2, [r4, #52]	; 0x34
 8001784:	e6bb      	b.n	80014fe <HAL_RCC_OscConfig+0x52>
      __HAL_RCC_HSI14ADC_DISABLE();
 8001786:	6b62      	ldr	r2, [r4, #52]	; 0x34
      while(__HAL_RCC_GET_FLAG(RCC_FLAG_HSI14RDY) != RESET)
 8001788:	2602      	movs	r6, #2
      __HAL_RCC_HSI14ADC_DISABLE();
 800178a:	4313      	orrs	r3, r2
      __HAL_RCC_HSI14_DISABLE();
 800178c:	2201      	movs	r2, #1
      __HAL_RCC_HSI14ADC_DISABLE();
 800178e:	6363      	str	r3, [r4, #52]	; 0x34
      __HAL_RCC_HSI14_DISABLE();
 8001790:	6b63      	ldr	r3, [r4, #52]	; 0x34
 8001792:	4393      	bics	r3, r2
 8001794:	6363      	str	r3, [r4, #52]	; 0x34
      tickstart = HAL_GetTick();
 8001796:	f7ff fa21 	bl	8000bdc <HAL_GetTick>
 800179a:	0007      	movs	r7, r0
      while(__HAL_RCC_GET_FLAG(RCC_FLAG_HSI14RDY) != RESET)
 800179c:	6b63      	ldr	r3, [r4, #52]	; 0x34
 800179e:	4233      	tst	r3, r6
 80017a0:	d100      	bne.n	80017a4 <HAL_RCC_OscConfig+0x2f8>
 80017a2:	e6b3      	b.n	800150c <HAL_RCC_OscConfig+0x60>
        if((HAL_GetTick() - tickstart) > HSI14_TIMEOUT_VALUE)
 80017a4:	f7ff fa1a 	bl	8000bdc <HAL_GetTick>
 80017a8:	1bc0      	subs	r0, r0, r7
 80017aa:	2802      	cmp	r0, #2
 80017ac:	d9f6      	bls.n	800179c <HAL_RCC_OscConfig+0x2f0>
 80017ae:	e6de      	b.n	800156e <HAL_RCC_OscConfig+0xc2>
 80017b0:	40021000 	.word	0x40021000
 80017b4:	fffeffff 	.word	0xfffeffff
 80017b8:	fffbffff 	.word	0xfffbffff
 80017bc:	40007000 	.word	0x40007000
 80017c0:	00001388 	.word	0x00001388
 80017c4:	efffffff 	.word	0xefffffff
    if(__HAL_RCC_GET_SYSCLK_SOURCE() != RCC_SYSCLKSOURCE_STATUS_PLLCLK)
 80017c8:	220c      	movs	r2, #12
 80017ca:	4c26      	ldr	r4, [pc, #152]	; (8001864 <HAL_RCC_OscConfig+0x3b8>)
      return HAL_ERROR;
 80017cc:	2001      	movs	r0, #1
    if(__HAL_RCC_GET_SYSCLK_SOURCE() != RCC_SYSCLKSOURCE_STATUS_PLLCLK)
 80017ce:	6863      	ldr	r3, [r4, #4]
 80017d0:	4013      	ands	r3, r2
 80017d2:	2b08      	cmp	r3, #8
 80017d4:	d100      	bne.n	80017d8 <HAL_RCC_OscConfig+0x32c>
 80017d6:	e6b3      	b.n	8001540 <HAL_RCC_OscConfig+0x94>
        __HAL_RCC_PLL_DISABLE();
 80017d8:	6823      	ldr	r3, [r4, #0]
 80017da:	4a23      	ldr	r2, [pc, #140]	; (8001868 <HAL_RCC_OscConfig+0x3bc>)
 80017dc:	4013      	ands	r3, r2
 80017de:	6023      	str	r3, [r4, #0]
      if((RCC_OscInitStruct->PLL.PLLState) == RCC_PLL_ON)
 80017e0:	2902      	cmp	r1, #2
 80017e2:	d12f      	bne.n	8001844 <HAL_RCC_OscConfig+0x398>
        tickstart = HAL_GetTick();
 80017e4:	f7ff f9fa 	bl	8000bdc <HAL_GetTick>
        while(__HAL_RCC_GET_FLAG(RCC_FLAG_PLLRDY)  != RESET)
 80017e8:	2680      	movs	r6, #128	; 0x80
        tickstart = HAL_GetTick();
 80017ea:	0007      	movs	r7, r0
        while(__HAL_RCC_GET_FLAG(RCC_FLAG_PLLRDY)  != RESET)
 80017ec:	04b6      	lsls	r6, r6, #18
 80017ee:	6823      	ldr	r3, [r4, #0]
 80017f0:	4233      	tst	r3, r6
 80017f2:	d121      	bne.n	8001838 <HAL_RCC_OscConfig+0x38c>
        __HAL_RCC_PLL_CONFIG(RCC_OscInitStruct->PLL.PLLSource,
 80017f4:	220f      	movs	r2, #15
 80017f6:	6ae3      	ldr	r3, [r4, #44]	; 0x2c
 80017f8:	4393      	bics	r3, r2
 80017fa:	6aea      	ldr	r2, [r5, #44]	; 0x2c
 80017fc:	4313      	orrs	r3, r2
 80017fe:	62e3      	str	r3, [r4, #44]	; 0x2c
 8001800:	6a69      	ldr	r1, [r5, #36]	; 0x24
 8001802:	6aab      	ldr	r3, [r5, #40]	; 0x28
 8001804:	6862      	ldr	r2, [r4, #4]
 8001806:	430b      	orrs	r3, r1
 8001808:	4918      	ldr	r1, [pc, #96]	; (800186c <HAL_RCC_OscConfig+0x3c0>)
        while(__HAL_RCC_GET_FLAG(RCC_FLAG_PLLRDY)  == RESET)
 800180a:	2580      	movs	r5, #128	; 0x80
        __HAL_RCC_PLL_CONFIG(RCC_OscInitStruct->PLL.PLLSource,
 800180c:	400a      	ands	r2, r1
 800180e:	4313      	orrs	r3, r2
 8001810:	6063      	str	r3, [r4, #4]
        __HAL_RCC_PLL_ENABLE();
 8001812:	2380      	movs	r3, #128	; 0x80
 8001814:	6822      	ldr	r2, [r4, #0]
 8001816:	045b      	lsls	r3, r3, #17
 8001818:	4313      	orrs	r3, r2
 800181a:	6023      	str	r3, [r4, #0]
        tickstart = HAL_GetTick();
 800181c:	f7ff f9de 	bl	8000bdc <HAL_GetTick>
 8001820:	0006      	movs	r6, r0
        while(__HAL_RCC_GET_FLAG(RCC_FLAG_PLLRDY)  == RESET)
 8001822:	04ad      	lsls	r5, r5, #18
 8001824:	6823      	ldr	r3, [r4, #0]
 8001826:	422b      	tst	r3, r5
 8001828:	d000      	beq.n	800182c <HAL_RCC_OscConfig+0x380>
 800182a:	e673      	b.n	8001514 <HAL_RCC_OscConfig+0x68>
          if((HAL_GetTick() - tickstart ) > PLL_TIMEOUT_VALUE)
 800182c:	f7ff f9d6 	bl	8000bdc <HAL_GetTick>
 8001830:	1b80      	subs	r0, r0, r6
 8001832:	2802      	cmp	r0, #2
 8001834:	d9f6      	bls.n	8001824 <HAL_RCC_OscConfig+0x378>
 8001836:	e69a      	b.n	800156e <HAL_RCC_OscConfig+0xc2>
          if((HAL_GetTick() - tickstart ) > PLL_TIMEOUT_VALUE)
 8001838:	f7ff f9d0 	bl	8000bdc <HAL_GetTick>
 800183c:	1bc0      	subs	r0, r0, r7
 800183e:	2802      	cmp	r0, #2
 8001840:	d9d5      	bls.n	80017ee <HAL_RCC_OscConfig+0x342>
 8001842:	e694      	b.n	800156e <HAL_RCC_OscConfig+0xc2>
        tickstart = HAL_GetTick();
 8001844:	f7ff f9ca 	bl	8000bdc <HAL_GetTick>
        while(__HAL_RCC_GET_FLAG(RCC_FLAG_PLLRDY)  != RESET)
 8001848:	2580      	movs	r5, #128	; 0x80
        tickstart = HAL_GetTick();
 800184a:	0006      	movs	r6, r0
        while(__HAL_RCC_GET_FLAG(RCC_FLAG_PLLRDY)  != RESET)
 800184c:	04ad      	lsls	r5, r5, #18
 800184e:	6823      	ldr	r3, [r4, #0]
 8001850:	422b      	tst	r3, r5
 8001852:	d100      	bne.n	8001856 <HAL_RCC_OscConfig+0x3aa>
 8001854:	e65e      	b.n	8001514 <HAL_RCC_OscConfig+0x68>
          if((HAL_GetTick() - tickstart ) > PLL_TIMEOUT_VALUE)
 8001856:	f7ff f9c1 	bl	8000bdc <HAL_GetTick>
 800185a:	1b80      	subs	r0, r0, r6
 800185c:	2802      	cmp	r0, #2
 800185e:	d9f6      	bls.n	800184e <HAL_RCC_OscConfig+0x3a2>
 8001860:	e685      	b.n	800156e <HAL_RCC_OscConfig+0xc2>
 8001862:	46c0      	nop			; (mov r8, r8)
 8001864:	40021000 	.word	0x40021000
 8001868:	feffffff 	.word	0xfeffffff
 800186c:	ffc2ffff 	.word	0xffc2ffff

08001870 <HAL_RCC_GetSysClockFreq>:
  *         right SYSCLK value. Otherwise, any configuration based on this function will be incorrect.
  *         
  * @retval SYSCLK frequency
  */
uint32_t HAL_RCC_GetSysClockFreq(void)
{
 8001870:	b570      	push	{r4, r5, r6, lr}
  const uint8_t aPLLMULFactorTable[16] = { 2U,  3U,  4U,  5U,  6U,  7U,  8U,  9U,
 8001872:	4c14      	ldr	r4, [pc, #80]	; (80018c4 <HAL_RCC_GetSysClockFreq+0x54>)
{
 8001874:	b088      	sub	sp, #32
  const uint8_t aPLLMULFactorTable[16] = { 2U,  3U,  4U,  5U,  6U,  7U,  8U,  9U,
 8001876:	2210      	movs	r2, #16
 8001878:	0021      	movs	r1, r4
 800187a:	4668      	mov	r0, sp
 800187c:	f001 fe84 	bl	8003588 <memcpy>
                                         10U, 11U, 12U, 13U, 14U, 15U, 16U, 16U};
  const uint8_t aPredivFactorTable[16] = { 1U, 2U,  3U,  4U,  5U,  6U,  7U,  8U,
 8001880:	0021      	movs	r1, r4
 8001882:	ad04      	add	r5, sp, #16
 8001884:	2210      	movs	r2, #16
 8001886:	3110      	adds	r1, #16
 8001888:	0028      	movs	r0, r5
 800188a:	f001 fe7d 	bl	8003588 <memcpy>
  uint32_t sysclockfreq = 0U;
  
  tmpreg = RCC->CFGR;
  
  /* Get SYSCLK source -------------------------------------------------------*/
  switch (tmpreg & RCC_CFGR_SWS)
 800188e:	220c      	movs	r2, #12
  tmpreg = RCC->CFGR;
 8001890:	4e0d      	ldr	r6, [pc, #52]	; (80018c8 <HAL_RCC_GetSysClockFreq+0x58>)
 8001892:	6873      	ldr	r3, [r6, #4]
  switch (tmpreg & RCC_CFGR_SWS)
 8001894:	401a      	ands	r2, r3
 8001896:	2a08      	cmp	r2, #8
 8001898:	d111      	bne.n	80018be <HAL_RCC_GetSysClockFreq+0x4e>
      sysclockfreq = HSE_VALUE;
      break;
    }
    case RCC_SYSCLKSOURCE_STATUS_PLLCLK:  /* PLL used as system clock */
    {
      pllmul = aPLLMULFactorTable[(uint32_t)(tmpreg & RCC_CFGR_PLLMUL) >> RCC_CFGR_PLLMUL_BITNUMBER];
 800189a:	200f      	movs	r0, #15
 800189c:	466a      	mov	r2, sp
 800189e:	0c99      	lsrs	r1, r3, #18
 80018a0:	4001      	ands	r1, r0
 80018a2:	5c54      	ldrb	r4, [r2, r1]
      prediv = aPredivFactorTable[(uint32_t)(RCC->CFGR2 & RCC_CFGR2_PREDIV) >> RCC_CFGR2_PREDIV_BITNUMBER];
 80018a4:	6af2      	ldr	r2, [r6, #44]	; 0x2c
 80018a6:	4002      	ands	r2, r0
 80018a8:	5ca9      	ldrb	r1, [r5, r2]
      if ((tmpreg & RCC_CFGR_PLLSRC) == RCC_PLLSOURCE_HSE)
 80018aa:	03db      	lsls	r3, r3, #15
 80018ac:	d505      	bpl.n	80018ba <HAL_RCC_GetSysClockFreq+0x4a>
      {
        /* HSE used as PLL clock source : PLLCLK = HSE/PREDIV * PLLMUL */
        pllclk = (HSE_VALUE / prediv) * pllmul;
 80018ae:	4807      	ldr	r0, [pc, #28]	; (80018cc <HAL_RCC_GetSysClockFreq+0x5c>)
 80018b0:	f7fe fc3c 	bl	800012c <__udivsi3>
#if  (defined(STM32F042x6) || defined(STM32F048xx) || defined(STM32F070x6) || defined(STM32F071xB) || defined(STM32F072xB) || defined(STM32F078xx) || defined(STM32F070xB) || defined(STM32F091xC) || defined(STM32F098xx) || defined(STM32F030xC))
        /* HSI used as PLL clock source : PLLCLK = HSI/PREDIV * PLLMUL */
        pllclk = (HSI_VALUE / prediv) * pllmul;
#else
        /* HSI used as PLL clock source : PLLCLK = HSI/2 * PLLMUL */
        pllclk = (uint32_t)((HSI_VALUE >> 1U) * pllmul);
 80018b4:	4360      	muls	r0, r4
      sysclockfreq = HSI_VALUE;
      break;
    }
  }
  return sysclockfreq;
}
 80018b6:	b008      	add	sp, #32
 80018b8:	bd70      	pop	{r4, r5, r6, pc}
        pllclk = (uint32_t)((HSI_VALUE >> 1U) * pllmul);
 80018ba:	4805      	ldr	r0, [pc, #20]	; (80018d0 <HAL_RCC_GetSysClockFreq+0x60>)
 80018bc:	e7fa      	b.n	80018b4 <HAL_RCC_GetSysClockFreq+0x44>
      sysclockfreq = HSE_VALUE;
 80018be:	4803      	ldr	r0, [pc, #12]	; (80018cc <HAL_RCC_GetSysClockFreq+0x5c>)
  return sysclockfreq;
 80018c0:	e7f9      	b.n	80018b6 <HAL_RCC_GetSysClockFreq+0x46>
 80018c2:	46c0      	nop			; (mov r8, r8)
 80018c4:	08003f8c 	.word	0x08003f8c
 80018c8:	40021000 	.word	0x40021000
 80018cc:	007a1200 	.word	0x007a1200
 80018d0:	003d0900 	.word	0x003d0900

080018d4 <HAL_RCC_ClockConfig>:
{
 80018d4:	b5f7      	push	{r0, r1, r2, r4, r5, r6, r7, lr}
  if(FLatency > (FLASH->ACR & FLASH_ACR_LATENCY))
 80018d6:	2201      	movs	r2, #1
 80018d8:	4c43      	ldr	r4, [pc, #268]	; (80019e8 <HAL_RCC_ClockConfig+0x114>)
{
 80018da:	0006      	movs	r6, r0
  if(FLatency > (FLASH->ACR & FLASH_ACR_LATENCY))
 80018dc:	6823      	ldr	r3, [r4, #0]
{
 80018de:	000f      	movs	r7, r1
  if(FLatency > (FLASH->ACR & FLASH_ACR_LATENCY))
 80018e0:	4013      	ands	r3, r2
 80018e2:	428b      	cmp	r3, r1
 80018e4:	d31c      	bcc.n	8001920 <HAL_RCC_ClockConfig+0x4c>
  if(((RCC_ClkInitStruct->ClockType) & RCC_CLOCKTYPE_HCLK) == RCC_CLOCKTYPE_HCLK)
 80018e6:	6832      	ldr	r2, [r6, #0]
 80018e8:	0793      	lsls	r3, r2, #30
 80018ea:	d423      	bmi.n	8001934 <HAL_RCC_ClockConfig+0x60>
  if(((RCC_ClkInitStruct->ClockType) & RCC_CLOCKTYPE_SYSCLK) == RCC_CLOCKTYPE_SYSCLK)
 80018ec:	07d3      	lsls	r3, r2, #31
 80018ee:	d429      	bmi.n	8001944 <HAL_RCC_ClockConfig+0x70>
  if(FLatency < (FLASH->ACR & FLASH_ACR_LATENCY))
 80018f0:	2301      	movs	r3, #1
 80018f2:	6822      	ldr	r2, [r4, #0]
 80018f4:	401a      	ands	r2, r3
 80018f6:	4297      	cmp	r7, r2
 80018f8:	d367      	bcc.n	80019ca <HAL_RCC_ClockConfig+0xf6>
  if(((RCC_ClkInitStruct->ClockType) & RCC_CLOCKTYPE_PCLK1) == RCC_CLOCKTYPE_PCLK1)
 80018fa:	6833      	ldr	r3, [r6, #0]
 80018fc:	4c3b      	ldr	r4, [pc, #236]	; (80019ec <HAL_RCC_ClockConfig+0x118>)
 80018fe:	075b      	lsls	r3, r3, #29
 8001900:	d46a      	bmi.n	80019d8 <HAL_RCC_ClockConfig+0x104>
  SystemCoreClock = HAL_RCC_GetSysClockFreq() >> AHBPrescTable[(RCC->CFGR & RCC_CFGR_HPRE)>> RCC_CFGR_HPRE_BITNUMBER];
 8001902:	f7ff ffb5 	bl	8001870 <HAL_RCC_GetSysClockFreq>
 8001906:	6863      	ldr	r3, [r4, #4]
 8001908:	4a39      	ldr	r2, [pc, #228]	; (80019f0 <HAL_RCC_ClockConfig+0x11c>)
 800190a:	061b      	lsls	r3, r3, #24
 800190c:	0f1b      	lsrs	r3, r3, #28
 800190e:	5cd3      	ldrb	r3, [r2, r3]
 8001910:	40d8      	lsrs	r0, r3
 8001912:	4b38      	ldr	r3, [pc, #224]	; (80019f4 <HAL_RCC_ClockConfig+0x120>)
 8001914:	6018      	str	r0, [r3, #0]
  HAL_InitTick (TICK_INT_PRIORITY);
 8001916:	2000      	movs	r0, #0
 8001918:	f7ff f936 	bl	8000b88 <HAL_InitTick>
  return HAL_OK;
 800191c:	2000      	movs	r0, #0
 800191e:	e008      	b.n	8001932 <HAL_RCC_ClockConfig+0x5e>
    __HAL_FLASH_SET_LATENCY(FLatency);
 8001920:	6823      	ldr	r3, [r4, #0]
 8001922:	4393      	bics	r3, r2
 8001924:	430b      	orrs	r3, r1
 8001926:	6023      	str	r3, [r4, #0]
    if((FLASH->ACR & FLASH_ACR_LATENCY) != FLatency)
 8001928:	6823      	ldr	r3, [r4, #0]
 800192a:	4013      	ands	r3, r2
 800192c:	4299      	cmp	r1, r3
 800192e:	d0da      	beq.n	80018e6 <HAL_RCC_ClockConfig+0x12>
      return HAL_ERROR;
 8001930:	2001      	movs	r0, #1
}
 8001932:	bdfe      	pop	{r1, r2, r3, r4, r5, r6, r7, pc}
    MODIFY_REG(RCC->CFGR, RCC_CFGR_HPRE, RCC_ClkInitStruct->AHBCLKDivider);
 8001934:	20f0      	movs	r0, #240	; 0xf0
 8001936:	492d      	ldr	r1, [pc, #180]	; (80019ec <HAL_RCC_ClockConfig+0x118>)
 8001938:	684b      	ldr	r3, [r1, #4]
 800193a:	4383      	bics	r3, r0
 800193c:	68b0      	ldr	r0, [r6, #8]
 800193e:	4303      	orrs	r3, r0
 8001940:	604b      	str	r3, [r1, #4]
 8001942:	e7d3      	b.n	80018ec <HAL_RCC_ClockConfig+0x18>
 8001944:	4d29      	ldr	r5, [pc, #164]	; (80019ec <HAL_RCC_ClockConfig+0x118>)
    if(RCC_ClkInitStruct->SYSCLKSource == RCC_SYSCLKSOURCE_HSE)
 8001946:	6872      	ldr	r2, [r6, #4]
      if(__HAL_RCC_GET_FLAG(RCC_FLAG_HSERDY) == RESET)
 8001948:	682b      	ldr	r3, [r5, #0]
    if(RCC_ClkInitStruct->SYSCLKSource == RCC_SYSCLKSOURCE_HSE)
 800194a:	2a01      	cmp	r2, #1
 800194c:	d11a      	bne.n	8001984 <HAL_RCC_ClockConfig+0xb0>
      if(__HAL_RCC_GET_FLAG(RCC_FLAG_HSERDY) == RESET)
 800194e:	039b      	lsls	r3, r3, #14
 8001950:	d5ee      	bpl.n	8001930 <HAL_RCC_ClockConfig+0x5c>
    __HAL_RCC_SYSCLK_CONFIG(RCC_ClkInitStruct->SYSCLKSource);
 8001952:	2103      	movs	r1, #3
 8001954:	686b      	ldr	r3, [r5, #4]
 8001956:	438b      	bics	r3, r1
 8001958:	4313      	orrs	r3, r2
 800195a:	606b      	str	r3, [r5, #4]
    tickstart = HAL_GetTick();
 800195c:	f7ff f93e 	bl	8000bdc <HAL_GetTick>
    if(RCC_ClkInitStruct->SYSCLKSource == RCC_SYSCLKSOURCE_HSE)
 8001960:	6873      	ldr	r3, [r6, #4]
    tickstart = HAL_GetTick();
 8001962:	9001      	str	r0, [sp, #4]
    if(RCC_ClkInitStruct->SYSCLKSource == RCC_SYSCLKSOURCE_HSE)
 8001964:	2b01      	cmp	r3, #1
 8001966:	d115      	bne.n	8001994 <HAL_RCC_ClockConfig+0xc0>
      while (__HAL_RCC_GET_SYSCLK_SOURCE() != RCC_SYSCLKSOURCE_STATUS_HSE)
 8001968:	220c      	movs	r2, #12
 800196a:	686b      	ldr	r3, [r5, #4]
 800196c:	4013      	ands	r3, r2
 800196e:	2b04      	cmp	r3, #4
 8001970:	d0be      	beq.n	80018f0 <HAL_RCC_ClockConfig+0x1c>
        if((HAL_GetTick() - tickstart ) > CLOCKSWITCH_TIMEOUT_VALUE)
 8001972:	f7ff f933 	bl	8000bdc <HAL_GetTick>
 8001976:	9b01      	ldr	r3, [sp, #4]
 8001978:	1ac0      	subs	r0, r0, r3
 800197a:	4b1f      	ldr	r3, [pc, #124]	; (80019f8 <HAL_RCC_ClockConfig+0x124>)
 800197c:	4298      	cmp	r0, r3
 800197e:	d9f3      	bls.n	8001968 <HAL_RCC_ClockConfig+0x94>
          return HAL_TIMEOUT;
 8001980:	2003      	movs	r0, #3
 8001982:	e7d6      	b.n	8001932 <HAL_RCC_ClockConfig+0x5e>
    else if(RCC_ClkInitStruct->SYSCLKSource == RCC_SYSCLKSOURCE_PLLCLK)
 8001984:	2a02      	cmp	r2, #2
 8001986:	d102      	bne.n	800198e <HAL_RCC_ClockConfig+0xba>
      if(__HAL_RCC_GET_FLAG(RCC_FLAG_PLLRDY) == RESET)
 8001988:	019b      	lsls	r3, r3, #6
 800198a:	d4e2      	bmi.n	8001952 <HAL_RCC_ClockConfig+0x7e>
 800198c:	e7d0      	b.n	8001930 <HAL_RCC_ClockConfig+0x5c>
      if(__HAL_RCC_GET_FLAG(RCC_FLAG_HSIRDY) == RESET)
 800198e:	079b      	lsls	r3, r3, #30
 8001990:	d4df      	bmi.n	8001952 <HAL_RCC_ClockConfig+0x7e>
 8001992:	e7cd      	b.n	8001930 <HAL_RCC_ClockConfig+0x5c>
    else if(RCC_ClkInitStruct->SYSCLKSource == RCC_SYSCLKSOURCE_PLLCLK)
 8001994:	2b02      	cmp	r3, #2
 8001996:	d012      	beq.n	80019be <HAL_RCC_ClockConfig+0xea>
      while (__HAL_RCC_GET_SYSCLK_SOURCE() != RCC_SYSCLKSOURCE_STATUS_HSI)
 8001998:	220c      	movs	r2, #12
 800199a:	686b      	ldr	r3, [r5, #4]
 800199c:	4213      	tst	r3, r2
 800199e:	d0a7      	beq.n	80018f0 <HAL_RCC_ClockConfig+0x1c>
        if((HAL_GetTick() - tickstart ) > CLOCKSWITCH_TIMEOUT_VALUE)
 80019a0:	f7ff f91c 	bl	8000bdc <HAL_GetTick>
 80019a4:	9b01      	ldr	r3, [sp, #4]
 80019a6:	1ac0      	subs	r0, r0, r3
 80019a8:	4b13      	ldr	r3, [pc, #76]	; (80019f8 <HAL_RCC_ClockConfig+0x124>)
 80019aa:	4298      	cmp	r0, r3
 80019ac:	d9f4      	bls.n	8001998 <HAL_RCC_ClockConfig+0xc4>
 80019ae:	e7e7      	b.n	8001980 <HAL_RCC_ClockConfig+0xac>
        if((HAL_GetTick() - tickstart ) > CLOCKSWITCH_TIMEOUT_VALUE)
 80019b0:	f7ff f914 	bl	8000bdc <HAL_GetTick>
 80019b4:	9b01      	ldr	r3, [sp, #4]
 80019b6:	1ac0      	subs	r0, r0, r3
 80019b8:	4b0f      	ldr	r3, [pc, #60]	; (80019f8 <HAL_RCC_ClockConfig+0x124>)
 80019ba:	4298      	cmp	r0, r3
 80019bc:	d8e0      	bhi.n	8001980 <HAL_RCC_ClockConfig+0xac>
      while (__HAL_RCC_GET_SYSCLK_SOURCE() != RCC_SYSCLKSOURCE_STATUS_PLLCLK)
 80019be:	220c      	movs	r2, #12
 80019c0:	686b      	ldr	r3, [r5, #4]
 80019c2:	4013      	ands	r3, r2
 80019c4:	2b08      	cmp	r3, #8
 80019c6:	d1f3      	bne.n	80019b0 <HAL_RCC_ClockConfig+0xdc>
 80019c8:	e792      	b.n	80018f0 <HAL_RCC_ClockConfig+0x1c>
    __HAL_FLASH_SET_LATENCY(FLatency);
 80019ca:	6822      	ldr	r2, [r4, #0]
 80019cc:	439a      	bics	r2, r3
 80019ce:	6022      	str	r2, [r4, #0]
    if((FLASH->ACR & FLASH_ACR_LATENCY) != FLatency)
 80019d0:	6822      	ldr	r2, [r4, #0]
 80019d2:	421a      	tst	r2, r3
 80019d4:	d1ac      	bne.n	8001930 <HAL_RCC_ClockConfig+0x5c>
 80019d6:	e790      	b.n	80018fa <HAL_RCC_ClockConfig+0x26>
    MODIFY_REG(RCC->CFGR, RCC_CFGR_PPRE, RCC_ClkInitStruct->APB1CLKDivider);
 80019d8:	6863      	ldr	r3, [r4, #4]
 80019da:	4a08      	ldr	r2, [pc, #32]	; (80019fc <HAL_RCC_ClockConfig+0x128>)
 80019dc:	4013      	ands	r3, r2
 80019de:	68f2      	ldr	r2, [r6, #12]
 80019e0:	4313      	orrs	r3, r2
 80019e2:	6063      	str	r3, [r4, #4]
 80019e4:	e78d      	b.n	8001902 <HAL_RCC_ClockConfig+0x2e>
 80019e6:	46c0      	nop			; (mov r8, r8)
 80019e8:	40022000 	.word	0x40022000
 80019ec:	40021000 	.word	0x40021000
 80019f0:	08004056 	.word	0x08004056
 80019f4:	20000000 	.word	0x20000000
 80019f8:	00001388 	.word	0x00001388
 80019fc:	fffff8ff 	.word	0xfffff8ff

08001a00 <HAL_RCC_GetHCLKFreq>:
  *         and updated within this function
  * @retval HCLK frequency
  */
uint32_t HAL_RCC_GetHCLKFreq(void)
{
  return SystemCoreClock;
 8001a00:	4b01      	ldr	r3, [pc, #4]	; (8001a08 <HAL_RCC_GetHCLKFreq+0x8>)
 8001a02:	6818      	ldr	r0, [r3, #0]
}
 8001a04:	4770      	bx	lr
 8001a06:	46c0      	nop			; (mov r8, r8)
 8001a08:	20000000 	.word	0x20000000

08001a0c <HAL_RCC_GetPCLK1Freq>:
  * @retval PCLK1 frequency
  */
uint32_t HAL_RCC_GetPCLK1Freq(void)
{
  /* Get HCLK source and Compute PCLK1 frequency ---------------------------*/
  return (HAL_RCC_GetHCLKFreq() >> APBPrescTable[(RCC->CFGR & RCC_CFGR_PPRE) >> RCC_CFGR_PPRE_BITNUMBER]);
 8001a0c:	4b04      	ldr	r3, [pc, #16]	; (8001a20 <HAL_RCC_GetPCLK1Freq+0x14>)
 8001a0e:	4a05      	ldr	r2, [pc, #20]	; (8001a24 <HAL_RCC_GetPCLK1Freq+0x18>)
 8001a10:	685b      	ldr	r3, [r3, #4]
 8001a12:	055b      	lsls	r3, r3, #21
 8001a14:	0f5b      	lsrs	r3, r3, #29
 8001a16:	5cd3      	ldrb	r3, [r2, r3]
 8001a18:	4a03      	ldr	r2, [pc, #12]	; (8001a28 <HAL_RCC_GetPCLK1Freq+0x1c>)
 8001a1a:	6810      	ldr	r0, [r2, #0]
 8001a1c:	40d8      	lsrs	r0, r3
}    
 8001a1e:	4770      	bx	lr
 8001a20:	40021000 	.word	0x40021000
 8001a24:	08004066 	.word	0x08004066
 8001a28:	20000000 	.word	0x20000000

08001a2c <HAL_RCCEx_PeriphCLKConfig>:
  *         the backup registers) and RCC_BDCR register are set to their reset values.
  *
  * @retval HAL status
  */
HAL_StatusTypeDef HAL_RCCEx_PeriphCLKConfig(RCC_PeriphCLKInitTypeDef  *PeriphClkInit)
{
 8001a2c:	b5f0      	push	{r4, r5, r6, r7, lr}

  /* Check the parameters */
  assert_param(IS_RCC_PERIPHCLOCK(PeriphClkInit->PeriphClockSelection));
  
  /*---------------------------- RTC configuration -------------------------------*/
  if(((PeriphClkInit->PeriphClockSelection) & RCC_PERIPHCLK_RTC) == (RCC_PERIPHCLK_RTC))
 8001a2e:	6803      	ldr	r3, [r0, #0]
{
 8001a30:	b085      	sub	sp, #20
 8001a32:	0005      	movs	r5, r0
  if(((PeriphClkInit->PeriphClockSelection) & RCC_PERIPHCLK_RTC) == (RCC_PERIPHCLK_RTC))
 8001a34:	03db      	lsls	r3, r3, #15
 8001a36:	d528      	bpl.n	8001a8a <HAL_RCCEx_PeriphCLKConfig+0x5e>
    FlagStatus       pwrclkchanged = RESET;

    /* As soon as function is called to change RTC clock source, activation of the 
       power domain is done. */
    /* Requires to enable write access to Backup Domain of necessary */
    if(__HAL_RCC_PWR_IS_CLK_DISABLED())
 8001a38:	2280      	movs	r2, #128	; 0x80
    FlagStatus       pwrclkchanged = RESET;
 8001a3a:	2100      	movs	r1, #0
    if(__HAL_RCC_PWR_IS_CLK_DISABLED())
 8001a3c:	4c37      	ldr	r4, [pc, #220]	; (8001b1c <HAL_RCCEx_PeriphCLKConfig+0xf0>)
 8001a3e:	0552      	lsls	r2, r2, #21
 8001a40:	69e3      	ldr	r3, [r4, #28]
    FlagStatus       pwrclkchanged = RESET;
 8001a42:	9100      	str	r1, [sp, #0]
    if(__HAL_RCC_PWR_IS_CLK_DISABLED())
 8001a44:	4213      	tst	r3, r2
 8001a46:	d108      	bne.n	8001a5a <HAL_RCCEx_PeriphCLKConfig+0x2e>
    {
    __HAL_RCC_PWR_CLK_ENABLE();
 8001a48:	69e3      	ldr	r3, [r4, #28]
 8001a4a:	4313      	orrs	r3, r2
 8001a4c:	61e3      	str	r3, [r4, #28]
 8001a4e:	69e3      	ldr	r3, [r4, #28]
 8001a50:	4013      	ands	r3, r2
 8001a52:	9303      	str	r3, [sp, #12]
 8001a54:	9b03      	ldr	r3, [sp, #12]
      pwrclkchanged = SET;
 8001a56:	2301      	movs	r3, #1
 8001a58:	9300      	str	r3, [sp, #0]
    }
    
    if(HAL_IS_BIT_CLR(PWR->CR, PWR_CR_DBP))
 8001a5a:	2780      	movs	r7, #128	; 0x80
 8001a5c:	4e30      	ldr	r6, [pc, #192]	; (8001b20 <HAL_RCCEx_PeriphCLKConfig+0xf4>)
 8001a5e:	007f      	lsls	r7, r7, #1
 8001a60:	6833      	ldr	r3, [r6, #0]
 8001a62:	423b      	tst	r3, r7
 8001a64:	d026      	beq.n	8001ab4 <HAL_RCCEx_PeriphCLKConfig+0x88>
        }
      }
    }
    
    /* Reset the Backup domain only if the RTC Clock source selection is modified from reset value */ 
    temp_reg = (RCC->BDCR & RCC_BDCR_RTCSEL);
 8001a66:	22c0      	movs	r2, #192	; 0xc0
 8001a68:	6a23      	ldr	r3, [r4, #32]
 8001a6a:	0092      	lsls	r2, r2, #2
 8001a6c:	4013      	ands	r3, r2
 8001a6e:	4e2d      	ldr	r6, [pc, #180]	; (8001b24 <HAL_RCCEx_PeriphCLKConfig+0xf8>)
    if((temp_reg != 0x00000000U) && (temp_reg != (PeriphClkInit->RTCClockSelection & RCC_BDCR_RTCSEL)))
 8001a70:	d132      	bne.n	8001ad8 <HAL_RCCEx_PeriphCLKConfig+0xac>
            return HAL_TIMEOUT;
          }
        }
      }
    }
    __HAL_RCC_RTC_CONFIG(PeriphClkInit->RTCClockSelection);
 8001a72:	6a23      	ldr	r3, [r4, #32]
 8001a74:	401e      	ands	r6, r3
 8001a76:	686b      	ldr	r3, [r5, #4]
 8001a78:	431e      	orrs	r6, r3

    /* Require to disable power clock if necessary */
    if(pwrclkchanged == SET)
 8001a7a:	9b00      	ldr	r3, [sp, #0]
    __HAL_RCC_RTC_CONFIG(PeriphClkInit->RTCClockSelection);
 8001a7c:	6226      	str	r6, [r4, #32]
    if(pwrclkchanged == SET)
 8001a7e:	2b01      	cmp	r3, #1
 8001a80:	d103      	bne.n	8001a8a <HAL_RCCEx_PeriphCLKConfig+0x5e>
    {
      __HAL_RCC_PWR_CLK_DISABLE();
 8001a82:	69e3      	ldr	r3, [r4, #28]
 8001a84:	4a28      	ldr	r2, [pc, #160]	; (8001b28 <HAL_RCCEx_PeriphCLKConfig+0xfc>)
 8001a86:	4013      	ands	r3, r2
 8001a88:	61e3      	str	r3, [r4, #28]
    }
  }

  /*------------------------------- USART1 Configuration ------------------------*/ 
  if(((PeriphClkInit->PeriphClockSelection) & RCC_PERIPHCLK_USART1) == RCC_PERIPHCLK_USART1)
 8001a8a:	682a      	ldr	r2, [r5, #0]
 8001a8c:	07d3      	lsls	r3, r2, #31
 8001a8e:	d506      	bpl.n	8001a9e <HAL_RCCEx_PeriphCLKConfig+0x72>
  {
    /* Check the parameters */
    assert_param(IS_RCC_USART1CLKSOURCE(PeriphClkInit->Usart1ClockSelection));
    
    /* Configure the USART1 clock source */
    __HAL_RCC_USART1_CONFIG(PeriphClkInit->Usart1ClockSelection);
 8001a90:	2003      	movs	r0, #3
 8001a92:	4922      	ldr	r1, [pc, #136]	; (8001b1c <HAL_RCCEx_PeriphCLKConfig+0xf0>)
 8001a94:	6b0b      	ldr	r3, [r1, #48]	; 0x30
 8001a96:	4383      	bics	r3, r0
 8001a98:	68a8      	ldr	r0, [r5, #8]
 8001a9a:	4303      	orrs	r3, r0
 8001a9c:	630b      	str	r3, [r1, #48]	; 0x30
#endif /* STM32F042x6 || STM32F048xx ||                */
       /* STM32F051x8 || STM32F058xx ||                */
       /* STM32F071xB || STM32F072xB || STM32F078xx || */
       /* STM32F091xC || STM32F098xx */
  
  return HAL_OK;
 8001a9e:	2000      	movs	r0, #0
  if(((PeriphClkInit->PeriphClockSelection) & RCC_PERIPHCLK_I2C1) == RCC_PERIPHCLK_I2C1)
 8001aa0:	0693      	lsls	r3, r2, #26
 8001aa2:	d517      	bpl.n	8001ad4 <HAL_RCCEx_PeriphCLKConfig+0xa8>
    __HAL_RCC_I2C1_CONFIG(PeriphClkInit->I2c1ClockSelection);
 8001aa4:	2110      	movs	r1, #16
 8001aa6:	4a1d      	ldr	r2, [pc, #116]	; (8001b1c <HAL_RCCEx_PeriphCLKConfig+0xf0>)
 8001aa8:	6b13      	ldr	r3, [r2, #48]	; 0x30
 8001aaa:	438b      	bics	r3, r1
 8001aac:	68e9      	ldr	r1, [r5, #12]
 8001aae:	430b      	orrs	r3, r1
 8001ab0:	6313      	str	r3, [r2, #48]	; 0x30
 8001ab2:	e00f      	b.n	8001ad4 <HAL_RCCEx_PeriphCLKConfig+0xa8>
      SET_BIT(PWR->CR, PWR_CR_DBP);
 8001ab4:	6833      	ldr	r3, [r6, #0]
 8001ab6:	433b      	orrs	r3, r7
 8001ab8:	6033      	str	r3, [r6, #0]
      tickstart = HAL_GetTick();
 8001aba:	f7ff f88f 	bl	8000bdc <HAL_GetTick>
 8001abe:	9001      	str	r0, [sp, #4]
      while(HAL_IS_BIT_CLR(PWR->CR, PWR_CR_DBP))
 8001ac0:	6833      	ldr	r3, [r6, #0]
 8001ac2:	423b      	tst	r3, r7
 8001ac4:	d1cf      	bne.n	8001a66 <HAL_RCCEx_PeriphCLKConfig+0x3a>
        if((HAL_GetTick() - tickstart) > RCC_DBP_TIMEOUT_VALUE)
 8001ac6:	f7ff f889 	bl	8000bdc <HAL_GetTick>
 8001aca:	9b01      	ldr	r3, [sp, #4]
 8001acc:	1ac0      	subs	r0, r0, r3
 8001ace:	2864      	cmp	r0, #100	; 0x64
 8001ad0:	d9f6      	bls.n	8001ac0 <HAL_RCCEx_PeriphCLKConfig+0x94>
          return HAL_TIMEOUT;
 8001ad2:	2003      	movs	r0, #3
}
 8001ad4:	b005      	add	sp, #20
 8001ad6:	bdf0      	pop	{r4, r5, r6, r7, pc}
    if((temp_reg != 0x00000000U) && (temp_reg != (PeriphClkInit->RTCClockSelection & RCC_BDCR_RTCSEL)))
 8001ad8:	6869      	ldr	r1, [r5, #4]
 8001ada:	400a      	ands	r2, r1
 8001adc:	4293      	cmp	r3, r2
 8001ade:	d0c8      	beq.n	8001a72 <HAL_RCCEx_PeriphCLKConfig+0x46>
      __HAL_RCC_BACKUPRESET_FORCE();
 8001ae0:	2380      	movs	r3, #128	; 0x80
      temp_reg = (RCC->BDCR & ~(RCC_BDCR_RTCSEL));
 8001ae2:	6a22      	ldr	r2, [r4, #32]
      __HAL_RCC_BACKUPRESET_FORCE();
 8001ae4:	6a20      	ldr	r0, [r4, #32]
      temp_reg = (RCC->BDCR & ~(RCC_BDCR_RTCSEL));
 8001ae6:	0011      	movs	r1, r2
      __HAL_RCC_BACKUPRESET_FORCE();
 8001ae8:	025b      	lsls	r3, r3, #9
 8001aea:	4303      	orrs	r3, r0
 8001aec:	6223      	str	r3, [r4, #32]
      __HAL_RCC_BACKUPRESET_RELEASE();
 8001aee:	6a23      	ldr	r3, [r4, #32]
 8001af0:	480e      	ldr	r0, [pc, #56]	; (8001b2c <HAL_RCCEx_PeriphCLKConfig+0x100>)
      temp_reg = (RCC->BDCR & ~(RCC_BDCR_RTCSEL));
 8001af2:	4031      	ands	r1, r6
      __HAL_RCC_BACKUPRESET_RELEASE();
 8001af4:	4003      	ands	r3, r0
 8001af6:	6223      	str	r3, [r4, #32]
      RCC->BDCR = temp_reg;
 8001af8:	6221      	str	r1, [r4, #32]
      if (HAL_IS_BIT_SET(temp_reg, RCC_BDCR_LSEON))
 8001afa:	07d3      	lsls	r3, r2, #31
 8001afc:	d5b9      	bpl.n	8001a72 <HAL_RCCEx_PeriphCLKConfig+0x46>
        tickstart = HAL_GetTick();
 8001afe:	f7ff f86d 	bl	8000bdc <HAL_GetTick>
 8001b02:	0007      	movs	r7, r0
        while(__HAL_RCC_GET_FLAG(RCC_FLAG_LSERDY) == RESET)
 8001b04:	2202      	movs	r2, #2
 8001b06:	6a23      	ldr	r3, [r4, #32]
 8001b08:	4213      	tst	r3, r2
 8001b0a:	d1b2      	bne.n	8001a72 <HAL_RCCEx_PeriphCLKConfig+0x46>
          if((HAL_GetTick() - tickstart) > RCC_LSE_TIMEOUT_VALUE)
 8001b0c:	f7ff f866 	bl	8000bdc <HAL_GetTick>
 8001b10:	4b07      	ldr	r3, [pc, #28]	; (8001b30 <HAL_RCCEx_PeriphCLKConfig+0x104>)
 8001b12:	1bc0      	subs	r0, r0, r7
 8001b14:	4298      	cmp	r0, r3
 8001b16:	d9f5      	bls.n	8001b04 <HAL_RCCEx_PeriphCLKConfig+0xd8>
 8001b18:	e7db      	b.n	8001ad2 <HAL_RCCEx_PeriphCLKConfig+0xa6>
 8001b1a:	46c0      	nop			; (mov r8, r8)
 8001b1c:	40021000 	.word	0x40021000
 8001b20:	40007000 	.word	0x40007000
 8001b24:	fffffcff 	.word	0xfffffcff
 8001b28:	efffffff 	.word	0xefffffff
 8001b2c:	fffeffff 	.word	0xfffeffff
 8001b30:	00001388 	.word	0x00001388

08001b34 <TIM_OC1_SetConfig>:
  uint32_t tmpccmrx = 0U;
  uint32_t tmpccer = 0U;
  uint32_t tmpcr2 = 0U;

   /* Disable the Channel 1: Reset the CC1E Bit */
  TIMx->CCER &= ~TIM_CCER_CC1E;
 8001b34:	2201      	movs	r2, #1
 8001b36:	6a03      	ldr	r3, [r0, #32]
{
 8001b38:	b570      	push	{r4, r5, r6, lr}
  TIMx->CCER &= ~TIM_CCER_CC1E;
 8001b3a:	4393      	bics	r3, r2
 8001b3c:	6203      	str	r3, [r0, #32]

  /* Get the TIMx CCER register value */
  tmpccer = TIMx->CCER;
 8001b3e:	6a03      	ldr	r3, [r0, #32]
  /* Get the TIMx CR2 register value */
  tmpcr2 =  TIMx->CR2;
 8001b40:	6844      	ldr	r4, [r0, #4]

  /* Get the TIMx CCMR1 register value */
  tmpccmrx = TIMx->CCMR1;
 8001b42:	6985      	ldr	r5, [r0, #24]

  /* Reset the Output Compare Mode Bits */
  tmpccmrx &= ~TIM_CCMR1_OC1M;
  tmpccmrx &= ~TIM_CCMR1_CC1S;
 8001b44:	3272      	adds	r2, #114	; 0x72
 8001b46:	4395      	bics	r5, r2
  /* Select the Output Compare Mode */
  tmpccmrx |= OC_Config->OCMode;
 8001b48:	680a      	ldr	r2, [r1, #0]
 8001b4a:	4315      	orrs	r5, r2

  /* Reset the Output Polarity level */
  tmpccer &= ~TIM_CCER_CC1P;
 8001b4c:	2202      	movs	r2, #2
 8001b4e:	4393      	bics	r3, r2
  /* Set the Output Compare Polarity */
  tmpccer |= OC_Config->OCPolarity;
 8001b50:	688a      	ldr	r2, [r1, #8]
 8001b52:	4313      	orrs	r3, r2

  if(IS_TIM_CCXN_INSTANCE(TIMx, TIM_CHANNEL_1))
 8001b54:	4a11      	ldr	r2, [pc, #68]	; (8001b9c <TIM_OC1_SetConfig+0x68>)
 8001b56:	4290      	cmp	r0, r2
 8001b58:	d005      	beq.n	8001b66 <TIM_OC1_SetConfig+0x32>
 8001b5a:	4e11      	ldr	r6, [pc, #68]	; (8001ba0 <TIM_OC1_SetConfig+0x6c>)
 8001b5c:	42b0      	cmp	r0, r6
 8001b5e:	d002      	beq.n	8001b66 <TIM_OC1_SetConfig+0x32>
 8001b60:	4e10      	ldr	r6, [pc, #64]	; (8001ba4 <TIM_OC1_SetConfig+0x70>)
 8001b62:	42b0      	cmp	r0, r6
 8001b64:	d113      	bne.n	8001b8e <TIM_OC1_SetConfig+0x5a>
  {
    /* Check parameters */
    assert_param(IS_TIM_OCN_POLARITY(OC_Config->OCNPolarity));

    /* Reset the Output N Polarity level */
    tmpccer &= ~TIM_CCER_CC1NP;
 8001b66:	2608      	movs	r6, #8
 8001b68:	43b3      	bics	r3, r6
    /* Set the Output N Polarity */
    tmpccer |= OC_Config->OCNPolarity;
 8001b6a:	68ce      	ldr	r6, [r1, #12]
 8001b6c:	4333      	orrs	r3, r6
    /* Reset the Output N State */
    tmpccer &= ~TIM_CCER_CC1NE;
 8001b6e:	2604      	movs	r6, #4
 8001b70:	43b3      	bics	r3, r6
  }

  if(IS_TIM_BREAK_INSTANCE(TIMx))
 8001b72:	4290      	cmp	r0, r2
 8001b74:	d005      	beq.n	8001b82 <TIM_OC1_SetConfig+0x4e>
 8001b76:	4a0a      	ldr	r2, [pc, #40]	; (8001ba0 <TIM_OC1_SetConfig+0x6c>)
 8001b78:	4290      	cmp	r0, r2
 8001b7a:	d002      	beq.n	8001b82 <TIM_OC1_SetConfig+0x4e>
 8001b7c:	4a09      	ldr	r2, [pc, #36]	; (8001ba4 <TIM_OC1_SetConfig+0x70>)
 8001b7e:	4290      	cmp	r0, r2
 8001b80:	d105      	bne.n	8001b8e <TIM_OC1_SetConfig+0x5a>
    assert_param(IS_TIM_OCNIDLE_STATE(OC_Config->OCNIdleState));
    assert_param(IS_TIM_OCIDLE_STATE(OC_Config->OCIdleState));

    /* Reset the Output Compare and Output Compare N IDLE State */
    tmpcr2 &= ~TIM_CR2_OIS1;
    tmpcr2 &= ~TIM_CR2_OIS1N;
 8001b82:	4a09      	ldr	r2, [pc, #36]	; (8001ba8 <TIM_OC1_SetConfig+0x74>)
    /* Set the Output Idle state */
    tmpcr2 |= OC_Config->OCIdleState;
    /* Set the Output N Idle state */
    tmpcr2 |= OC_Config->OCNIdleState;
 8001b84:	698e      	ldr	r6, [r1, #24]
    tmpcr2 &= ~TIM_CR2_OIS1N;
 8001b86:	4022      	ands	r2, r4
    tmpcr2 |= OC_Config->OCNIdleState;
 8001b88:	694c      	ldr	r4, [r1, #20]
 8001b8a:	4334      	orrs	r4, r6
 8001b8c:	4314      	orrs	r4, r2

  /* Write to TIMx CCMR1 */
  TIMx->CCMR1 = tmpccmrx;

  /* Set the Capture Compare Register value */
  TIMx->CCR1 = OC_Config->Pulse;
 8001b8e:	684a      	ldr	r2, [r1, #4]
  TIMx->CR2 = tmpcr2;
 8001b90:	6044      	str	r4, [r0, #4]
  TIMx->CCMR1 = tmpccmrx;
 8001b92:	6185      	str	r5, [r0, #24]
  TIMx->CCR1 = OC_Config->Pulse;
 8001b94:	6342      	str	r2, [r0, #52]	; 0x34

  /* Write to TIMx CCER */
  TIMx->CCER = tmpccer;
 8001b96:	6203      	str	r3, [r0, #32]
}
 8001b98:	bd70      	pop	{r4, r5, r6, pc}
 8001b9a:	46c0      	nop			; (mov r8, r8)
 8001b9c:	40012c00 	.word	0x40012c00
 8001ba0:	40014400 	.word	0x40014400
 8001ba4:	40014800 	.word	0x40014800
 8001ba8:	fffffcff 	.word	0xfffffcff

08001bac <TIM_OC3_SetConfig>:
  * @param  TIMx  to select the TIM peripheral
  * @param  OC_Config The ouput configuration structure
  * @retval None
  */
static void TIM_OC3_SetConfig(TIM_TypeDef *TIMx, TIM_OC_InitTypeDef *OC_Config)
{
 8001bac:	b570      	push	{r4, r5, r6, lr}
  /* Get the TIMx CCMR2 register value */
  tmpccmrx = TIMx->CCMR2;

  /* Reset the Output Compare mode and Capture/Compare selection Bits */
  tmpccmrx &= ~TIM_CCMR2_OC3M;
  tmpccmrx &= ~TIM_CCMR2_CC3S;
 8001bae:	2573      	movs	r5, #115	; 0x73
  TIMx->CCER &= ~TIM_CCER_CC3E;
 8001bb0:	6a03      	ldr	r3, [r0, #32]
 8001bb2:	4a16      	ldr	r2, [pc, #88]	; (8001c0c <TIM_OC3_SetConfig+0x60>)
 8001bb4:	4013      	ands	r3, r2
 8001bb6:	6203      	str	r3, [r0, #32]
  tmpccer = TIMx->CCER;
 8001bb8:	6a03      	ldr	r3, [r0, #32]
  tmpcr2 =  TIMx->CR2;
 8001bba:	6842      	ldr	r2, [r0, #4]
  tmpccmrx = TIMx->CCMR2;
 8001bbc:	69c4      	ldr	r4, [r0, #28]
  tmpccmrx &= ~TIM_CCMR2_CC3S;
 8001bbe:	43ac      	bics	r4, r5
  /* Select the Output Compare Mode */
  tmpccmrx |= OC_Config->OCMode;
 8001bc0:	680d      	ldr	r5, [r1, #0]
 8001bc2:	432c      	orrs	r4, r5

  /* Reset the Output Polarity level */
  tmpccer &= ~TIM_CCER_CC3P;
 8001bc4:	4d12      	ldr	r5, [pc, #72]	; (8001c10 <TIM_OC3_SetConfig+0x64>)
 8001bc6:	402b      	ands	r3, r5
  /* Set the Output Compare Polarity */
  tmpccer |= (OC_Config->OCPolarity << 8U);
 8001bc8:	688d      	ldr	r5, [r1, #8]
 8001bca:	022d      	lsls	r5, r5, #8
 8001bcc:	432b      	orrs	r3, r5

  if(IS_TIM_CCXN_INSTANCE(TIMx, TIM_CHANNEL_3))
 8001bce:	4d11      	ldr	r5, [pc, #68]	; (8001c14 <TIM_OC3_SetConfig+0x68>)
 8001bd0:	42a8      	cmp	r0, r5
 8001bd2:	d10e      	bne.n	8001bf2 <TIM_OC3_SetConfig+0x46>
  {
    assert_param(IS_TIM_OCN_POLARITY(OC_Config->OCNPolarity));

    /* Reset the Output N Polarity level */
    tmpccer &= ~TIM_CCER_CC3NP;
 8001bd4:	4d10      	ldr	r5, [pc, #64]	; (8001c18 <TIM_OC3_SetConfig+0x6c>)
 8001bd6:	401d      	ands	r5, r3
    /* Set the Output N Polarity */
    tmpccer |= (OC_Config->OCNPolarity << 8U);
 8001bd8:	68cb      	ldr	r3, [r1, #12]
 8001bda:	021b      	lsls	r3, r3, #8
 8001bdc:	432b      	orrs	r3, r5
    /* Reset the Output N State */
    tmpccer &= ~TIM_CCER_CC3NE;
 8001bde:	4d0f      	ldr	r5, [pc, #60]	; (8001c1c <TIM_OC3_SetConfig+0x70>)
 8001be0:	402b      	ands	r3, r5
    assert_param(IS_TIM_OCNIDLE_STATE(OC_Config->OCNIdleState));
    assert_param(IS_TIM_OCIDLE_STATE(OC_Config->OCIdleState));

    /* Reset the Output Compare and Output Compare N IDLE State */
    tmpcr2 &= ~TIM_CR2_OIS3;
    tmpcr2 &= ~TIM_CR2_OIS3N;
 8001be2:	4d0f      	ldr	r5, [pc, #60]	; (8001c20 <TIM_OC3_SetConfig+0x74>)
    /* Set the Output Idle state */
    tmpcr2 |= (OC_Config->OCIdleState << 4U);
    /* Set the Output N Idle state */
    tmpcr2 |= (OC_Config->OCNIdleState << 4U);
 8001be4:	694e      	ldr	r6, [r1, #20]
    tmpcr2 &= ~TIM_CR2_OIS3N;
 8001be6:	4015      	ands	r5, r2
    tmpcr2 |= (OC_Config->OCNIdleState << 4U);
 8001be8:	698a      	ldr	r2, [r1, #24]
 8001bea:	4332      	orrs	r2, r6
 8001bec:	0112      	lsls	r2, r2, #4
 8001bee:	432a      	orrs	r2, r5
 8001bf0:	e005      	b.n	8001bfe <TIM_OC3_SetConfig+0x52>
  if(IS_TIM_BREAK_INSTANCE(TIMx))
 8001bf2:	4d0c      	ldr	r5, [pc, #48]	; (8001c24 <TIM_OC3_SetConfig+0x78>)
 8001bf4:	42a8      	cmp	r0, r5
 8001bf6:	d0f4      	beq.n	8001be2 <TIM_OC3_SetConfig+0x36>
 8001bf8:	4d0b      	ldr	r5, [pc, #44]	; (8001c28 <TIM_OC3_SetConfig+0x7c>)
 8001bfa:	42a8      	cmp	r0, r5
 8001bfc:	d0f1      	beq.n	8001be2 <TIM_OC3_SetConfig+0x36>
  }

  /* Write to TIMx CR2 */
  TIMx->CR2 = tmpcr2;
 8001bfe:	6042      	str	r2, [r0, #4]

  /* Write to TIMx CCMR2 */
  TIMx->CCMR2 = tmpccmrx;

  /* Set the Capture Compare Register value */
  TIMx->CCR3 = OC_Config->Pulse;
 8001c00:	684a      	ldr	r2, [r1, #4]
  TIMx->CCMR2 = tmpccmrx;
 8001c02:	61c4      	str	r4, [r0, #28]
  TIMx->CCR3 = OC_Config->Pulse;
 8001c04:	63c2      	str	r2, [r0, #60]	; 0x3c

  /* Write to TIMx CCER */
  TIMx->CCER = tmpccer;
 8001c06:	6203      	str	r3, [r0, #32]
}
 8001c08:	bd70      	pop	{r4, r5, r6, pc}
 8001c0a:	46c0      	nop			; (mov r8, r8)
 8001c0c:	fffffeff 	.word	0xfffffeff
 8001c10:	fffffdff 	.word	0xfffffdff
 8001c14:	40012c00 	.word	0x40012c00
 8001c18:	fffff7ff 	.word	0xfffff7ff
 8001c1c:	fffffbff 	.word	0xfffffbff
 8001c20:	ffffcfff 	.word	0xffffcfff
 8001c24:	40014400 	.word	0x40014400
 8001c28:	40014800 	.word	0x40014800

08001c2c <TIM_OC4_SetConfig>:
  uint32_t tmpccmrx = 0U;
  uint32_t tmpccer = 0U;
  uint32_t tmpcr2 = 0U;

  /* Disable the Channel 4: Reset the CC4E Bit */
  TIMx->CCER &= ~TIM_CCER_CC4E;
 8001c2c:	6a03      	ldr	r3, [r0, #32]
 8001c2e:	4a12      	ldr	r2, [pc, #72]	; (8001c78 <TIM_OC4_SetConfig+0x4c>)
{
 8001c30:	b530      	push	{r4, r5, lr}
  TIMx->CCER &= ~TIM_CCER_CC4E;
 8001c32:	4013      	ands	r3, r2
 8001c34:	6203      	str	r3, [r0, #32]

  /* Get the TIMx CCER register value */
  tmpccer = TIMx->CCER;
 8001c36:	6a02      	ldr	r2, [r0, #32]
  /* Get the TIMx CCMR2 register value */
  tmpccmrx = TIMx->CCMR2;

  /* Reset the Output Compare mode and Capture/Compare selection Bits */
  tmpccmrx &= ~TIM_CCMR2_OC4M;
  tmpccmrx &= ~TIM_CCMR2_CC4S;
 8001c38:	4c10      	ldr	r4, [pc, #64]	; (8001c7c <TIM_OC4_SetConfig+0x50>)
  tmpcr2 =  TIMx->CR2;
 8001c3a:	6843      	ldr	r3, [r0, #4]
  tmpccmrx = TIMx->CCMR2;
 8001c3c:	69c5      	ldr	r5, [r0, #28]
  tmpccmrx &= ~TIM_CCMR2_CC4S;
 8001c3e:	4025      	ands	r5, r4

  /* Select the Output Compare Mode */
  tmpccmrx |= (OC_Config->OCMode << 8U);
 8001c40:	680c      	ldr	r4, [r1, #0]
 8001c42:	0224      	lsls	r4, r4, #8
 8001c44:	4325      	orrs	r5, r4

  /* Reset the Output Polarity level */
  tmpccer &= ~TIM_CCER_CC4P;
 8001c46:	4c0e      	ldr	r4, [pc, #56]	; (8001c80 <TIM_OC4_SetConfig+0x54>)
 8001c48:	4022      	ands	r2, r4
  /* Set the Output Compare Polarity */
  tmpccer |= (OC_Config->OCPolarity << 12U);
 8001c4a:	688c      	ldr	r4, [r1, #8]
 8001c4c:	0324      	lsls	r4, r4, #12
 8001c4e:	4322      	orrs	r2, r4

  if(IS_TIM_BREAK_INSTANCE(TIMx))
 8001c50:	4c0c      	ldr	r4, [pc, #48]	; (8001c84 <TIM_OC4_SetConfig+0x58>)
 8001c52:	42a0      	cmp	r0, r4
 8001c54:	d005      	beq.n	8001c62 <TIM_OC4_SetConfig+0x36>
 8001c56:	4c0c      	ldr	r4, [pc, #48]	; (8001c88 <TIM_OC4_SetConfig+0x5c>)
 8001c58:	42a0      	cmp	r0, r4
 8001c5a:	d002      	beq.n	8001c62 <TIM_OC4_SetConfig+0x36>
 8001c5c:	4c0b      	ldr	r4, [pc, #44]	; (8001c8c <TIM_OC4_SetConfig+0x60>)
 8001c5e:	42a0      	cmp	r0, r4
 8001c60:	d104      	bne.n	8001c6c <TIM_OC4_SetConfig+0x40>
  {
    assert_param(IS_TIM_OCIDLE_STATE(OC_Config->OCIdleState));

   /* Reset the Output Compare IDLE State */
    tmpcr2 &= ~TIM_CR2_OIS4;
 8001c62:	4c0b      	ldr	r4, [pc, #44]	; (8001c90 <TIM_OC4_SetConfig+0x64>)
 8001c64:	4023      	ands	r3, r4
    /* Set the Output Idle state */
    tmpcr2 |= (OC_Config->OCIdleState << 6U);
 8001c66:	694c      	ldr	r4, [r1, #20]
 8001c68:	01a4      	lsls	r4, r4, #6
 8001c6a:	4323      	orrs	r3, r4
  }

  /* Write to TIMx CR2 */
  TIMx->CR2 = tmpcr2;
 8001c6c:	6043      	str	r3, [r0, #4]

  /* Write to TIMx CCMR2 */
  TIMx->CCMR2 = tmpccmrx;

  /* Set the Capture Compare Register value */
  TIMx->CCR4 = OC_Config->Pulse;
 8001c6e:	684b      	ldr	r3, [r1, #4]
  TIMx->CCMR2 = tmpccmrx;
 8001c70:	61c5      	str	r5, [r0, #28]
  TIMx->CCR4 = OC_Config->Pulse;
 8001c72:	6403      	str	r3, [r0, #64]	; 0x40

  /* Write to TIMx CCER */
  TIMx->CCER = tmpccer;
 8001c74:	6202      	str	r2, [r0, #32]
}
 8001c76:	bd30      	pop	{r4, r5, pc}
 8001c78:	ffffefff 	.word	0xffffefff
 8001c7c:	ffff8cff 	.word	0xffff8cff
 8001c80:	ffffdfff 	.word	0xffffdfff
 8001c84:	40012c00 	.word	0x40012c00
 8001c88:	40014400 	.word	0x40014400
 8001c8c:	40014800 	.word	0x40014800
 8001c90:	ffffbfff 	.word	0xffffbfff

08001c94 <HAL_TIM_Base_Start_IT>:
   __HAL_TIM_ENABLE_IT(htim, TIM_IT_UPDATE);
 8001c94:	2201      	movs	r2, #1
 8001c96:	6803      	ldr	r3, [r0, #0]
 8001c98:	68d9      	ldr	r1, [r3, #12]
}
 8001c9a:	2000      	movs	r0, #0
   __HAL_TIM_ENABLE_IT(htim, TIM_IT_UPDATE);
 8001c9c:	4311      	orrs	r1, r2
 8001c9e:	60d9      	str	r1, [r3, #12]
  __HAL_TIM_ENABLE(htim);
 8001ca0:	6819      	ldr	r1, [r3, #0]
 8001ca2:	430a      	orrs	r2, r1
 8001ca4:	601a      	str	r2, [r3, #0]
}
 8001ca6:	4770      	bx	lr

08001ca8 <HAL_TIM_TriggerCallback>:
 8001ca8:	4770      	bx	lr

08001caa <HAL_TIM_IRQHandler>:
  if(__HAL_TIM_GET_FLAG(htim, TIM_FLAG_CC1) != RESET)
 8001caa:	2202      	movs	r2, #2
 8001cac:	6803      	ldr	r3, [r0, #0]
{
 8001cae:	b510      	push	{r4, lr}
  if(__HAL_TIM_GET_FLAG(htim, TIM_FLAG_CC1) != RESET)
 8001cb0:	6919      	ldr	r1, [r3, #16]
{
 8001cb2:	0004      	movs	r4, r0
  if(__HAL_TIM_GET_FLAG(htim, TIM_FLAG_CC1) != RESET)
 8001cb4:	4211      	tst	r1, r2
 8001cb6:	d00e      	beq.n	8001cd6 <HAL_TIM_IRQHandler+0x2c>
    if(__HAL_TIM_GET_IT_SOURCE(htim, TIM_IT_CC1) !=RESET)
 8001cb8:	68d9      	ldr	r1, [r3, #12]
 8001cba:	4211      	tst	r1, r2
 8001cbc:	d00b      	beq.n	8001cd6 <HAL_TIM_IRQHandler+0x2c>
        __HAL_TIM_CLEAR_IT(htim, TIM_IT_CC1);
 8001cbe:	3a05      	subs	r2, #5
 8001cc0:	611a      	str	r2, [r3, #16]
        if((htim->Instance->CCMR1 & TIM_CCMR1_CC1S) != 0x00U)
 8001cc2:	699b      	ldr	r3, [r3, #24]
        htim->Channel = HAL_TIM_ACTIVE_CHANNEL_1;
 8001cc4:	3204      	adds	r2, #4
 8001cc6:	7702      	strb	r2, [r0, #28]
        if((htim->Instance->CCMR1 & TIM_CCMR1_CC1S) != 0x00U)
 8001cc8:	079b      	lsls	r3, r3, #30
 8001cca:	d100      	bne.n	8001cce <HAL_TIM_IRQHandler+0x24>
 8001ccc:	e079      	b.n	8001dc2 <HAL_TIM_IRQHandler+0x118>
          HAL_TIM_IC_CaptureCallback(htim);
 8001cce:	f000 fded 	bl	80028ac <HAL_TIM_IC_CaptureCallback>
        htim->Channel = HAL_TIM_ACTIVE_CHANNEL_CLEARED;
 8001cd2:	2300      	movs	r3, #0
 8001cd4:	7723      	strb	r3, [r4, #28]
  if(__HAL_TIM_GET_FLAG(htim, TIM_FLAG_CC2) != RESET)
 8001cd6:	2204      	movs	r2, #4
 8001cd8:	6823      	ldr	r3, [r4, #0]
 8001cda:	6919      	ldr	r1, [r3, #16]
 8001cdc:	4211      	tst	r1, r2
 8001cde:	d010      	beq.n	8001d02 <HAL_TIM_IRQHandler+0x58>
    if(__HAL_TIM_GET_IT_SOURCE(htim, TIM_IT_CC2) !=RESET)
 8001ce0:	68d9      	ldr	r1, [r3, #12]
 8001ce2:	4211      	tst	r1, r2
 8001ce4:	d00d      	beq.n	8001d02 <HAL_TIM_IRQHandler+0x58>
      __HAL_TIM_CLEAR_IT(htim, TIM_IT_CC2);
 8001ce6:	3a09      	subs	r2, #9
 8001ce8:	611a      	str	r2, [r3, #16]
      htim->Channel = HAL_TIM_ACTIVE_CHANNEL_2;
 8001cea:	3207      	adds	r2, #7
 8001cec:	7722      	strb	r2, [r4, #28]
      if((htim->Instance->CCMR1 & TIM_CCMR1_CC2S) != 0x00U)
 8001cee:	699a      	ldr	r2, [r3, #24]
 8001cf0:	23c0      	movs	r3, #192	; 0xc0
 8001cf2:	009b      	lsls	r3, r3, #2
        HAL_TIM_IC_CaptureCallback(htim);
 8001cf4:	0020      	movs	r0, r4
      if((htim->Instance->CCMR1 & TIM_CCMR1_CC2S) != 0x00U)
 8001cf6:	421a      	tst	r2, r3
 8001cf8:	d069      	beq.n	8001dce <HAL_TIM_IRQHandler+0x124>
        HAL_TIM_IC_CaptureCallback(htim);
 8001cfa:	f000 fdd7 	bl	80028ac <HAL_TIM_IC_CaptureCallback>
      htim->Channel = HAL_TIM_ACTIVE_CHANNEL_CLEARED;
 8001cfe:	2300      	movs	r3, #0
 8001d00:	7723      	strb	r3, [r4, #28]
  if(__HAL_TIM_GET_FLAG(htim, TIM_FLAG_CC3) != RESET)
 8001d02:	2208      	movs	r2, #8
 8001d04:	6823      	ldr	r3, [r4, #0]
 8001d06:	6919      	ldr	r1, [r3, #16]
 8001d08:	4211      	tst	r1, r2
 8001d0a:	d00e      	beq.n	8001d2a <HAL_TIM_IRQHandler+0x80>
    if(__HAL_TIM_GET_IT_SOURCE(htim, TIM_IT_CC3) !=RESET)
 8001d0c:	68d9      	ldr	r1, [r3, #12]
 8001d0e:	4211      	tst	r1, r2
 8001d10:	d00b      	beq.n	8001d2a <HAL_TIM_IRQHandler+0x80>
      __HAL_TIM_CLEAR_IT(htim, TIM_IT_CC3);
 8001d12:	3a11      	subs	r2, #17
 8001d14:	611a      	str	r2, [r3, #16]
      if((htim->Instance->CCMR2 & TIM_CCMR2_CC3S) != 0x00U)
 8001d16:	69db      	ldr	r3, [r3, #28]
      htim->Channel = HAL_TIM_ACTIVE_CHANNEL_3;
 8001d18:	320d      	adds	r2, #13
 8001d1a:	7722      	strb	r2, [r4, #28]
        HAL_TIM_IC_CaptureCallback(htim);
 8001d1c:	0020      	movs	r0, r4
      if((htim->Instance->CCMR2 & TIM_CCMR2_CC3S) != 0x00U)
 8001d1e:	079b      	lsls	r3, r3, #30
 8001d20:	d05b      	beq.n	8001dda <HAL_TIM_IRQHandler+0x130>
        HAL_TIM_IC_CaptureCallback(htim);
 8001d22:	f000 fdc3 	bl	80028ac <HAL_TIM_IC_CaptureCallback>
      htim->Channel = HAL_TIM_ACTIVE_CHANNEL_CLEARED;
 8001d26:	2300      	movs	r3, #0
 8001d28:	7723      	strb	r3, [r4, #28]
  if(__HAL_TIM_GET_FLAG(htim, TIM_FLAG_CC4) != RESET)
 8001d2a:	2210      	movs	r2, #16
 8001d2c:	6823      	ldr	r3, [r4, #0]
 8001d2e:	6919      	ldr	r1, [r3, #16]
 8001d30:	4211      	tst	r1, r2
 8001d32:	d010      	beq.n	8001d56 <HAL_TIM_IRQHandler+0xac>
    if(__HAL_TIM_GET_IT_SOURCE(htim, TIM_IT_CC4) !=RESET)
 8001d34:	68d9      	ldr	r1, [r3, #12]
 8001d36:	4211      	tst	r1, r2
 8001d38:	d00d      	beq.n	8001d56 <HAL_TIM_IRQHandler+0xac>
      __HAL_TIM_CLEAR_IT(htim, TIM_IT_CC4);
 8001d3a:	3a21      	subs	r2, #33	; 0x21
 8001d3c:	611a      	str	r2, [r3, #16]
      htim->Channel = HAL_TIM_ACTIVE_CHANNEL_4;
 8001d3e:	3219      	adds	r2, #25
 8001d40:	7722      	strb	r2, [r4, #28]
      if((htim->Instance->CCMR2 & TIM_CCMR2_CC4S) != 0x00U)
 8001d42:	69da      	ldr	r2, [r3, #28]
 8001d44:	23c0      	movs	r3, #192	; 0xc0
 8001d46:	009b      	lsls	r3, r3, #2
        HAL_TIM_IC_CaptureCallback(htim);
 8001d48:	0020      	movs	r0, r4
      if((htim->Instance->CCMR2 & TIM_CCMR2_CC4S) != 0x00U)
 8001d4a:	421a      	tst	r2, r3
 8001d4c:	d04b      	beq.n	8001de6 <HAL_TIM_IRQHandler+0x13c>
        HAL_TIM_IC_CaptureCallback(htim);
 8001d4e:	f000 fdad 	bl	80028ac <HAL_TIM_IC_CaptureCallback>
      htim->Channel = HAL_TIM_ACTIVE_CHANNEL_CLEARED;
 8001d52:	2300      	movs	r3, #0
 8001d54:	7723      	strb	r3, [r4, #28]
  if(__HAL_TIM_GET_FLAG(htim, TIM_FLAG_UPDATE) != RESET)
 8001d56:	2201      	movs	r2, #1
 8001d58:	6823      	ldr	r3, [r4, #0]
 8001d5a:	6919      	ldr	r1, [r3, #16]
 8001d5c:	4211      	tst	r1, r2
 8001d5e:	d007      	beq.n	8001d70 <HAL_TIM_IRQHandler+0xc6>
    if(__HAL_TIM_GET_IT_SOURCE(htim, TIM_IT_UPDATE) !=RESET)
 8001d60:	68d9      	ldr	r1, [r3, #12]
 8001d62:	4211      	tst	r1, r2
 8001d64:	d004      	beq.n	8001d70 <HAL_TIM_IRQHandler+0xc6>
      __HAL_TIM_CLEAR_IT(htim, TIM_IT_UPDATE);
 8001d66:	3a03      	subs	r2, #3
 8001d68:	611a      	str	r2, [r3, #16]
      HAL_TIM_PeriodElapsedCallback(htim);
 8001d6a:	0020      	movs	r0, r4
 8001d6c:	f000 fd7a 	bl	8002864 <HAL_TIM_PeriodElapsedCallback>
  if(__HAL_TIM_GET_FLAG(htim, TIM_FLAG_BREAK) != RESET)
 8001d70:	2280      	movs	r2, #128	; 0x80
 8001d72:	6823      	ldr	r3, [r4, #0]
 8001d74:	6919      	ldr	r1, [r3, #16]
 8001d76:	4211      	tst	r1, r2
 8001d78:	d008      	beq.n	8001d8c <HAL_TIM_IRQHandler+0xe2>
    if(__HAL_TIM_GET_IT_SOURCE(htim, TIM_IT_BREAK) !=RESET)
 8001d7a:	68d9      	ldr	r1, [r3, #12]
 8001d7c:	4211      	tst	r1, r2
 8001d7e:	d005      	beq.n	8001d8c <HAL_TIM_IRQHandler+0xe2>
      __HAL_TIM_CLEAR_IT(htim, TIM_IT_BREAK);
 8001d80:	3a02      	subs	r2, #2
 8001d82:	3aff      	subs	r2, #255	; 0xff
 8001d84:	611a      	str	r2, [r3, #16]
      HAL_TIMEx_BreakCallback(htim);
 8001d86:	0020      	movs	r0, r4
 8001d88:	f000 f9bc 	bl	8002104 <HAL_TIMEx_BreakCallback>
  if(__HAL_TIM_GET_FLAG(htim, TIM_FLAG_TRIGGER) != RESET)
 8001d8c:	2240      	movs	r2, #64	; 0x40
 8001d8e:	6823      	ldr	r3, [r4, #0]
 8001d90:	6919      	ldr	r1, [r3, #16]
 8001d92:	4211      	tst	r1, r2
 8001d94:	d007      	beq.n	8001da6 <HAL_TIM_IRQHandler+0xfc>
    if(__HAL_TIM_GET_IT_SOURCE(htim, TIM_IT_TRIGGER) !=RESET)
 8001d96:	68d9      	ldr	r1, [r3, #12]
 8001d98:	4211      	tst	r1, r2
 8001d9a:	d004      	beq.n	8001da6 <HAL_TIM_IRQHandler+0xfc>
      __HAL_TIM_CLEAR_IT(htim, TIM_IT_TRIGGER);
 8001d9c:	3a81      	subs	r2, #129	; 0x81
 8001d9e:	611a      	str	r2, [r3, #16]
      HAL_TIM_TriggerCallback(htim);
 8001da0:	0020      	movs	r0, r4
 8001da2:	f7ff ff81 	bl	8001ca8 <HAL_TIM_TriggerCallback>
  if(__HAL_TIM_GET_FLAG(htim, TIM_FLAG_COM) != RESET)
 8001da6:	2220      	movs	r2, #32
 8001da8:	6823      	ldr	r3, [r4, #0]
 8001daa:	6919      	ldr	r1, [r3, #16]
 8001dac:	4211      	tst	r1, r2
 8001dae:	d007      	beq.n	8001dc0 <HAL_TIM_IRQHandler+0x116>
    if(__HAL_TIM_GET_IT_SOURCE(htim, TIM_IT_COM) !=RESET)
 8001db0:	68d9      	ldr	r1, [r3, #12]
 8001db2:	4211      	tst	r1, r2
 8001db4:	d004      	beq.n	8001dc0 <HAL_TIM_IRQHandler+0x116>
      __HAL_TIM_CLEAR_IT(htim, TIM_FLAG_COM);
 8001db6:	3a41      	subs	r2, #65	; 0x41
 8001db8:	611a      	str	r2, [r3, #16]
      HAL_TIMEx_CommutationCallback(htim);
 8001dba:	0020      	movs	r0, r4
 8001dbc:	f000 f9a1 	bl	8002102 <HAL_TIMEx_CommutationCallback>
}
 8001dc0:	bd10      	pop	{r4, pc}
          HAL_TIM_OC_DelayElapsedCallback(htim);
 8001dc2:	f000 fd6d 	bl	80028a0 <HAL_TIM_OC_DelayElapsedCallback>
          HAL_TIM_PWM_PulseFinishedCallback(htim);
 8001dc6:	0020      	movs	r0, r4
 8001dc8:	f000 fd76 	bl	80028b8 <HAL_TIM_PWM_PulseFinishedCallback>
 8001dcc:	e781      	b.n	8001cd2 <HAL_TIM_IRQHandler+0x28>
        HAL_TIM_OC_DelayElapsedCallback(htim);
 8001dce:	f000 fd67 	bl	80028a0 <HAL_TIM_OC_DelayElapsedCallback>
        HAL_TIM_PWM_PulseFinishedCallback(htim);
 8001dd2:	0020      	movs	r0, r4
 8001dd4:	f000 fd70 	bl	80028b8 <HAL_TIM_PWM_PulseFinishedCallback>
 8001dd8:	e791      	b.n	8001cfe <HAL_TIM_IRQHandler+0x54>
        HAL_TIM_OC_DelayElapsedCallback(htim);
 8001dda:	f000 fd61 	bl	80028a0 <HAL_TIM_OC_DelayElapsedCallback>
        HAL_TIM_PWM_PulseFinishedCallback(htim);
 8001dde:	0020      	movs	r0, r4
 8001de0:	f000 fd6a 	bl	80028b8 <HAL_TIM_PWM_PulseFinishedCallback>
 8001de4:	e79f      	b.n	8001d26 <HAL_TIM_IRQHandler+0x7c>
        HAL_TIM_OC_DelayElapsedCallback(htim);
 8001de6:	f000 fd5b 	bl	80028a0 <HAL_TIM_OC_DelayElapsedCallback>
        HAL_TIM_PWM_PulseFinishedCallback(htim);
 8001dea:	0020      	movs	r0, r4
 8001dec:	f000 fd64 	bl	80028b8 <HAL_TIM_PWM_PulseFinishedCallback>
 8001df0:	e7af      	b.n	8001d52 <HAL_TIM_IRQHandler+0xa8>
	...

08001df4 <TIM_Base_SetConfig>:
  if (IS_TIM_COUNTER_MODE_SELECT_INSTANCE(TIMx))
 8001df4:	4a19      	ldr	r2, [pc, #100]	; (8001e5c <TIM_Base_SetConfig+0x68>)
{
 8001df6:	b510      	push	{r4, lr}
  tmpcr1 = TIMx->CR1;
 8001df8:	6803      	ldr	r3, [r0, #0]
  if (IS_TIM_COUNTER_MODE_SELECT_INSTANCE(TIMx))
 8001dfa:	4290      	cmp	r0, r2
 8001dfc:	d002      	beq.n	8001e04 <TIM_Base_SetConfig+0x10>
 8001dfe:	4c18      	ldr	r4, [pc, #96]	; (8001e60 <TIM_Base_SetConfig+0x6c>)
 8001e00:	42a0      	cmp	r0, r4
 8001e02:	d108      	bne.n	8001e16 <TIM_Base_SetConfig+0x22>
    tmpcr1 &= ~(TIM_CR1_DIR | TIM_CR1_CMS);
 8001e04:	2470      	movs	r4, #112	; 0x70
 8001e06:	43a3      	bics	r3, r4
    tmpcr1 |= Structure->CounterMode;
 8001e08:	684c      	ldr	r4, [r1, #4]
 8001e0a:	4323      	orrs	r3, r4
  if(IS_TIM_CLOCK_DIVISION_INSTANCE(TIMx))
 8001e0c:	4290      	cmp	r0, r2
 8001e0e:	d00b      	beq.n	8001e28 <TIM_Base_SetConfig+0x34>
 8001e10:	4c13      	ldr	r4, [pc, #76]	; (8001e60 <TIM_Base_SetConfig+0x6c>)
 8001e12:	42a0      	cmp	r0, r4
 8001e14:	d008      	beq.n	8001e28 <TIM_Base_SetConfig+0x34>
 8001e16:	4c13      	ldr	r4, [pc, #76]	; (8001e64 <TIM_Base_SetConfig+0x70>)
 8001e18:	42a0      	cmp	r0, r4
 8001e1a:	d005      	beq.n	8001e28 <TIM_Base_SetConfig+0x34>
 8001e1c:	4c12      	ldr	r4, [pc, #72]	; (8001e68 <TIM_Base_SetConfig+0x74>)
 8001e1e:	42a0      	cmp	r0, r4
 8001e20:	d002      	beq.n	8001e28 <TIM_Base_SetConfig+0x34>
 8001e22:	4c12      	ldr	r4, [pc, #72]	; (8001e6c <TIM_Base_SetConfig+0x78>)
 8001e24:	42a0      	cmp	r0, r4
 8001e26:	d103      	bne.n	8001e30 <TIM_Base_SetConfig+0x3c>
    tmpcr1 &= ~TIM_CR1_CKD;
 8001e28:	4c11      	ldr	r4, [pc, #68]	; (8001e70 <TIM_Base_SetConfig+0x7c>)
 8001e2a:	4023      	ands	r3, r4
    tmpcr1 |= (uint32_t)Structure->ClockDivision;
 8001e2c:	68cc      	ldr	r4, [r1, #12]
 8001e2e:	4323      	orrs	r3, r4
  MODIFY_REG(tmpcr1, TIM_CR1_ARPE, Structure->AutoReloadPreload);
 8001e30:	2480      	movs	r4, #128	; 0x80
 8001e32:	43a3      	bics	r3, r4
 8001e34:	694c      	ldr	r4, [r1, #20]
 8001e36:	4323      	orrs	r3, r4
  TIMx->CR1 = tmpcr1;
 8001e38:	6003      	str	r3, [r0, #0]
  TIMx->ARR = (uint32_t)Structure->Period ;
 8001e3a:	688b      	ldr	r3, [r1, #8]
 8001e3c:	62c3      	str	r3, [r0, #44]	; 0x2c
  TIMx->PSC = (uint32_t)Structure->Prescaler;
 8001e3e:	680b      	ldr	r3, [r1, #0]
 8001e40:	6283      	str	r3, [r0, #40]	; 0x28
  if (IS_TIM_REPETITION_COUNTER_INSTANCE(TIMx))
 8001e42:	4290      	cmp	r0, r2
 8001e44:	d005      	beq.n	8001e52 <TIM_Base_SetConfig+0x5e>
 8001e46:	4b08      	ldr	r3, [pc, #32]	; (8001e68 <TIM_Base_SetConfig+0x74>)
 8001e48:	4298      	cmp	r0, r3
 8001e4a:	d002      	beq.n	8001e52 <TIM_Base_SetConfig+0x5e>
 8001e4c:	4b07      	ldr	r3, [pc, #28]	; (8001e6c <TIM_Base_SetConfig+0x78>)
 8001e4e:	4298      	cmp	r0, r3
 8001e50:	d101      	bne.n	8001e56 <TIM_Base_SetConfig+0x62>
    TIMx->RCR = Structure->RepetitionCounter;
 8001e52:	690b      	ldr	r3, [r1, #16]
 8001e54:	6303      	str	r3, [r0, #48]	; 0x30
  TIMx->EGR = TIM_EGR_UG;
 8001e56:	2301      	movs	r3, #1
 8001e58:	6143      	str	r3, [r0, #20]
}
 8001e5a:	bd10      	pop	{r4, pc}
 8001e5c:	40012c00 	.word	0x40012c00
 8001e60:	40000400 	.word	0x40000400
 8001e64:	40002000 	.word	0x40002000
 8001e68:	40014400 	.word	0x40014400
 8001e6c:	40014800 	.word	0x40014800
 8001e70:	fffffcff 	.word	0xfffffcff

08001e74 <HAL_TIM_Base_Init>:
{
 8001e74:	b570      	push	{r4, r5, r6, lr}
 8001e76:	0004      	movs	r4, r0
    return HAL_ERROR;
 8001e78:	2001      	movs	r0, #1
  if(htim == NULL)
 8001e7a:	2c00      	cmp	r4, #0
 8001e7c:	d014      	beq.n	8001ea8 <HAL_TIM_Base_Init+0x34>
  if(htim->State == HAL_TIM_STATE_RESET)
 8001e7e:	0025      	movs	r5, r4
 8001e80:	353d      	adds	r5, #61	; 0x3d
 8001e82:	782b      	ldrb	r3, [r5, #0]
 8001e84:	b2db      	uxtb	r3, r3
 8001e86:	2b00      	cmp	r3, #0
 8001e88:	d105      	bne.n	8001e96 <HAL_TIM_Base_Init+0x22>
    htim->Lock = HAL_UNLOCKED;
 8001e8a:	0022      	movs	r2, r4
 8001e8c:	323c      	adds	r2, #60	; 0x3c
 8001e8e:	7013      	strb	r3, [r2, #0]
    HAL_TIM_Base_MspInit(htim);
 8001e90:	0020      	movs	r0, r4
 8001e92:	f000 fff1 	bl	8002e78 <HAL_TIM_Base_MspInit>
  htim->State= HAL_TIM_STATE_BUSY;
 8001e96:	2302      	movs	r3, #2
  TIM_Base_SetConfig(htim->Instance, &htim->Init);
 8001e98:	6820      	ldr	r0, [r4, #0]
  htim->State= HAL_TIM_STATE_BUSY;
 8001e9a:	702b      	strb	r3, [r5, #0]
  TIM_Base_SetConfig(htim->Instance, &htim->Init);
 8001e9c:	1d21      	adds	r1, r4, #4
 8001e9e:	f7ff ffa9 	bl	8001df4 <TIM_Base_SetConfig>
  htim->State= HAL_TIM_STATE_READY;
 8001ea2:	2301      	movs	r3, #1
  return HAL_OK;
 8001ea4:	2000      	movs	r0, #0
  htim->State= HAL_TIM_STATE_READY;
 8001ea6:	702b      	strb	r3, [r5, #0]
}
 8001ea8:	bd70      	pop	{r4, r5, r6, pc}

08001eaa <HAL_TIM_PWM_Init>:
{
 8001eaa:	b570      	push	{r4, r5, r6, lr}
 8001eac:	0004      	movs	r4, r0
    return HAL_ERROR;
 8001eae:	2001      	movs	r0, #1
  if(htim == NULL)
 8001eb0:	2c00      	cmp	r4, #0
 8001eb2:	d014      	beq.n	8001ede <HAL_TIM_PWM_Init+0x34>
  if(htim->State == HAL_TIM_STATE_RESET)
 8001eb4:	0025      	movs	r5, r4
 8001eb6:	353d      	adds	r5, #61	; 0x3d
 8001eb8:	782b      	ldrb	r3, [r5, #0]
 8001eba:	b2db      	uxtb	r3, r3
 8001ebc:	2b00      	cmp	r3, #0
 8001ebe:	d105      	bne.n	8001ecc <HAL_TIM_PWM_Init+0x22>
    htim->Lock = HAL_UNLOCKED;
 8001ec0:	0022      	movs	r2, r4
 8001ec2:	323c      	adds	r2, #60	; 0x3c
 8001ec4:	7013      	strb	r3, [r2, #0]
    HAL_TIM_PWM_MspInit(htim);
 8001ec6:	0020      	movs	r0, r4
 8001ec8:	f000 ffba 	bl	8002e40 <HAL_TIM_PWM_MspInit>
  htim->State= HAL_TIM_STATE_BUSY;
 8001ecc:	2302      	movs	r3, #2
  TIM_Base_SetConfig(htim->Instance, &htim->Init);
 8001ece:	6820      	ldr	r0, [r4, #0]
  htim->State= HAL_TIM_STATE_BUSY;
 8001ed0:	702b      	strb	r3, [r5, #0]
  TIM_Base_SetConfig(htim->Instance, &htim->Init);
 8001ed2:	1d21      	adds	r1, r4, #4
 8001ed4:	f7ff ff8e 	bl	8001df4 <TIM_Base_SetConfig>
  htim->State= HAL_TIM_STATE_READY;
 8001ed8:	2301      	movs	r3, #1
  return HAL_OK;
 8001eda:	2000      	movs	r0, #0
  htim->State= HAL_TIM_STATE_READY;
 8001edc:	702b      	strb	r3, [r5, #0]
}
 8001ede:	bd70      	pop	{r4, r5, r6, pc}

08001ee0 <TIM_OC2_SetConfig>:
  TIMx->CCER &= ~TIM_CCER_CC2E;
 8001ee0:	2210      	movs	r2, #16
 8001ee2:	6a03      	ldr	r3, [r0, #32]
{
 8001ee4:	b570      	push	{r4, r5, r6, lr}
  TIMx->CCER &= ~TIM_CCER_CC2E;
 8001ee6:	4393      	bics	r3, r2
 8001ee8:	6203      	str	r3, [r0, #32]
  tmpccer = TIMx->CCER;
 8001eea:	6a02      	ldr	r2, [r0, #32]
  tmpccmrx &= ~TIM_CCMR1_CC2S;
 8001eec:	4d15      	ldr	r5, [pc, #84]	; (8001f44 <TIM_OC2_SetConfig+0x64>)
  tmpcr2 =  TIMx->CR2;
 8001eee:	6843      	ldr	r3, [r0, #4]
  tmpccmrx = TIMx->CCMR1;
 8001ef0:	6984      	ldr	r4, [r0, #24]
  tmpccmrx &= ~TIM_CCMR1_CC2S;
 8001ef2:	402c      	ands	r4, r5
  tmpccmrx |= (OC_Config->OCMode << 8U);
 8001ef4:	680d      	ldr	r5, [r1, #0]
 8001ef6:	022d      	lsls	r5, r5, #8
 8001ef8:	432c      	orrs	r4, r5
  tmpccer &= ~TIM_CCER_CC2P;
 8001efa:	2520      	movs	r5, #32
 8001efc:	43aa      	bics	r2, r5
  tmpccer |= (OC_Config->OCPolarity << 4U);
 8001efe:	688d      	ldr	r5, [r1, #8]
 8001f00:	012d      	lsls	r5, r5, #4
 8001f02:	432a      	orrs	r2, r5
  if(IS_TIM_CCXN_INSTANCE(TIMx, TIM_CHANNEL_2))
 8001f04:	4d10      	ldr	r5, [pc, #64]	; (8001f48 <TIM_OC2_SetConfig+0x68>)
 8001f06:	42a8      	cmp	r0, r5
 8001f08:	d10f      	bne.n	8001f2a <TIM_OC2_SetConfig+0x4a>
    tmpccer &= ~TIM_CCER_CC2NP;
 8001f0a:	2580      	movs	r5, #128	; 0x80
 8001f0c:	43aa      	bics	r2, r5
 8001f0e:	0015      	movs	r5, r2
    tmpccer |= (OC_Config->OCNPolarity << 4U);
 8001f10:	68ca      	ldr	r2, [r1, #12]
 8001f12:	0112      	lsls	r2, r2, #4
 8001f14:	432a      	orrs	r2, r5
    tmpccer &= ~TIM_CCER_CC2NE;
 8001f16:	2540      	movs	r5, #64	; 0x40
 8001f18:	43aa      	bics	r2, r5
    tmpcr2 &= ~TIM_CR2_OIS2N;
 8001f1a:	4d0c      	ldr	r5, [pc, #48]	; (8001f4c <TIM_OC2_SetConfig+0x6c>)
    tmpcr2 |= (OC_Config->OCNIdleState << 2U);
 8001f1c:	694e      	ldr	r6, [r1, #20]
    tmpcr2 &= ~TIM_CR2_OIS2N;
 8001f1e:	401d      	ands	r5, r3
    tmpcr2 |= (OC_Config->OCNIdleState << 2U);
 8001f20:	698b      	ldr	r3, [r1, #24]
 8001f22:	4333      	orrs	r3, r6
 8001f24:	009b      	lsls	r3, r3, #2
 8001f26:	432b      	orrs	r3, r5
 8001f28:	e005      	b.n	8001f36 <TIM_OC2_SetConfig+0x56>
  if(IS_TIM_BREAK_INSTANCE(TIMx))
 8001f2a:	4d09      	ldr	r5, [pc, #36]	; (8001f50 <TIM_OC2_SetConfig+0x70>)
 8001f2c:	42a8      	cmp	r0, r5
 8001f2e:	d0f4      	beq.n	8001f1a <TIM_OC2_SetConfig+0x3a>
 8001f30:	4d08      	ldr	r5, [pc, #32]	; (8001f54 <TIM_OC2_SetConfig+0x74>)
 8001f32:	42a8      	cmp	r0, r5
 8001f34:	d0f1      	beq.n	8001f1a <TIM_OC2_SetConfig+0x3a>
  TIMx->CR2 = tmpcr2;
 8001f36:	6043      	str	r3, [r0, #4]
  TIMx->CCR2 = OC_Config->Pulse;
 8001f38:	684b      	ldr	r3, [r1, #4]
  TIMx->CCMR1 = tmpccmrx;
 8001f3a:	6184      	str	r4, [r0, #24]
  TIMx->CCR2 = OC_Config->Pulse;
 8001f3c:	6383      	str	r3, [r0, #56]	; 0x38
  TIMx->CCER = tmpccer;
 8001f3e:	6202      	str	r2, [r0, #32]
}
 8001f40:	bd70      	pop	{r4, r5, r6, pc}
 8001f42:	46c0      	nop			; (mov r8, r8)
 8001f44:	ffff8cff 	.word	0xffff8cff
 8001f48:	40012c00 	.word	0x40012c00
 8001f4c:	fffff3ff 	.word	0xfffff3ff
 8001f50:	40014400 	.word	0x40014400
 8001f54:	40014800 	.word	0x40014800

08001f58 <HAL_TIM_PWM_ConfigChannel>:
{
 8001f58:	b5f8      	push	{r3, r4, r5, r6, r7, lr}
  __HAL_LOCK(htim);
 8001f5a:	0006      	movs	r6, r0
 8001f5c:	2302      	movs	r3, #2
 8001f5e:	363c      	adds	r6, #60	; 0x3c
{
 8001f60:	000d      	movs	r5, r1
  __HAL_LOCK(htim);
 8001f62:	7831      	ldrb	r1, [r6, #0]
{
 8001f64:	0004      	movs	r4, r0
  __HAL_LOCK(htim);
 8001f66:	0018      	movs	r0, r3
 8001f68:	2901      	cmp	r1, #1
 8001f6a:	d025      	beq.n	8001fb8 <HAL_TIM_PWM_ConfigChannel+0x60>
  htim->State = HAL_TIM_STATE_BUSY;
 8001f6c:	0027      	movs	r7, r4
  __HAL_LOCK(htim);
 8001f6e:	2101      	movs	r1, #1
  htim->State = HAL_TIM_STATE_BUSY;
 8001f70:	373d      	adds	r7, #61	; 0x3d
  __HAL_LOCK(htim);
 8001f72:	7031      	strb	r1, [r6, #0]
  htim->State = HAL_TIM_STATE_BUSY;
 8001f74:	703b      	strb	r3, [r7, #0]
  switch (Channel)
 8001f76:	2a0c      	cmp	r2, #12
 8001f78:	d81a      	bhi.n	8001fb0 <HAL_TIM_PWM_ConfigChannel+0x58>
 8001f7a:	0010      	movs	r0, r2
 8001f7c:	f7fe f8cc 	bl	8000118 <__gnu_thumb1_case_uqi>
 8001f80:	18181807 	.word	0x18181807
 8001f84:	1818181d 	.word	0x1818181d
 8001f88:	1818182f 	.word	0x1818182f
 8001f8c:	41          	.byte	0x41
 8001f8d:	00          	.byte	0x00
      TIM_OC1_SetConfig(htim->Instance, sConfig);
 8001f8e:	0029      	movs	r1, r5
 8001f90:	6820      	ldr	r0, [r4, #0]
 8001f92:	f7ff fdcf 	bl	8001b34 <TIM_OC1_SetConfig>
      htim->Instance->CCMR1 |= TIM_CCMR1_OC1PE;
 8001f96:	2208      	movs	r2, #8
 8001f98:	6823      	ldr	r3, [r4, #0]
 8001f9a:	6999      	ldr	r1, [r3, #24]
 8001f9c:	430a      	orrs	r2, r1
      htim->Instance->CCMR1 &= ~TIM_CCMR1_OC1FE;
 8001f9e:	2104      	movs	r1, #4
      htim->Instance->CCMR1 |= TIM_CCMR1_OC1PE;
 8001fa0:	619a      	str	r2, [r3, #24]
      htim->Instance->CCMR1 &= ~TIM_CCMR1_OC1FE;
 8001fa2:	699a      	ldr	r2, [r3, #24]
 8001fa4:	438a      	bics	r2, r1
 8001fa6:	619a      	str	r2, [r3, #24]
      htim->Instance->CCMR1 |= sConfig->OCFastMode;
 8001fa8:	699a      	ldr	r2, [r3, #24]
 8001faa:	6929      	ldr	r1, [r5, #16]
      htim->Instance->CCMR1 |= sConfig->OCFastMode << 8U;
 8001fac:	430a      	orrs	r2, r1
 8001fae:	619a      	str	r2, [r3, #24]
  htim->State = HAL_TIM_STATE_READY;
 8001fb0:	2301      	movs	r3, #1
  __HAL_UNLOCK(htim);
 8001fb2:	2000      	movs	r0, #0
  htim->State = HAL_TIM_STATE_READY;
 8001fb4:	703b      	strb	r3, [r7, #0]
  __HAL_UNLOCK(htim);
 8001fb6:	7030      	strb	r0, [r6, #0]
}
 8001fb8:	bdf8      	pop	{r3, r4, r5, r6, r7, pc}
      TIM_OC2_SetConfig(htim->Instance, sConfig);
 8001fba:	0029      	movs	r1, r5
 8001fbc:	6820      	ldr	r0, [r4, #0]
 8001fbe:	f7ff ff8f 	bl	8001ee0 <TIM_OC2_SetConfig>
      htim->Instance->CCMR1 |= TIM_CCMR1_OC2PE;
 8001fc2:	2280      	movs	r2, #128	; 0x80
 8001fc4:	6823      	ldr	r3, [r4, #0]
 8001fc6:	0112      	lsls	r2, r2, #4
 8001fc8:	6999      	ldr	r1, [r3, #24]
 8001fca:	430a      	orrs	r2, r1
 8001fcc:	619a      	str	r2, [r3, #24]
      htim->Instance->CCMR1 &= ~TIM_CCMR1_OC2FE;
 8001fce:	699a      	ldr	r2, [r3, #24]
 8001fd0:	4915      	ldr	r1, [pc, #84]	; (8002028 <HAL_TIM_PWM_ConfigChannel+0xd0>)
 8001fd2:	400a      	ands	r2, r1
 8001fd4:	619a      	str	r2, [r3, #24]
      htim->Instance->CCMR1 |= sConfig->OCFastMode << 8U;
 8001fd6:	692a      	ldr	r2, [r5, #16]
 8001fd8:	6999      	ldr	r1, [r3, #24]
 8001fda:	0212      	lsls	r2, r2, #8
 8001fdc:	e7e6      	b.n	8001fac <HAL_TIM_PWM_ConfigChannel+0x54>
      TIM_OC3_SetConfig(htim->Instance, sConfig);
 8001fde:	0029      	movs	r1, r5
 8001fe0:	6820      	ldr	r0, [r4, #0]
 8001fe2:	f7ff fde3 	bl	8001bac <TIM_OC3_SetConfig>
      htim->Instance->CCMR2 |= TIM_CCMR2_OC3PE;
 8001fe6:	2208      	movs	r2, #8
 8001fe8:	6823      	ldr	r3, [r4, #0]
 8001fea:	69d9      	ldr	r1, [r3, #28]
 8001fec:	430a      	orrs	r2, r1
      htim->Instance->CCMR2 &= ~TIM_CCMR2_OC3FE;
 8001fee:	2104      	movs	r1, #4
      htim->Instance->CCMR2 |= TIM_CCMR2_OC3PE;
 8001ff0:	61da      	str	r2, [r3, #28]
      htim->Instance->CCMR2 &= ~TIM_CCMR2_OC3FE;
 8001ff2:	69da      	ldr	r2, [r3, #28]
 8001ff4:	438a      	bics	r2, r1
 8001ff6:	61da      	str	r2, [r3, #28]
      htim->Instance->CCMR2 |= sConfig->OCFastMode;
 8001ff8:	69da      	ldr	r2, [r3, #28]
 8001ffa:	6929      	ldr	r1, [r5, #16]
      htim->Instance->CCMR2 |= sConfig->OCFastMode << 8U;
 8001ffc:	430a      	orrs	r2, r1
 8001ffe:	61da      	str	r2, [r3, #28]
    break;
 8002000:	e7d6      	b.n	8001fb0 <HAL_TIM_PWM_ConfigChannel+0x58>
      TIM_OC4_SetConfig(htim->Instance, sConfig);
 8002002:	0029      	movs	r1, r5
 8002004:	6820      	ldr	r0, [r4, #0]
 8002006:	f7ff fe11 	bl	8001c2c <TIM_OC4_SetConfig>
      htim->Instance->CCMR2 |= TIM_CCMR2_OC4PE;
 800200a:	2280      	movs	r2, #128	; 0x80
 800200c:	6823      	ldr	r3, [r4, #0]
 800200e:	0112      	lsls	r2, r2, #4
 8002010:	69d9      	ldr	r1, [r3, #28]
 8002012:	430a      	orrs	r2, r1
 8002014:	61da      	str	r2, [r3, #28]
      htim->Instance->CCMR2 &= ~TIM_CCMR2_OC4FE;
 8002016:	69da      	ldr	r2, [r3, #28]
 8002018:	4903      	ldr	r1, [pc, #12]	; (8002028 <HAL_TIM_PWM_ConfigChannel+0xd0>)
 800201a:	400a      	ands	r2, r1
 800201c:	61da      	str	r2, [r3, #28]
      htim->Instance->CCMR2 |= sConfig->OCFastMode << 8U;
 800201e:	692a      	ldr	r2, [r5, #16]
 8002020:	69d9      	ldr	r1, [r3, #28]
 8002022:	0212      	lsls	r2, r2, #8
 8002024:	e7ea      	b.n	8001ffc <HAL_TIM_PWM_ConfigChannel+0xa4>
 8002026:	46c0      	nop			; (mov r8, r8)
 8002028:	fffffbff 	.word	0xfffffbff

0800202c <TIM_CCxChannelCmd>:
  * @param  ChannelState specifies the TIM Channel CCxE bit new state.
  *          This parameter can be: TIM_CCx_ENABLE or TIM_CCx_Disable.
  * @retval None
  */
void TIM_CCxChannelCmd(TIM_TypeDef* TIMx, uint32_t Channel, uint32_t ChannelState)
{
 800202c:	b510      	push	{r4, lr}

  /* Check the parameters */
  assert_param(IS_TIM_CC1_INSTANCE(TIMx));
  assert_param(IS_TIM_CHANNELS(Channel));

  tmp = TIM_CCER_CC1E << Channel;
 800202e:	2401      	movs	r4, #1
 8002030:	408c      	lsls	r4, r1

  /* Reset the CCxE Bit */
  TIMx->CCER &= ~tmp;

  /* Set or reset the CCxE Bit */
  TIMx->CCER |=  (uint32_t)(ChannelState << Channel);
 8002032:	408a      	lsls	r2, r1
  TIMx->CCER &= ~tmp;
 8002034:	6a03      	ldr	r3, [r0, #32]
 8002036:	43a3      	bics	r3, r4
 8002038:	6203      	str	r3, [r0, #32]
  TIMx->CCER |=  (uint32_t)(ChannelState << Channel);
 800203a:	6a03      	ldr	r3, [r0, #32]
 800203c:	431a      	orrs	r2, r3
 800203e:	6202      	str	r2, [r0, #32]
}
 8002040:	bd10      	pop	{r4, pc}
	...

08002044 <HAL_TIM_PWM_Start_IT>:
{
 8002044:	b510      	push	{r4, lr}
 8002046:	0004      	movs	r4, r0
  switch (Channel)
 8002048:	290c      	cmp	r1, #12
 800204a:	d80e      	bhi.n	800206a <HAL_TIM_PWM_Start_IT+0x26>
 800204c:	0008      	movs	r0, r1
 800204e:	f7fe f863 	bl	8000118 <__gnu_thumb1_case_uqi>
 8002052:	0c07      	.short	0x0c07
 8002054:	0c250c0c 	.word	0x0c250c0c
 8002058:	0c290c0c 	.word	0x0c290c0c
 800205c:	0c0c      	.short	0x0c0c
 800205e:	2d          	.byte	0x2d
 800205f:	00          	.byte	0x00
      __HAL_TIM_ENABLE_IT(htim, TIM_IT_CC1);
 8002060:	2302      	movs	r3, #2
 8002062:	6822      	ldr	r2, [r4, #0]
 8002064:	68d0      	ldr	r0, [r2, #12]
      __HAL_TIM_ENABLE_IT(htim, TIM_IT_CC4);
 8002066:	4303      	orrs	r3, r0
 8002068:	60d3      	str	r3, [r2, #12]
  TIM_CCxChannelCmd(htim->Instance, Channel, TIM_CCx_ENABLE);
 800206a:	2201      	movs	r2, #1
 800206c:	6820      	ldr	r0, [r4, #0]
 800206e:	f7ff ffdd 	bl	800202c <TIM_CCxChannelCmd>
  if(IS_TIM_BREAK_INSTANCE(htim->Instance) != RESET)
 8002072:	6823      	ldr	r3, [r4, #0]
 8002074:	4a0f      	ldr	r2, [pc, #60]	; (80020b4 <HAL_TIM_PWM_Start_IT+0x70>)
 8002076:	4293      	cmp	r3, r2
 8002078:	d005      	beq.n	8002086 <HAL_TIM_PWM_Start_IT+0x42>
 800207a:	4a0f      	ldr	r2, [pc, #60]	; (80020b8 <HAL_TIM_PWM_Start_IT+0x74>)
 800207c:	4293      	cmp	r3, r2
 800207e:	d002      	beq.n	8002086 <HAL_TIM_PWM_Start_IT+0x42>
 8002080:	4a0e      	ldr	r2, [pc, #56]	; (80020bc <HAL_TIM_PWM_Start_IT+0x78>)
 8002082:	4293      	cmp	r3, r2
 8002084:	d104      	bne.n	8002090 <HAL_TIM_PWM_Start_IT+0x4c>
    __HAL_TIM_MOE_ENABLE(htim);
 8002086:	2280      	movs	r2, #128	; 0x80
 8002088:	6c59      	ldr	r1, [r3, #68]	; 0x44
 800208a:	0212      	lsls	r2, r2, #8
 800208c:	430a      	orrs	r2, r1
 800208e:	645a      	str	r2, [r3, #68]	; 0x44
  __HAL_TIM_ENABLE(htim);
 8002090:	2201      	movs	r2, #1
 8002092:	6819      	ldr	r1, [r3, #0]
}
 8002094:	2000      	movs	r0, #0
  __HAL_TIM_ENABLE(htim);
 8002096:	430a      	orrs	r2, r1
 8002098:	601a      	str	r2, [r3, #0]
}
 800209a:	bd10      	pop	{r4, pc}
      __HAL_TIM_ENABLE_IT(htim, TIM_IT_CC2);
 800209c:	6822      	ldr	r2, [r4, #0]
 800209e:	2304      	movs	r3, #4
 80020a0:	68d0      	ldr	r0, [r2, #12]
 80020a2:	e7e0      	b.n	8002066 <HAL_TIM_PWM_Start_IT+0x22>
      __HAL_TIM_ENABLE_IT(htim, TIM_IT_CC3);
 80020a4:	6822      	ldr	r2, [r4, #0]
 80020a6:	2308      	movs	r3, #8
 80020a8:	68d0      	ldr	r0, [r2, #12]
 80020aa:	e7dc      	b.n	8002066 <HAL_TIM_PWM_Start_IT+0x22>
      __HAL_TIM_ENABLE_IT(htim, TIM_IT_CC4);
 80020ac:	6822      	ldr	r2, [r4, #0]
 80020ae:	2310      	movs	r3, #16
 80020b0:	68d0      	ldr	r0, [r2, #12]
 80020b2:	e7d8      	b.n	8002066 <HAL_TIM_PWM_Start_IT+0x22>
 80020b4:	40012c00 	.word	0x40012c00
 80020b8:	40014400 	.word	0x40014400
 80020bc:	40014800 	.word	0x40014800

080020c0 <HAL_TIMEx_MasterConfigSynchronization>:
  *         contains the selected trigger output (TRGO) and the Master/Slave 
  *         mode.
  * @retval HAL status
  */
HAL_StatusTypeDef HAL_TIMEx_MasterConfigSynchronization(TIM_HandleTypeDef *htim, TIM_MasterConfigTypeDef * sMasterConfig)
{
 80020c0:	b530      	push	{r4, r5, lr}
  /* Check the parameters */
  assert_param(IS_TIM_MASTER_INSTANCE(htim->Instance));
  assert_param(IS_TIM_TRGO_SOURCE(sMasterConfig->MasterOutputTrigger));
  assert_param(IS_TIM_MSM_STATE(sMasterConfig->MasterSlaveMode));

  __HAL_LOCK(htim);
 80020c2:	0004      	movs	r4, r0
 80020c4:	343c      	adds	r4, #60	; 0x3c
 80020c6:	7822      	ldrb	r2, [r4, #0]
{
 80020c8:	0003      	movs	r3, r0
 80020ca:	2002      	movs	r0, #2
  __HAL_LOCK(htim);
 80020cc:	2a01      	cmp	r2, #1
 80020ce:	d017      	beq.n	8002100 <HAL_TIMEx_MasterConfigSynchronization+0x40>

  htim->State = HAL_TIM_STATE_BUSY;
 80020d0:	001d      	movs	r5, r3

  /* Reset the MMS Bits */
  htim->Instance->CR2 &= ~TIM_CR2_MMS;
 80020d2:	681b      	ldr	r3, [r3, #0]
  htim->State = HAL_TIM_STATE_BUSY;
 80020d4:	353d      	adds	r5, #61	; 0x3d
 80020d6:	7028      	strb	r0, [r5, #0]
  htim->Instance->CR2 &= ~TIM_CR2_MMS;
 80020d8:	685a      	ldr	r2, [r3, #4]
 80020da:	306e      	adds	r0, #110	; 0x6e
 80020dc:	4382      	bics	r2, r0
 80020de:	605a      	str	r2, [r3, #4]
  /* Select the TRGO source */
  htim->Instance->CR2 |=  sMasterConfig->MasterOutputTrigger;
 80020e0:	685a      	ldr	r2, [r3, #4]
 80020e2:	6808      	ldr	r0, [r1, #0]

  /* Reset the MSM Bit */
  htim->Instance->SMCR &= ~TIM_SMCR_MSM;
  /* Set or Reset the MSM Bit */
  htim->Instance->SMCR |= sMasterConfig->MasterSlaveMode;
 80020e4:	6849      	ldr	r1, [r1, #4]
  htim->Instance->CR2 |=  sMasterConfig->MasterOutputTrigger;
 80020e6:	4302      	orrs	r2, r0
  htim->Instance->SMCR &= ~TIM_SMCR_MSM;
 80020e8:	2080      	movs	r0, #128	; 0x80
  htim->Instance->CR2 |=  sMasterConfig->MasterOutputTrigger;
 80020ea:	605a      	str	r2, [r3, #4]
  htim->Instance->SMCR &= ~TIM_SMCR_MSM;
 80020ec:	689a      	ldr	r2, [r3, #8]
 80020ee:	4382      	bics	r2, r0
 80020f0:	609a      	str	r2, [r3, #8]
  htim->Instance->SMCR |= sMasterConfig->MasterSlaveMode;
 80020f2:	689a      	ldr	r2, [r3, #8]

  htim->State = HAL_TIM_STATE_READY;

  __HAL_UNLOCK(htim);
 80020f4:	2000      	movs	r0, #0
  htim->Instance->SMCR |= sMasterConfig->MasterSlaveMode;
 80020f6:	430a      	orrs	r2, r1
 80020f8:	609a      	str	r2, [r3, #8]
  htim->State = HAL_TIM_STATE_READY;
 80020fa:	2301      	movs	r3, #1
 80020fc:	702b      	strb	r3, [r5, #0]
  __HAL_UNLOCK(htim);
 80020fe:	7020      	strb	r0, [r4, #0]

  return HAL_OK;
}
 8002100:	bd30      	pop	{r4, r5, pc}

08002102 <HAL_TIMEx_CommutationCallback>:
 8002102:	4770      	bx	lr

08002104 <HAL_TIMEx_BreakCallback>:
  UNUSED(htim);

  /* NOTE : This function Should not be modified, when the callback is needed,
            the HAL_TIMEx_BreakCallback could be implemented in the user file
   */
}
 8002104:	4770      	bx	lr
	...

08002108 <UART_EndRxTransfer>:
  * @retval None
  */
static void UART_EndRxTransfer(UART_HandleTypeDef *huart)
{
  /* Disable RXNE, PE and ERR (Frame error, noise error, overrun error) interrupts */
  CLEAR_BIT(huart->Instance->CR1, (USART_CR1_RXNEIE | USART_CR1_PEIE));
 8002108:	6803      	ldr	r3, [r0, #0]
 800210a:	4906      	ldr	r1, [pc, #24]	; (8002124 <UART_EndRxTransfer+0x1c>)
 800210c:	681a      	ldr	r2, [r3, #0]
  CLEAR_BIT(huart->Instance->CR3, USART_CR3_EIE);

  /* At end of Rx process, restore huart->RxState to Ready */
  huart->RxState = HAL_UART_STATE_READY;
 800210e:	306a      	adds	r0, #106	; 0x6a
  CLEAR_BIT(huart->Instance->CR1, (USART_CR1_RXNEIE | USART_CR1_PEIE));
 8002110:	400a      	ands	r2, r1
 8002112:	601a      	str	r2, [r3, #0]
  CLEAR_BIT(huart->Instance->CR3, USART_CR3_EIE);
 8002114:	689a      	ldr	r2, [r3, #8]
 8002116:	3123      	adds	r1, #35	; 0x23
 8002118:	31ff      	adds	r1, #255	; 0xff
 800211a:	438a      	bics	r2, r1
 800211c:	609a      	str	r2, [r3, #8]
  huart->RxState = HAL_UART_STATE_READY;
 800211e:	2320      	movs	r3, #32
 8002120:	7003      	strb	r3, [r0, #0]
}
 8002122:	4770      	bx	lr
 8002124:	fffffedf 	.word	0xfffffedf

08002128 <HAL_UART_Transmit_IT>:
{
 8002128:	b570      	push	{r4, r5, r6, lr}
  if(huart->gState == HAL_UART_STATE_READY)
 800212a:	0006      	movs	r6, r0
 800212c:	3669      	adds	r6, #105	; 0x69
 800212e:	7833      	ldrb	r3, [r6, #0]
{
 8002130:	0004      	movs	r4, r0
    return HAL_BUSY;
 8002132:	2002      	movs	r0, #2
  if(huart->gState == HAL_UART_STATE_READY)
 8002134:	2b20      	cmp	r3, #32
 8002136:	d124      	bne.n	8002182 <HAL_UART_Transmit_IT+0x5a>
      return HAL_ERROR;
 8002138:	3801      	subs	r0, #1
    if((pData == NULL ) || (Size == 0U))
 800213a:	2900      	cmp	r1, #0
 800213c:	d021      	beq.n	8002182 <HAL_UART_Transmit_IT+0x5a>
 800213e:	2a00      	cmp	r2, #0
 8002140:	d01f      	beq.n	8002182 <HAL_UART_Transmit_IT+0x5a>
    if ((huart->Init.WordLength == UART_WORDLENGTH_9B) && (huart->Init.Parity == UART_PARITY_NONE))
 8002142:	2380      	movs	r3, #128	; 0x80
 8002144:	68a5      	ldr	r5, [r4, #8]
 8002146:	015b      	lsls	r3, r3, #5
 8002148:	429d      	cmp	r5, r3
 800214a:	d104      	bne.n	8002156 <HAL_UART_Transmit_IT+0x2e>
 800214c:	6923      	ldr	r3, [r4, #16]
 800214e:	2b00      	cmp	r3, #0
 8002150:	d101      	bne.n	8002156 <HAL_UART_Transmit_IT+0x2e>
      if((((uint32_t)pData)&1U) != 0U)
 8002152:	4201      	tst	r1, r0
 8002154:	d115      	bne.n	8002182 <HAL_UART_Transmit_IT+0x5a>
    __HAL_LOCK(huart);
 8002156:	0025      	movs	r5, r4
 8002158:	3568      	adds	r5, #104	; 0x68
 800215a:	782b      	ldrb	r3, [r5, #0]
    return HAL_BUSY;
 800215c:	2002      	movs	r0, #2
    __HAL_LOCK(huart);
 800215e:	2b01      	cmp	r3, #1
 8002160:	d00f      	beq.n	8002182 <HAL_UART_Transmit_IT+0x5a>
    huart->TxXferSize = Size;
 8002162:	0023      	movs	r3, r4
 8002164:	3350      	adds	r3, #80	; 0x50
    huart->pTxBuffPtr = pData;
 8002166:	64e1      	str	r1, [r4, #76]	; 0x4c
    huart->TxXferCount = Size;
 8002168:	805a      	strh	r2, [r3, #2]
    huart->TxXferSize = Size;
 800216a:	801a      	strh	r2, [r3, #0]
    huart->ErrorCode = HAL_UART_ERROR_NONE;
 800216c:	2300      	movs	r3, #0
    huart->gState = HAL_UART_STATE_BUSY_TX;
 800216e:	2221      	movs	r2, #33	; 0x21
    SET_BIT(huart->Instance->CR1, USART_CR1_TXEIE);
 8002170:	6821      	ldr	r1, [r4, #0]
    huart->ErrorCode = HAL_UART_ERROR_NONE;
 8002172:	66e3      	str	r3, [r4, #108]	; 0x6c
    huart->gState = HAL_UART_STATE_BUSY_TX;
 8002174:	7032      	strb	r2, [r6, #0]
    SET_BIT(huart->Instance->CR1, USART_CR1_TXEIE);
 8002176:	6808      	ldr	r0, [r1, #0]
 8002178:	325f      	adds	r2, #95	; 0x5f
 800217a:	4302      	orrs	r2, r0
    return HAL_OK;
 800217c:	0018      	movs	r0, r3
    __HAL_UNLOCK(huart);
 800217e:	702b      	strb	r3, [r5, #0]
    SET_BIT(huart->Instance->CR1, USART_CR1_TXEIE);
 8002180:	600a      	str	r2, [r1, #0]
}
 8002182:	bd70      	pop	{r4, r5, r6, pc}

08002184 <HAL_UART_Receive_IT>:
{
 8002184:	b5f0      	push	{r4, r5, r6, r7, lr}
  if(huart->RxState == HAL_UART_STATE_READY)
 8002186:	0006      	movs	r6, r0
 8002188:	366a      	adds	r6, #106	; 0x6a
 800218a:	7834      	ldrb	r4, [r6, #0]
{
 800218c:	0003      	movs	r3, r0
    return HAL_BUSY;
 800218e:	2002      	movs	r0, #2
  if(huart->RxState == HAL_UART_STATE_READY)
 8002190:	2c20      	cmp	r4, #32
 8002192:	d135      	bne.n	8002200 <HAL_UART_Receive_IT+0x7c>
      return HAL_ERROR;
 8002194:	3801      	subs	r0, #1
    if((pData == NULL ) || (Size == 0U))
 8002196:	2900      	cmp	r1, #0
 8002198:	d032      	beq.n	8002200 <HAL_UART_Receive_IT+0x7c>
 800219a:	2a00      	cmp	r2, #0
 800219c:	d030      	beq.n	8002200 <HAL_UART_Receive_IT+0x7c>
    if ((huart->Init.WordLength == UART_WORDLENGTH_9B) && (huart->Init.Parity == UART_PARITY_NONE))
 800219e:	2480      	movs	r4, #128	; 0x80
 80021a0:	689d      	ldr	r5, [r3, #8]
 80021a2:	0164      	lsls	r4, r4, #5
 80021a4:	42a5      	cmp	r5, r4
 80021a6:	d104      	bne.n	80021b2 <HAL_UART_Receive_IT+0x2e>
 80021a8:	691c      	ldr	r4, [r3, #16]
 80021aa:	2c00      	cmp	r4, #0
 80021ac:	d101      	bne.n	80021b2 <HAL_UART_Receive_IT+0x2e>
      if((((uint32_t)pData)&1U) != 0U)
 80021ae:	4201      	tst	r1, r0
 80021b0:	d126      	bne.n	8002200 <HAL_UART_Receive_IT+0x7c>
    __HAL_LOCK(huart);
 80021b2:	001c      	movs	r4, r3
 80021b4:	3468      	adds	r4, #104	; 0x68
 80021b6:	7827      	ldrb	r7, [r4, #0]
    return HAL_BUSY;
 80021b8:	2002      	movs	r0, #2
    __HAL_LOCK(huart);
 80021ba:	2f01      	cmp	r7, #1
 80021bc:	d020      	beq.n	8002200 <HAL_UART_Receive_IT+0x7c>
 80021be:	3801      	subs	r0, #1
 80021c0:	7020      	strb	r0, [r4, #0]
    huart->pRxBuffPtr = pData;
 80021c2:	6559      	str	r1, [r3, #84]	; 0x54
    huart->RxXferSize = Size;
 80021c4:	0019      	movs	r1, r3
 80021c6:	3158      	adds	r1, #88	; 0x58
 80021c8:	800a      	strh	r2, [r1, #0]
    huart->RxXferCount = Size;
 80021ca:	804a      	strh	r2, [r1, #2]
    UART_MASK_COMPUTATION(huart);
 80021cc:	2280      	movs	r2, #128	; 0x80
 80021ce:	0152      	lsls	r2, r2, #5
 80021d0:	4295      	cmp	r5, r2
 80021d2:	d118      	bne.n	8002206 <HAL_UART_Receive_IT+0x82>
 80021d4:	691a      	ldr	r2, [r3, #16]
 80021d6:	2a00      	cmp	r2, #0
 80021d8:	d113      	bne.n	8002202 <HAL_UART_Receive_IT+0x7e>
 80021da:	490e      	ldr	r1, [pc, #56]	; (8002214 <HAL_UART_Receive_IT+0x90>)
 80021dc:	001a      	movs	r2, r3
 80021de:	325c      	adds	r2, #92	; 0x5c
 80021e0:	8011      	strh	r1, [r2, #0]
    huart->ErrorCode = HAL_UART_ERROR_NONE;
 80021e2:	2000      	movs	r0, #0
    huart->RxState = HAL_UART_STATE_BUSY_RX;
 80021e4:	2222      	movs	r2, #34	; 0x22
    huart->ErrorCode = HAL_UART_ERROR_NONE;
 80021e6:	66d8      	str	r0, [r3, #108]	; 0x6c
    SET_BIT(huart->Instance->CR3, USART_CR3_EIE);
 80021e8:	681b      	ldr	r3, [r3, #0]
    huart->RxState = HAL_UART_STATE_BUSY_RX;
 80021ea:	7032      	strb	r2, [r6, #0]
    SET_BIT(huart->Instance->CR3, USART_CR3_EIE);
 80021ec:	6899      	ldr	r1, [r3, #8]
 80021ee:	3a21      	subs	r2, #33	; 0x21
 80021f0:	430a      	orrs	r2, r1
    __HAL_UNLOCK(huart);
 80021f2:	7020      	strb	r0, [r4, #0]
    SET_BIT(huart->Instance->CR3, USART_CR3_EIE);
 80021f4:	609a      	str	r2, [r3, #8]
    SET_BIT(huart->Instance->CR1, USART_CR1_PEIE | USART_CR1_RXNEIE);
 80021f6:	2290      	movs	r2, #144	; 0x90
 80021f8:	6819      	ldr	r1, [r3, #0]
 80021fa:	0052      	lsls	r2, r2, #1
 80021fc:	430a      	orrs	r2, r1
 80021fe:	601a      	str	r2, [r3, #0]
}
 8002200:	bdf0      	pop	{r4, r5, r6, r7, pc}
    UART_MASK_COMPUTATION(huart);
 8002202:	21ff      	movs	r1, #255	; 0xff
 8002204:	e7ea      	b.n	80021dc <HAL_UART_Receive_IT+0x58>
 8002206:	2d00      	cmp	r5, #0
 8002208:	d1eb      	bne.n	80021e2 <HAL_UART_Receive_IT+0x5e>
 800220a:	691a      	ldr	r2, [r3, #16]
 800220c:	2a00      	cmp	r2, #0
 800220e:	d0f8      	beq.n	8002202 <HAL_UART_Receive_IT+0x7e>
 8002210:	217f      	movs	r1, #127	; 0x7f
 8002212:	e7e3      	b.n	80021dc <HAL_UART_Receive_IT+0x58>
 8002214:	000001ff 	.word	0x000001ff

08002218 <HAL_UART_Transmit_DMA>:
{
 8002218:	0013      	movs	r3, r2
  if(huart->gState == HAL_UART_STATE_READY)
 800221a:	0002      	movs	r2, r0
{
 800221c:	b570      	push	{r4, r5, r6, lr}
  if(huart->gState == HAL_UART_STATE_READY)
 800221e:	3269      	adds	r2, #105	; 0x69
 8002220:	7814      	ldrb	r4, [r2, #0]
{
 8002222:	0005      	movs	r5, r0
    return HAL_BUSY;
 8002224:	2002      	movs	r0, #2
  if(huart->gState == HAL_UART_STATE_READY)
 8002226:	2c20      	cmp	r4, #32
 8002228:	d134      	bne.n	8002294 <HAL_UART_Transmit_DMA+0x7c>
      return HAL_ERROR;
 800222a:	3801      	subs	r0, #1
    if((pData == NULL ) || (Size == 0U))
 800222c:	2900      	cmp	r1, #0
 800222e:	d031      	beq.n	8002294 <HAL_UART_Transmit_DMA+0x7c>
 8002230:	2b00      	cmp	r3, #0
 8002232:	d02f      	beq.n	8002294 <HAL_UART_Transmit_DMA+0x7c>
    if ((huart->Init.WordLength == UART_WORDLENGTH_9B) && (huart->Init.Parity == UART_PARITY_NONE))
 8002234:	2480      	movs	r4, #128	; 0x80
 8002236:	68ae      	ldr	r6, [r5, #8]
 8002238:	0164      	lsls	r4, r4, #5
 800223a:	42a6      	cmp	r6, r4
 800223c:	d104      	bne.n	8002248 <HAL_UART_Transmit_DMA+0x30>
 800223e:	692c      	ldr	r4, [r5, #16]
 8002240:	2c00      	cmp	r4, #0
 8002242:	d101      	bne.n	8002248 <HAL_UART_Transmit_DMA+0x30>
      if((((uint32_t)pData)&1U) != 0U)
 8002244:	4201      	tst	r1, r0
 8002246:	d125      	bne.n	8002294 <HAL_UART_Transmit_DMA+0x7c>
    __HAL_LOCK(huart);
 8002248:	002e      	movs	r6, r5
 800224a:	3668      	adds	r6, #104	; 0x68
 800224c:	7834      	ldrb	r4, [r6, #0]
    return HAL_BUSY;
 800224e:	2002      	movs	r0, #2
    __HAL_LOCK(huart);
 8002250:	2c01      	cmp	r4, #1
 8002252:	d01f      	beq.n	8002294 <HAL_UART_Transmit_DMA+0x7c>
 8002254:	3801      	subs	r0, #1
 8002256:	7030      	strb	r0, [r6, #0]
    huart->TxXferSize = Size;
 8002258:	0028      	movs	r0, r5
 800225a:	3050      	adds	r0, #80	; 0x50
    huart->pTxBuffPtr = pData;
 800225c:	64e9      	str	r1, [r5, #76]	; 0x4c
    huart->ErrorCode = HAL_UART_ERROR_NONE;
 800225e:	2400      	movs	r4, #0
    huart->TxXferSize = Size;
 8002260:	8003      	strh	r3, [r0, #0]
    huart->TxXferCount = Size;
 8002262:	8043      	strh	r3, [r0, #2]
    huart->gState = HAL_UART_STATE_BUSY_TX;
 8002264:	2021      	movs	r0, #33	; 0x21
    huart->ErrorCode = HAL_UART_ERROR_NONE;
 8002266:	66ec      	str	r4, [r5, #108]	; 0x6c
    huart->gState = HAL_UART_STATE_BUSY_TX;
 8002268:	7010      	strb	r0, [r2, #0]
    huart->hdmatx->XferCpltCallback = UART_DMATransmitCplt;
 800226a:	6e28      	ldr	r0, [r5, #96]	; 0x60
 800226c:	4a0a      	ldr	r2, [pc, #40]	; (8002298 <HAL_UART_Transmit_DMA+0x80>)
    huart->hdmatx->XferAbortCallback = NULL;
 800226e:	6344      	str	r4, [r0, #52]	; 0x34
    huart->hdmatx->XferCpltCallback = UART_DMATransmitCplt;
 8002270:	6282      	str	r2, [r0, #40]	; 0x28
    huart->hdmatx->XferHalfCpltCallback = UART_DMATxHalfCplt;
 8002272:	4a0a      	ldr	r2, [pc, #40]	; (800229c <HAL_UART_Transmit_DMA+0x84>)
 8002274:	62c2      	str	r2, [r0, #44]	; 0x2c
    huart->hdmatx->XferErrorCallback = UART_DMAError;
 8002276:	4a0a      	ldr	r2, [pc, #40]	; (80022a0 <HAL_UART_Transmit_DMA+0x88>)
 8002278:	6302      	str	r2, [r0, #48]	; 0x30
    HAL_DMA_Start_IT(huart->hdmatx, (uint32_t)huart->pTxBuffPtr, (uint32_t)&huart->Instance->TDR, Size);
 800227a:	682a      	ldr	r2, [r5, #0]
 800227c:	3228      	adds	r2, #40	; 0x28
 800227e:	f7fe ffa5 	bl	80011cc <HAL_DMA_Start_IT>
    __HAL_UART_CLEAR_FLAG(huart, UART_CLEAR_TCF);
 8002282:	2240      	movs	r2, #64	; 0x40
    return HAL_OK;
 8002284:	0020      	movs	r0, r4
    __HAL_UART_CLEAR_FLAG(huart, UART_CLEAR_TCF);
 8002286:	682b      	ldr	r3, [r5, #0]
 8002288:	621a      	str	r2, [r3, #32]
    SET_BIT(huart->Instance->CR3, USART_CR3_DMAT);
 800228a:	6899      	ldr	r1, [r3, #8]
 800228c:	1892      	adds	r2, r2, r2
 800228e:	430a      	orrs	r2, r1
    __HAL_UNLOCK(huart);
 8002290:	7034      	strb	r4, [r6, #0]
    SET_BIT(huart->Instance->CR3, USART_CR3_DMAT);
 8002292:	609a      	str	r2, [r3, #8]
}
 8002294:	bd70      	pop	{r4, r5, r6, pc}
 8002296:	46c0      	nop			; (mov r8, r8)
 8002298:	080022a5 	.word	0x080022a5
 800229c:	080022d7 	.word	0x080022d7
 80022a0:	080022e3 	.word	0x080022e3

080022a4 <UART_DMATransmitCplt>:
static void UART_DMATransmitCplt(DMA_HandleTypeDef *hdma)
{
  UART_HandleTypeDef* huart = (UART_HandleTypeDef*)(hdma->Parent);
  
  /* DMA Normal mode */
  if ( HAL_IS_BIT_CLR(hdma->Instance->CCR, DMA_CCR_CIRC) )
 80022a4:	2120      	movs	r1, #32
 80022a6:	6803      	ldr	r3, [r0, #0]
{
 80022a8:	b510      	push	{r4, lr}
  if ( HAL_IS_BIT_CLR(hdma->Instance->CCR, DMA_CCR_CIRC) )
 80022aa:	681b      	ldr	r3, [r3, #0]
  UART_HandleTypeDef* huart = (UART_HandleTypeDef*)(hdma->Parent);
 80022ac:	6a42      	ldr	r2, [r0, #36]	; 0x24
  if ( HAL_IS_BIT_CLR(hdma->Instance->CCR, DMA_CCR_CIRC) )
 80022ae:	400b      	ands	r3, r1
 80022b0:	d10c      	bne.n	80022cc <UART_DMATransmitCplt+0x28>
  {
    huart->TxXferCount = 0;
 80022b2:	0011      	movs	r1, r2
 80022b4:	3152      	adds	r1, #82	; 0x52
 80022b6:	800b      	strh	r3, [r1, #0]

    /* Disable the DMA transfer for transmit request by resetting the DMAT bit
       in the UART CR3 register */
    CLEAR_BIT(huart->Instance->CR3, USART_CR3_DMAT);
 80022b8:	2180      	movs	r1, #128	; 0x80
 80022ba:	6813      	ldr	r3, [r2, #0]
 80022bc:	689a      	ldr	r2, [r3, #8]
 80022be:	438a      	bics	r2, r1
 80022c0:	609a      	str	r2, [r3, #8]

    /* Enable the UART Transmit Complete Interrupt */
    SET_BIT(huart->Instance->CR1, USART_CR1_TCIE);
 80022c2:	2240      	movs	r2, #64	; 0x40
 80022c4:	6819      	ldr	r1, [r3, #0]
 80022c6:	430a      	orrs	r2, r1
 80022c8:	601a      	str	r2, [r3, #0]
  else
  {
    HAL_UART_TxCpltCallback(huart);
  }

}
 80022ca:	bd10      	pop	{r4, pc}
    HAL_UART_TxCpltCallback(huart);
 80022cc:	0010      	movs	r0, r2
 80022ce:	f000 faf9 	bl	80028c4 <HAL_UART_TxCpltCallback>
}
 80022d2:	e7fa      	b.n	80022ca <UART_DMATransmitCplt+0x26>

080022d4 <HAL_UART_TxHalfCpltCallback>:
 80022d4:	4770      	bx	lr

080022d6 <UART_DMATxHalfCplt>:
  * @brief DMA UART transmit process half complete callback.
  * @param hdma DMA handle.
  * @retval None
  */
static void UART_DMATxHalfCplt(DMA_HandleTypeDef *hdma)
{
 80022d6:	b510      	push	{r4, lr}
  UART_HandleTypeDef* huart = (UART_HandleTypeDef*)(hdma->Parent);

  HAL_UART_TxHalfCpltCallback(huart);
 80022d8:	6a40      	ldr	r0, [r0, #36]	; 0x24
 80022da:	f7ff fffb 	bl	80022d4 <HAL_UART_TxHalfCpltCallback>
}
 80022de:	bd10      	pop	{r4, pc}

080022e0 <HAL_UART_ErrorCallback>:
 80022e0:	4770      	bx	lr

080022e2 <UART_DMAError>:
  * @brief DMA UART communication error callback.
  * @param hdma DMA handle.
  * @retval None
  */
static void UART_DMAError(DMA_HandleTypeDef *hdma)
{
 80022e2:	b510      	push	{r4, lr}
  UART_HandleTypeDef* huart = (UART_HandleTypeDef*)(hdma->Parent);
 80022e4:	6a44      	ldr	r4, [r0, #36]	; 0x24

  /* Stop UART DMA Tx request if ongoing */
  if (  (huart->gState == HAL_UART_STATE_BUSY_TX)
 80022e6:	0021      	movs	r1, r4
 80022e8:	3169      	adds	r1, #105	; 0x69
 80022ea:	780b      	ldrb	r3, [r1, #0]
 80022ec:	2b21      	cmp	r3, #33	; 0x21
 80022ee:	d10d      	bne.n	800230c <UART_DMAError+0x2a>
      &&(HAL_IS_BIT_SET(huart->Instance->CR3, USART_CR3_DMAT)) )
 80022f0:	6823      	ldr	r3, [r4, #0]
 80022f2:	689a      	ldr	r2, [r3, #8]
 80022f4:	0612      	lsls	r2, r2, #24
 80022f6:	d509      	bpl.n	800230c <UART_DMAError+0x2a>
  {
    huart->TxXferCount = 0U;
 80022f8:	0022      	movs	r2, r4
 80022fa:	2000      	movs	r0, #0
 80022fc:	3252      	adds	r2, #82	; 0x52
 80022fe:	8010      	strh	r0, [r2, #0]
  CLEAR_BIT(huart->Instance->CR1, (USART_CR1_TXEIE | USART_CR1_TCIE));
 8002300:	681a      	ldr	r2, [r3, #0]
 8002302:	30c0      	adds	r0, #192	; 0xc0
 8002304:	4382      	bics	r2, r0
 8002306:	601a      	str	r2, [r3, #0]
  huart->gState = HAL_UART_STATE_READY;
 8002308:	2320      	movs	r3, #32
 800230a:	700b      	strb	r3, [r1, #0]
    UART_EndTxTransfer(huart);
  }

  /* Stop UART DMA Rx request if ongoing */
  if (  (huart->RxState == HAL_UART_STATE_BUSY_RX)
 800230c:	0023      	movs	r3, r4
 800230e:	336a      	adds	r3, #106	; 0x6a
 8002310:	781b      	ldrb	r3, [r3, #0]
 8002312:	2b22      	cmp	r3, #34	; 0x22
 8002314:	d10a      	bne.n	800232c <UART_DMAError+0x4a>
      &&(HAL_IS_BIT_SET(huart->Instance->CR3, USART_CR3_DMAR)) )
 8002316:	6823      	ldr	r3, [r4, #0]
 8002318:	689b      	ldr	r3, [r3, #8]
 800231a:	065b      	lsls	r3, r3, #25
 800231c:	d506      	bpl.n	800232c <UART_DMAError+0x4a>
  {
    huart->RxXferCount = 0U;
 800231e:	0023      	movs	r3, r4
 8002320:	2200      	movs	r2, #0
 8002322:	335a      	adds	r3, #90	; 0x5a
 8002324:	801a      	strh	r2, [r3, #0]
    UART_EndRxTransfer(huart);
 8002326:	0020      	movs	r0, r4
 8002328:	f7ff feee 	bl	8002108 <UART_EndRxTransfer>
  }

  huart->ErrorCode |= HAL_UART_ERROR_DMA;
 800232c:	2310      	movs	r3, #16
 800232e:	6ee2      	ldr	r2, [r4, #108]	; 0x6c
  HAL_UART_ErrorCallback(huart);
 8002330:	0020      	movs	r0, r4
  huart->ErrorCode |= HAL_UART_ERROR_DMA;
 8002332:	4313      	orrs	r3, r2
 8002334:	66e3      	str	r3, [r4, #108]	; 0x6c
  HAL_UART_ErrorCallback(huart);
 8002336:	f7ff ffd3 	bl	80022e0 <HAL_UART_ErrorCallback>
}
 800233a:	bd10      	pop	{r4, pc}

0800233c <UART_DMAAbortOnError>:
  * @param  hdma DMA handle.
  * @retval None
  */
static void UART_DMAAbortOnError(DMA_HandleTypeDef *hdma)
{
  UART_HandleTypeDef* huart = (UART_HandleTypeDef*)(hdma->Parent);
 800233c:	6a40      	ldr	r0, [r0, #36]	; 0x24
  huart->RxXferCount = 0U;
 800233e:	2300      	movs	r3, #0
 8002340:	0002      	movs	r2, r0
{
 8002342:	b510      	push	{r4, lr}
  huart->RxXferCount = 0U;
 8002344:	325a      	adds	r2, #90	; 0x5a
 8002346:	8013      	strh	r3, [r2, #0]
  huart->TxXferCount = 0U;
 8002348:	3a08      	subs	r2, #8
 800234a:	8013      	strh	r3, [r2, #0]

  HAL_UART_ErrorCallback(huart);
 800234c:	f7ff ffc8 	bl	80022e0 <HAL_UART_ErrorCallback>
}
 8002350:	bd10      	pop	{r4, pc}
	...

08002354 <UART_SetConfig>:
{
 8002354:	b570      	push	{r4, r5, r6, lr}
 8002356:	0004      	movs	r4, r0
  MODIFY_REG(huart->Instance->CR1, UART_CR1_FIELDS, tmpreg);
 8002358:	6805      	ldr	r5, [r0, #0]
  tmpreg = (uint32_t)huart->Init.WordLength | huart->Init.Parity | huart->Init.Mode | huart->Init.OverSampling ;
 800235a:	69c2      	ldr	r2, [r0, #28]
 800235c:	6883      	ldr	r3, [r0, #8]
 800235e:	6900      	ldr	r0, [r0, #16]
  MODIFY_REG(huart->Instance->CR1, UART_CR1_FIELDS, tmpreg);
 8002360:	6829      	ldr	r1, [r5, #0]
  tmpreg = (uint32_t)huart->Init.WordLength | huart->Init.Parity | huart->Init.Mode | huart->Init.OverSampling ;
 8002362:	4303      	orrs	r3, r0
 8002364:	6960      	ldr	r0, [r4, #20]
 8002366:	4303      	orrs	r3, r0
  MODIFY_REG(huart->Instance->CR1, UART_CR1_FIELDS, tmpreg);
 8002368:	4835      	ldr	r0, [pc, #212]	; (8002440 <UART_SetConfig+0xec>)
  tmpreg = (uint32_t)huart->Init.WordLength | huart->Init.Parity | huart->Init.Mode | huart->Init.OverSampling ;
 800236a:	4313      	orrs	r3, r2
  MODIFY_REG(huart->Instance->CR1, UART_CR1_FIELDS, tmpreg);
 800236c:	4001      	ands	r1, r0
 800236e:	430b      	orrs	r3, r1
 8002370:	602b      	str	r3, [r5, #0]
  MODIFY_REG(huart->Instance->CR2, USART_CR2_STOP, huart->Init.StopBits);
 8002372:	686b      	ldr	r3, [r5, #4]
 8002374:	4933      	ldr	r1, [pc, #204]	; (8002444 <UART_SetConfig+0xf0>)
  tmpreg = (uint32_t)huart->Init.HwFlowCtl | huart->Init.OneBitSampling ;
 8002376:	6a20      	ldr	r0, [r4, #32]
  MODIFY_REG(huart->Instance->CR2, USART_CR2_STOP, huart->Init.StopBits);
 8002378:	400b      	ands	r3, r1
 800237a:	68e1      	ldr	r1, [r4, #12]
 800237c:	430b      	orrs	r3, r1
 800237e:	606b      	str	r3, [r5, #4]
  tmpreg = (uint32_t)huart->Init.HwFlowCtl | huart->Init.OneBitSampling ;
 8002380:	69a3      	ldr	r3, [r4, #24]
  MODIFY_REG(huart->Instance->CR3, (USART_CR3_RTSE | USART_CR3_CTSE | USART_CR3_ONEBIT), tmpreg);
 8002382:	68a9      	ldr	r1, [r5, #8]
  tmpreg = (uint32_t)huart->Init.HwFlowCtl | huart->Init.OneBitSampling ;
 8002384:	4303      	orrs	r3, r0
  MODIFY_REG(huart->Instance->CR3, (USART_CR3_RTSE | USART_CR3_CTSE | USART_CR3_ONEBIT), tmpreg);
 8002386:	4830      	ldr	r0, [pc, #192]	; (8002448 <UART_SetConfig+0xf4>)
 8002388:	4001      	ands	r1, r0
 800238a:	430b      	orrs	r3, r1
  UART_GETCLOCKSOURCE(huart, clocksource);
 800238c:	2103      	movs	r1, #3
  MODIFY_REG(huart->Instance->CR3, (USART_CR3_RTSE | USART_CR3_CTSE | USART_CR3_ONEBIT), tmpreg);
 800238e:	60ab      	str	r3, [r5, #8]
  UART_GETCLOCKSOURCE(huart, clocksource);
 8002390:	4b2e      	ldr	r3, [pc, #184]	; (800244c <UART_SetConfig+0xf8>)
 8002392:	6b1b      	ldr	r3, [r3, #48]	; 0x30
 8002394:	400b      	ands	r3, r1
 8002396:	492e      	ldr	r1, [pc, #184]	; (8002450 <UART_SetConfig+0xfc>)
 8002398:	5cc8      	ldrb	r0, [r1, r3]
  if (huart->Init.OverSampling == UART_OVERSAMPLING_8)
 800239a:	2380      	movs	r3, #128	; 0x80
 800239c:	021b      	lsls	r3, r3, #8
 800239e:	429a      	cmp	r2, r3
 80023a0:	d12c      	bne.n	80023fc <UART_SetConfig+0xa8>
    switch (clocksource)
 80023a2:	2808      	cmp	r0, #8
 80023a4:	d827      	bhi.n	80023f6 <UART_SetConfig+0xa2>
 80023a6:	f7fd feb7 	bl	8000118 <__gnu_thumb1_case_uqi>
 80023aa:	2605      	.short	0x2605
 80023ac:	261e260b 	.word	0x261e260b
 80023b0:	2626      	.short	0x2626
 80023b2:	21          	.byte	0x21
 80023b3:	00          	.byte	0x00
        usartdiv = (uint16_t)(UART_DIV_SAMPLING8(HAL_RCC_GetPCLK1Freq(), huart->Init.BaudRate));
 80023b4:	f7ff fb2a 	bl	8001a0c <HAL_RCC_GetPCLK1Freq>
        usartdiv = (uint16_t)(UART_DIV_SAMPLING8(HAL_RCC_GetSysClockFreq(), huart->Init.BaudRate));
 80023b8:	6863      	ldr	r3, [r4, #4]
 80023ba:	0040      	lsls	r0, r0, #1
 80023bc:	085b      	lsrs	r3, r3, #1
 80023be:	e002      	b.n	80023c6 <UART_SetConfig+0x72>
        usartdiv = (uint16_t)(UART_DIV_SAMPLING8(HSI_VALUE, huart->Init.BaudRate));
 80023c0:	6863      	ldr	r3, [r4, #4]
 80023c2:	0858      	lsrs	r0, r3, #1
 80023c4:	4b23      	ldr	r3, [pc, #140]	; (8002454 <UART_SetConfig+0x100>)
        usartdiv = (uint16_t)(UART_DIV_SAMPLING8(LSE_VALUE, huart->Init.BaudRate));
 80023c6:	18c0      	adds	r0, r0, r3
 80023c8:	6861      	ldr	r1, [r4, #4]
 80023ca:	f7fd feaf 	bl	800012c <__udivsi3>
 80023ce:	b283      	uxth	r3, r0
  HAL_StatusTypeDef ret               = HAL_OK;
 80023d0:	2000      	movs	r0, #0
    brrtemp = usartdiv & 0xFFF0U;
 80023d2:	220f      	movs	r2, #15
 80023d4:	0019      	movs	r1, r3
 80023d6:	4391      	bics	r1, r2
 80023d8:	000a      	movs	r2, r1
    brrtemp |= (uint16_t)((usartdiv & (uint16_t)0x000FU) >> 1U);
 80023da:	071b      	lsls	r3, r3, #28
    huart->Instance->BRR = brrtemp;
 80023dc:	6821      	ldr	r1, [r4, #0]
    brrtemp |= (uint16_t)((usartdiv & (uint16_t)0x000FU) >> 1U);
 80023de:	0f5b      	lsrs	r3, r3, #29
    huart->Instance->BRR = brrtemp;
 80023e0:	4313      	orrs	r3, r2
 80023e2:	60cb      	str	r3, [r1, #12]
}
 80023e4:	bd70      	pop	{r4, r5, r6, pc}
        usartdiv = (uint16_t)(UART_DIV_SAMPLING8(HAL_RCC_GetSysClockFreq(), huart->Init.BaudRate));
 80023e6:	f7ff fa43 	bl	8001870 <HAL_RCC_GetSysClockFreq>
 80023ea:	e7e5      	b.n	80023b8 <UART_SetConfig+0x64>
        usartdiv = (uint16_t)(UART_DIV_SAMPLING8(LSE_VALUE, huart->Init.BaudRate));
 80023ec:	6863      	ldr	r3, [r4, #4]
 80023ee:	0858      	lsrs	r0, r3, #1
 80023f0:	2380      	movs	r3, #128	; 0x80
 80023f2:	025b      	lsls	r3, r3, #9
 80023f4:	e7e7      	b.n	80023c6 <UART_SetConfig+0x72>
        ret = HAL_ERROR;
 80023f6:	2001      	movs	r0, #1
  uint16_t usartdiv                   = 0x0000U;
 80023f8:	2300      	movs	r3, #0
 80023fa:	e7ea      	b.n	80023d2 <UART_SetConfig+0x7e>
    switch (clocksource)
 80023fc:	2808      	cmp	r0, #8
 80023fe:	d81d      	bhi.n	800243c <UART_SetConfig+0xe8>
 8002400:	f7fd fe8a 	bl	8000118 <__gnu_thumb1_case_uqi>
 8002404:	1c0a1c05 	.word	0x1c0a1c05
 8002408:	1c1c1c14 	.word	0x1c1c1c14
 800240c:	17          	.byte	0x17
 800240d:	00          	.byte	0x00
        huart->Instance->BRR = (uint16_t)(UART_DIV_SAMPLING16(HAL_RCC_GetPCLK1Freq(), huart->Init.BaudRate));
 800240e:	f7ff fafd 	bl	8001a0c <HAL_RCC_GetPCLK1Freq>
        huart->Instance->BRR = (uint16_t)(UART_DIV_SAMPLING16(HAL_RCC_GetSysClockFreq(), huart->Init.BaudRate));
 8002412:	6861      	ldr	r1, [r4, #4]
 8002414:	084b      	lsrs	r3, r1, #1
 8002416:	e002      	b.n	800241e <UART_SetConfig+0xca>
        huart->Instance->BRR = (uint16_t)(UART_DIV_SAMPLING16(HSI_VALUE, huart->Init.BaudRate));
 8002418:	6861      	ldr	r1, [r4, #4]
 800241a:	4b0f      	ldr	r3, [pc, #60]	; (8002458 <UART_SetConfig+0x104>)
 800241c:	0848      	lsrs	r0, r1, #1
        huart->Instance->BRR = (uint16_t)(UART_DIV_SAMPLING16(LSE_VALUE, huart->Init.BaudRate));
 800241e:	18c0      	adds	r0, r0, r3
 8002420:	f7fd fe84 	bl	800012c <__udivsi3>
 8002424:	b280      	uxth	r0, r0
 8002426:	60e8      	str	r0, [r5, #12]
  HAL_StatusTypeDef ret               = HAL_OK;
 8002428:	2000      	movs	r0, #0
        break;
 800242a:	e7db      	b.n	80023e4 <UART_SetConfig+0x90>
        huart->Instance->BRR = (uint16_t)(UART_DIV_SAMPLING16(HAL_RCC_GetSysClockFreq(), huart->Init.BaudRate));
 800242c:	f7ff fa20 	bl	8001870 <HAL_RCC_GetSysClockFreq>
 8002430:	e7ef      	b.n	8002412 <UART_SetConfig+0xbe>
        huart->Instance->BRR = (uint16_t)(UART_DIV_SAMPLING16(LSE_VALUE, huart->Init.BaudRate));
 8002432:	2380      	movs	r3, #128	; 0x80
 8002434:	6861      	ldr	r1, [r4, #4]
 8002436:	021b      	lsls	r3, r3, #8
 8002438:	0848      	lsrs	r0, r1, #1
 800243a:	e7f0      	b.n	800241e <UART_SetConfig+0xca>
        ret = HAL_ERROR;
 800243c:	2001      	movs	r0, #1
 800243e:	e7d1      	b.n	80023e4 <UART_SetConfig+0x90>
 8002440:	ffff69f3 	.word	0xffff69f3
 8002444:	ffffcfff 	.word	0xffffcfff
 8002448:	fffff4ff 	.word	0xfffff4ff
 800244c:	40021000 	.word	0x40021000
 8002450:	0800402c 	.word	0x0800402c
 8002454:	00f42400 	.word	0x00f42400
 8002458:	007a1200 	.word	0x007a1200

0800245c <UART_AdvFeatureConfig>:
  if(HAL_IS_BIT_SET(huart->AdvancedInit.AdvFeatureInit, UART_ADVFEATURE_TXINVERT_INIT))
 800245c:	6a43      	ldr	r3, [r0, #36]	; 0x24
{
 800245e:	b530      	push	{r4, r5, lr}
  if(HAL_IS_BIT_SET(huart->AdvancedInit.AdvFeatureInit, UART_ADVFEATURE_TXINVERT_INIT))
 8002460:	07da      	lsls	r2, r3, #31
 8002462:	d506      	bpl.n	8002472 <UART_AdvFeatureConfig+0x16>
    MODIFY_REG(huart->Instance->CR2, USART_CR2_TXINV, huart->AdvancedInit.TxPinLevelInvert);
 8002464:	6801      	ldr	r1, [r0, #0]
 8002466:	4c28      	ldr	r4, [pc, #160]	; (8002508 <UART_AdvFeatureConfig+0xac>)
 8002468:	684a      	ldr	r2, [r1, #4]
 800246a:	4022      	ands	r2, r4
 800246c:	6a84      	ldr	r4, [r0, #40]	; 0x28
 800246e:	4322      	orrs	r2, r4
 8002470:	604a      	str	r2, [r1, #4]
  if(HAL_IS_BIT_SET(huart->AdvancedInit.AdvFeatureInit, UART_ADVFEATURE_RXINVERT_INIT))
 8002472:	079a      	lsls	r2, r3, #30
 8002474:	d506      	bpl.n	8002484 <UART_AdvFeatureConfig+0x28>
    MODIFY_REG(huart->Instance->CR2, USART_CR2_RXINV, huart->AdvancedInit.RxPinLevelInvert);
 8002476:	6801      	ldr	r1, [r0, #0]
 8002478:	4c24      	ldr	r4, [pc, #144]	; (800250c <UART_AdvFeatureConfig+0xb0>)
 800247a:	684a      	ldr	r2, [r1, #4]
 800247c:	4022      	ands	r2, r4
 800247e:	6ac4      	ldr	r4, [r0, #44]	; 0x2c
 8002480:	4322      	orrs	r2, r4
 8002482:	604a      	str	r2, [r1, #4]
  if(HAL_IS_BIT_SET(huart->AdvancedInit.AdvFeatureInit, UART_ADVFEATURE_DATAINVERT_INIT))
 8002484:	075a      	lsls	r2, r3, #29
 8002486:	d506      	bpl.n	8002496 <UART_AdvFeatureConfig+0x3a>
    MODIFY_REG(huart->Instance->CR2, USART_CR2_DATAINV, huart->AdvancedInit.DataInvert);
 8002488:	6801      	ldr	r1, [r0, #0]
 800248a:	4c21      	ldr	r4, [pc, #132]	; (8002510 <UART_AdvFeatureConfig+0xb4>)
 800248c:	684a      	ldr	r2, [r1, #4]
 800248e:	4022      	ands	r2, r4
 8002490:	6b04      	ldr	r4, [r0, #48]	; 0x30
 8002492:	4322      	orrs	r2, r4
 8002494:	604a      	str	r2, [r1, #4]
  if(HAL_IS_BIT_SET(huart->AdvancedInit.AdvFeatureInit, UART_ADVFEATURE_SWAP_INIT))
 8002496:	071a      	lsls	r2, r3, #28
 8002498:	d506      	bpl.n	80024a8 <UART_AdvFeatureConfig+0x4c>
    MODIFY_REG(huart->Instance->CR2, USART_CR2_SWAP, huart->AdvancedInit.Swap);
 800249a:	6801      	ldr	r1, [r0, #0]
 800249c:	4c1d      	ldr	r4, [pc, #116]	; (8002514 <UART_AdvFeatureConfig+0xb8>)
 800249e:	684a      	ldr	r2, [r1, #4]
 80024a0:	4022      	ands	r2, r4
 80024a2:	6b44      	ldr	r4, [r0, #52]	; 0x34
 80024a4:	4322      	orrs	r2, r4
 80024a6:	604a      	str	r2, [r1, #4]
  if(HAL_IS_BIT_SET(huart->AdvancedInit.AdvFeatureInit, UART_ADVFEATURE_RXOVERRUNDISABLE_INIT))
 80024a8:	06da      	lsls	r2, r3, #27
 80024aa:	d506      	bpl.n	80024ba <UART_AdvFeatureConfig+0x5e>
    MODIFY_REG(huart->Instance->CR3, USART_CR3_OVRDIS, huart->AdvancedInit.OverrunDisable);
 80024ac:	6801      	ldr	r1, [r0, #0]
 80024ae:	4c1a      	ldr	r4, [pc, #104]	; (8002518 <UART_AdvFeatureConfig+0xbc>)
 80024b0:	688a      	ldr	r2, [r1, #8]
 80024b2:	4022      	ands	r2, r4
 80024b4:	6b84      	ldr	r4, [r0, #56]	; 0x38
 80024b6:	4322      	orrs	r2, r4
 80024b8:	608a      	str	r2, [r1, #8]
  if(HAL_IS_BIT_SET(huart->AdvancedInit.AdvFeatureInit, UART_ADVFEATURE_DMADISABLEONERROR_INIT))
 80024ba:	069a      	lsls	r2, r3, #26
 80024bc:	d506      	bpl.n	80024cc <UART_AdvFeatureConfig+0x70>
    MODIFY_REG(huart->Instance->CR3, USART_CR3_DDRE, huart->AdvancedInit.DMADisableonRxError);
 80024be:	6801      	ldr	r1, [r0, #0]
 80024c0:	4c16      	ldr	r4, [pc, #88]	; (800251c <UART_AdvFeatureConfig+0xc0>)
 80024c2:	688a      	ldr	r2, [r1, #8]
 80024c4:	4022      	ands	r2, r4
 80024c6:	6bc4      	ldr	r4, [r0, #60]	; 0x3c
 80024c8:	4322      	orrs	r2, r4
 80024ca:	608a      	str	r2, [r1, #8]
  if(HAL_IS_BIT_SET(huart->AdvancedInit.AdvFeatureInit, UART_ADVFEATURE_AUTOBAUDRATE_INIT))
 80024cc:	065a      	lsls	r2, r3, #25
 80024ce:	d510      	bpl.n	80024f2 <UART_AdvFeatureConfig+0x96>
    MODIFY_REG(huart->Instance->CR2, USART_CR2_ABREN, huart->AdvancedInit.AutoBaudRateEnable);
 80024d0:	6801      	ldr	r1, [r0, #0]
 80024d2:	4d13      	ldr	r5, [pc, #76]	; (8002520 <UART_AdvFeatureConfig+0xc4>)
 80024d4:	684a      	ldr	r2, [r1, #4]
 80024d6:	6c04      	ldr	r4, [r0, #64]	; 0x40
 80024d8:	402a      	ands	r2, r5
 80024da:	4322      	orrs	r2, r4
 80024dc:	604a      	str	r2, [r1, #4]
    if(huart->AdvancedInit.AutoBaudRateEnable == UART_ADVFEATURE_AUTOBAUDRATE_ENABLE)
 80024de:	2280      	movs	r2, #128	; 0x80
 80024e0:	0352      	lsls	r2, r2, #13
 80024e2:	4294      	cmp	r4, r2
 80024e4:	d105      	bne.n	80024f2 <UART_AdvFeatureConfig+0x96>
      MODIFY_REG(huart->Instance->CR2, USART_CR2_ABRMODE, huart->AdvancedInit.AutoBaudRateMode);
 80024e6:	684a      	ldr	r2, [r1, #4]
 80024e8:	4c0e      	ldr	r4, [pc, #56]	; (8002524 <UART_AdvFeatureConfig+0xc8>)
 80024ea:	4022      	ands	r2, r4
 80024ec:	6c44      	ldr	r4, [r0, #68]	; 0x44
 80024ee:	4322      	orrs	r2, r4
 80024f0:	604a      	str	r2, [r1, #4]
  if(HAL_IS_BIT_SET(huart->AdvancedInit.AdvFeatureInit, UART_ADVFEATURE_MSBFIRST_INIT))
 80024f2:	061b      	lsls	r3, r3, #24
 80024f4:	d506      	bpl.n	8002504 <UART_AdvFeatureConfig+0xa8>
    MODIFY_REG(huart->Instance->CR2, USART_CR2_MSBFIRST, huart->AdvancedInit.MSBFirst);
 80024f6:	6802      	ldr	r2, [r0, #0]
 80024f8:	490b      	ldr	r1, [pc, #44]	; (8002528 <UART_AdvFeatureConfig+0xcc>)
 80024fa:	6853      	ldr	r3, [r2, #4]
 80024fc:	400b      	ands	r3, r1
 80024fe:	6c81      	ldr	r1, [r0, #72]	; 0x48
 8002500:	430b      	orrs	r3, r1
 8002502:	6053      	str	r3, [r2, #4]
}
 8002504:	bd30      	pop	{r4, r5, pc}
 8002506:	46c0      	nop			; (mov r8, r8)
 8002508:	fffdffff 	.word	0xfffdffff
 800250c:	fffeffff 	.word	0xfffeffff
 8002510:	fffbffff 	.word	0xfffbffff
 8002514:	ffff7fff 	.word	0xffff7fff
 8002518:	ffffefff 	.word	0xffffefff
 800251c:	ffffdfff 	.word	0xffffdfff
 8002520:	ffefffff 	.word	0xffefffff
 8002524:	ff9fffff 	.word	0xff9fffff
 8002528:	fff7ffff 	.word	0xfff7ffff

0800252c <HAL_UART_Init>:
{
 800252c:	b570      	push	{r4, r5, r6, lr}
 800252e:	1e04      	subs	r4, r0, #0
  if(huart == NULL)
 8002530:	d101      	bne.n	8002536 <HAL_UART_Init+0xa>
    return HAL_ERROR;
 8002532:	2001      	movs	r0, #1
}
 8002534:	bd70      	pop	{r4, r5, r6, pc}
  if(huart->gState == HAL_UART_STATE_RESET)
 8002536:	0005      	movs	r5, r0
 8002538:	3569      	adds	r5, #105	; 0x69
 800253a:	782b      	ldrb	r3, [r5, #0]
 800253c:	b2db      	uxtb	r3, r3
 800253e:	2b00      	cmp	r3, #0
 8002540:	d104      	bne.n	800254c <HAL_UART_Init+0x20>
    huart->Lock = HAL_UNLOCKED;
 8002542:	0002      	movs	r2, r0
 8002544:	3268      	adds	r2, #104	; 0x68
 8002546:	7013      	strb	r3, [r2, #0]
    HAL_UART_MspInit(huart);
 8002548:	f000 fce0 	bl	8002f0c <HAL_UART_MspInit>
  huart->gState = HAL_UART_STATE_BUSY;
 800254c:	2324      	movs	r3, #36	; 0x24
  __HAL_UART_DISABLE(huart);
 800254e:	2101      	movs	r1, #1
 8002550:	6822      	ldr	r2, [r4, #0]
  huart->gState = HAL_UART_STATE_BUSY;
 8002552:	702b      	strb	r3, [r5, #0]
  __HAL_UART_DISABLE(huart);
 8002554:	6813      	ldr	r3, [r2, #0]
  if (UART_SetConfig(huart) == HAL_ERROR)
 8002556:	0020      	movs	r0, r4
  __HAL_UART_DISABLE(huart);
 8002558:	438b      	bics	r3, r1
 800255a:	6013      	str	r3, [r2, #0]
  if (UART_SetConfig(huart) == HAL_ERROR)
 800255c:	f7ff fefa 	bl	8002354 <UART_SetConfig>
 8002560:	2801      	cmp	r0, #1
 8002562:	d0e6      	beq.n	8002532 <HAL_UART_Init+0x6>
  if (huart->AdvancedInit.AdvFeatureInit != UART_ADVFEATURE_NO_INIT)
 8002564:	6a63      	ldr	r3, [r4, #36]	; 0x24
 8002566:	2b00      	cmp	r3, #0
 8002568:	d002      	beq.n	8002570 <HAL_UART_Init+0x44>
    UART_AdvFeatureConfig(huart);
 800256a:	0020      	movs	r0, r4
 800256c:	f7ff ff76 	bl	800245c <UART_AdvFeatureConfig>
  CLEAR_BIT(huart->Instance->CR2, USART_CR2_CLKEN);
 8002570:	6823      	ldr	r3, [r4, #0]
 8002572:	490b      	ldr	r1, [pc, #44]	; (80025a0 <HAL_UART_Init+0x74>)
 8002574:	685a      	ldr	r2, [r3, #4]
  huart->ErrorCode = HAL_UART_ERROR_NONE;
 8002576:	2000      	movs	r0, #0
  CLEAR_BIT(huart->Instance->CR2, USART_CR2_CLKEN);
 8002578:	400a      	ands	r2, r1
  CLEAR_BIT(huart->Instance->CR3, USART_CR3_HDSEL);
 800257a:	2108      	movs	r1, #8
  CLEAR_BIT(huart->Instance->CR2, USART_CR2_CLKEN);
 800257c:	605a      	str	r2, [r3, #4]
  CLEAR_BIT(huart->Instance->CR3, USART_CR3_HDSEL);
 800257e:	689a      	ldr	r2, [r3, #8]
 8002580:	438a      	bics	r2, r1
 8002582:	609a      	str	r2, [r3, #8]
  __HAL_UART_ENABLE(huart);
 8002584:	2201      	movs	r2, #1
 8002586:	6819      	ldr	r1, [r3, #0]
 8002588:	430a      	orrs	r2, r1
 800258a:	601a      	str	r2, [r3, #0]
  huart->RxState = HAL_UART_STATE_READY;
 800258c:	0022      	movs	r2, r4
  huart->gState  = HAL_UART_STATE_READY;
 800258e:	2320      	movs	r3, #32
  huart->ErrorCode = HAL_UART_ERROR_NONE;
 8002590:	66e0      	str	r0, [r4, #108]	; 0x6c
  huart->RxState = HAL_UART_STATE_READY;
 8002592:	326a      	adds	r2, #106	; 0x6a
  __HAL_UNLOCK(huart);
 8002594:	3468      	adds	r4, #104	; 0x68
  huart->gState  = HAL_UART_STATE_READY;
 8002596:	702b      	strb	r3, [r5, #0]
  huart->RxState = HAL_UART_STATE_READY;
 8002598:	7013      	strb	r3, [r2, #0]
  __HAL_UNLOCK(huart);
 800259a:	7020      	strb	r0, [r4, #0]
  return (UART_CheckIdleState(huart));
 800259c:	e7ca      	b.n	8002534 <HAL_UART_Init+0x8>
 800259e:	46c0      	nop			; (mov r8, r8)
 80025a0:	fffff7ff 	.word	0xfffff7ff

080025a4 <UART_Transmit_IT>:
HAL_StatusTypeDef UART_Transmit_IT(UART_HandleTypeDef *huart)
{
  uint16_t* tmp;

  /* Check that a Tx process is ongoing */
  if (huart->gState == HAL_UART_STATE_BUSY_TX)
 80025a4:	0003      	movs	r3, r0
{
 80025a6:	b530      	push	{r4, r5, lr}
  if (huart->gState == HAL_UART_STATE_BUSY_TX)
 80025a8:	3369      	adds	r3, #105	; 0x69
 80025aa:	781b      	ldrb	r3, [r3, #0]
{
 80025ac:	0002      	movs	r2, r0
      return HAL_OK;
    }
  }
  else
  {
    return HAL_BUSY;
 80025ae:	2002      	movs	r0, #2
  if (huart->gState == HAL_UART_STATE_BUSY_TX)
 80025b0:	2b21      	cmp	r3, #33	; 0x21
 80025b2:	d10f      	bne.n	80025d4 <UART_Transmit_IT+0x30>
    if(huart->TxXferCount == 0U)
 80025b4:	0014      	movs	r4, r2
 80025b6:	3452      	adds	r4, #82	; 0x52
 80025b8:	8823      	ldrh	r3, [r4, #0]
 80025ba:	6811      	ldr	r1, [r2, #0]
 80025bc:	b29b      	uxth	r3, r3
 80025be:	2b00      	cmp	r3, #0
 80025c0:	d109      	bne.n	80025d6 <UART_Transmit_IT+0x32>
      CLEAR_BIT(huart->Instance->CR1, USART_CR1_TXEIE);
 80025c2:	680a      	ldr	r2, [r1, #0]
 80025c4:	307e      	adds	r0, #126	; 0x7e
 80025c6:	4382      	bics	r2, r0
 80025c8:	600a      	str	r2, [r1, #0]
      SET_BIT(huart->Instance->CR1, USART_CR1_TCIE);
 80025ca:	2240      	movs	r2, #64	; 0x40
 80025cc:	6808      	ldr	r0, [r1, #0]
 80025ce:	4302      	orrs	r2, r0
 80025d0:	600a      	str	r2, [r1, #0]
      return HAL_OK;
 80025d2:	2000      	movs	r0, #0
  }
}
 80025d4:	bd30      	pop	{r4, r5, pc}
      if ((huart->Init.WordLength == UART_WORDLENGTH_9B) && (huart->Init.Parity == UART_PARITY_NONE))
 80025d6:	2080      	movs	r0, #128	; 0x80
 80025d8:	6895      	ldr	r5, [r2, #8]
 80025da:	0140      	lsls	r0, r0, #5
 80025dc:	6cd3      	ldr	r3, [r2, #76]	; 0x4c
 80025de:	4285      	cmp	r5, r0
 80025e0:	d10d      	bne.n	80025fe <UART_Transmit_IT+0x5a>
 80025e2:	6910      	ldr	r0, [r2, #16]
 80025e4:	2800      	cmp	r0, #0
 80025e6:	d10a      	bne.n	80025fe <UART_Transmit_IT+0x5a>
        huart->Instance->TDR = (*tmp & (uint16_t)0x01FFU);
 80025e8:	8818      	ldrh	r0, [r3, #0]
        huart->pTxBuffPtr += 2U;
 80025ea:	3302      	adds	r3, #2
        huart->Instance->TDR = (*tmp & (uint16_t)0x01FFU);
 80025ec:	05c0      	lsls	r0, r0, #23
 80025ee:	0dc0      	lsrs	r0, r0, #23
 80025f0:	8508      	strh	r0, [r1, #40]	; 0x28
        huart->pTxBuffPtr += 2U;
 80025f2:	64d3      	str	r3, [r2, #76]	; 0x4c
      huart->TxXferCount--;
 80025f4:	8823      	ldrh	r3, [r4, #0]
 80025f6:	3b01      	subs	r3, #1
 80025f8:	b29b      	uxth	r3, r3
 80025fa:	8023      	strh	r3, [r4, #0]
 80025fc:	e7e9      	b.n	80025d2 <UART_Transmit_IT+0x2e>
        huart->Instance->TDR = (uint8_t)(*huart->pTxBuffPtr++ & (uint8_t)0xFFU);
 80025fe:	1c58      	adds	r0, r3, #1
 8002600:	64d0      	str	r0, [r2, #76]	; 0x4c
 8002602:	781b      	ldrb	r3, [r3, #0]
 8002604:	850b      	strh	r3, [r1, #40]	; 0x28
 8002606:	e7f5      	b.n	80025f4 <UART_Transmit_IT+0x50>

08002608 <UART_EndTransmit_IT>:
  * @retval HAL status
  */
HAL_StatusTypeDef UART_EndTransmit_IT(UART_HandleTypeDef *huart)
{
  /* Disable the UART Transmit Complete Interrupt */
  CLEAR_BIT(huart->Instance->CR1, USART_CR1_TCIE);
 8002608:	2140      	movs	r1, #64	; 0x40
 800260a:	6802      	ldr	r2, [r0, #0]
{
 800260c:	b510      	push	{r4, lr}
  CLEAR_BIT(huart->Instance->CR1, USART_CR1_TCIE);
 800260e:	6813      	ldr	r3, [r2, #0]
 8002610:	438b      	bics	r3, r1
 8002612:	6013      	str	r3, [r2, #0]

  /* Tx process is ended, restore huart->gState to Ready */
  huart->gState = HAL_UART_STATE_READY;
 8002614:	0003      	movs	r3, r0
 8002616:	2220      	movs	r2, #32
 8002618:	3369      	adds	r3, #105	; 0x69
 800261a:	701a      	strb	r2, [r3, #0]

  HAL_UART_TxCpltCallback(huart);
 800261c:	f000 f952 	bl	80028c4 <HAL_UART_TxCpltCallback>

  return HAL_OK;
}
 8002620:	2000      	movs	r0, #0
 8002622:	bd10      	pop	{r4, pc}

08002624 <UART_Receive_IT>:
  uint16_t* tmp;
  uint16_t  uhMask = huart->Mask;
  uint16_t  uhdata;

  /* Check that a Rx process is ongoing */
  if(huart->RxState == HAL_UART_STATE_BUSY_RX)
 8002624:	0002      	movs	r2, r0
{
 8002626:	b570      	push	{r4, r5, r6, lr}
  if(huart->RxState == HAL_UART_STATE_BUSY_RX)
 8002628:	326a      	adds	r2, #106	; 0x6a
 800262a:	7811      	ldrb	r1, [r2, #0]
 800262c:	6803      	ldr	r3, [r0, #0]
 800262e:	2922      	cmp	r1, #34	; 0x22
 8002630:	d12d      	bne.n	800268e <UART_Receive_IT+0x6a>
  uint16_t  uhMask = huart->Mask;
 8002632:	0001      	movs	r1, r0
  {
    uhdata = (uint16_t) READ_REG(huart->Instance->RDR);
    if ((huart->Init.WordLength == UART_WORDLENGTH_9B) && (huart->Init.Parity == UART_PARITY_NONE))
 8002634:	2480      	movs	r4, #128	; 0x80
  uint16_t  uhMask = huart->Mask;
 8002636:	315c      	adds	r1, #92	; 0x5c
 8002638:	880d      	ldrh	r5, [r1, #0]
    uhdata = (uint16_t) READ_REG(huart->Instance->RDR);
 800263a:	8c99      	ldrh	r1, [r3, #36]	; 0x24
    if ((huart->Init.WordLength == UART_WORDLENGTH_9B) && (huart->Init.Parity == UART_PARITY_NONE))
 800263c:	0164      	lsls	r4, r4, #5
 800263e:	4029      	ands	r1, r5
 8002640:	6885      	ldr	r5, [r0, #8]
 8002642:	6d43      	ldr	r3, [r0, #84]	; 0x54
 8002644:	42a5      	cmp	r5, r4
 8002646:	d11e      	bne.n	8002686 <UART_Receive_IT+0x62>
 8002648:	6904      	ldr	r4, [r0, #16]
 800264a:	2c00      	cmp	r4, #0
 800264c:	d11b      	bne.n	8002686 <UART_Receive_IT+0x62>
    {
      tmp = (uint16_t*) huart->pRxBuffPtr ;
      *tmp = (uint16_t)(uhdata & uhMask);
 800264e:	8019      	strh	r1, [r3, #0]
      huart->pRxBuffPtr +=2U;
 8002650:	3302      	adds	r3, #2
 8002652:	6543      	str	r3, [r0, #84]	; 0x54
    else
    {
      *huart->pRxBuffPtr++ = (uint8_t)(uhdata & (uint8_t)uhMask);
    }

    if(--huart->RxXferCount == 0U)
 8002654:	0001      	movs	r1, r0
      HAL_UART_RxCpltCallback(huart);

      return HAL_OK;
    }

    return HAL_OK;
 8002656:	2400      	movs	r4, #0
    if(--huart->RxXferCount == 0U)
 8002658:	315a      	adds	r1, #90	; 0x5a
 800265a:	880b      	ldrh	r3, [r1, #0]
 800265c:	3b01      	subs	r3, #1
 800265e:	b29b      	uxth	r3, r3
 8002660:	800b      	strh	r3, [r1, #0]
 8002662:	42a3      	cmp	r3, r4
 8002664:	d10d      	bne.n	8002682 <UART_Receive_IT+0x5e>
      CLEAR_BIT(huart->Instance->CR1, (USART_CR1_RXNEIE | USART_CR1_PEIE));
 8002666:	6803      	ldr	r3, [r0, #0]
 8002668:	4d0c      	ldr	r5, [pc, #48]	; (800269c <UART_Receive_IT+0x78>)
 800266a:	6819      	ldr	r1, [r3, #0]
 800266c:	4029      	ands	r1, r5
 800266e:	6019      	str	r1, [r3, #0]
      CLEAR_BIT(huart->Instance->CR3, USART_CR3_EIE);
 8002670:	6899      	ldr	r1, [r3, #8]
 8002672:	3523      	adds	r5, #35	; 0x23
 8002674:	35ff      	adds	r5, #255	; 0xff
 8002676:	43a9      	bics	r1, r5
 8002678:	6099      	str	r1, [r3, #8]
      huart->RxState = HAL_UART_STATE_READY;
 800267a:	2320      	movs	r3, #32
 800267c:	7013      	strb	r3, [r2, #0]
      HAL_UART_RxCpltCallback(huart);
 800267e:	f000 f8e5 	bl	800284c <HAL_UART_RxCpltCallback>
    /* Clear RXNE interrupt flag */
    __HAL_UART_SEND_REQ(huart, UART_RXDATA_FLUSH_REQUEST);

    return HAL_BUSY;
  }
}
 8002682:	0020      	movs	r0, r4
 8002684:	bd70      	pop	{r4, r5, r6, pc}
      *huart->pRxBuffPtr++ = (uint8_t)(uhdata & (uint8_t)uhMask);
 8002686:	1c5c      	adds	r4, r3, #1
 8002688:	6544      	str	r4, [r0, #84]	; 0x54
 800268a:	7019      	strb	r1, [r3, #0]
 800268c:	e7e2      	b.n	8002654 <UART_Receive_IT+0x30>
    __HAL_UART_SEND_REQ(huart, UART_RXDATA_FLUSH_REQUEST);
 800268e:	2208      	movs	r2, #8
 8002690:	6999      	ldr	r1, [r3, #24]
    return HAL_BUSY;
 8002692:	2402      	movs	r4, #2
    __HAL_UART_SEND_REQ(huart, UART_RXDATA_FLUSH_REQUEST);
 8002694:	430a      	orrs	r2, r1
 8002696:	619a      	str	r2, [r3, #24]
    return HAL_BUSY;
 8002698:	e7f3      	b.n	8002682 <UART_Receive_IT+0x5e>
 800269a:	46c0      	nop			; (mov r8, r8)
 800269c:	fffffedf 	.word	0xfffffedf

080026a0 <HAL_UART_IRQHandler>:
  errorflags = (isrflags & (uint32_t)(USART_ISR_PE | USART_ISR_FE | USART_ISR_ORE | USART_ISR_NE));
 80026a0:	220f      	movs	r2, #15
{
 80026a2:	b570      	push	{r4, r5, r6, lr}
 80026a4:	0004      	movs	r4, r0
  uint32_t isrflags   = READ_REG(huart->Instance->ISR);
 80026a6:	6800      	ldr	r0, [r0, #0]
 80026a8:	69c3      	ldr	r3, [r0, #28]
  uint32_t cr1its     = READ_REG(huart->Instance->CR1);
 80026aa:	6801      	ldr	r1, [r0, #0]
  errorflags = (isrflags & (uint32_t)(USART_ISR_PE | USART_ISR_FE | USART_ISR_ORE | USART_ISR_NE));
 80026ac:	401a      	ands	r2, r3
  if (errorflags == RESET)
 80026ae:	d108      	bne.n	80026c2 <HAL_UART_IRQHandler+0x22>
    if(((isrflags & USART_ISR_RXNE) != RESET) && ((cr1its & USART_CR1_RXNEIE) != RESET))
 80026b0:	2520      	movs	r5, #32
 80026b2:	422b      	tst	r3, r5
 80026b4:	d005      	beq.n	80026c2 <HAL_UART_IRQHandler+0x22>
 80026b6:	4229      	tst	r1, r5
 80026b8:	d003      	beq.n	80026c2 <HAL_UART_IRQHandler+0x22>
      UART_Receive_IT(huart);
 80026ba:	0020      	movs	r0, r4
 80026bc:	f7ff ffb2 	bl	8002624 <UART_Receive_IT>
}
 80026c0:	bd70      	pop	{r4, r5, r6, pc}
  cr3its = READ_REG(huart->Instance->CR3);
 80026c2:	6885      	ldr	r5, [r0, #8]
  if(   (errorflags != RESET)
 80026c4:	2a00      	cmp	r2, #0
 80026c6:	d060      	beq.n	800278a <HAL_UART_IRQHandler+0xea>
     && (   ((cr3its & USART_CR3_EIE) != RESET)
 80026c8:	2201      	movs	r2, #1
 80026ca:	4015      	ands	r5, r2
 80026cc:	d103      	bne.n	80026d6 <HAL_UART_IRQHandler+0x36>
         || ((cr1its & (USART_CR1_RXNEIE | USART_CR1_PEIE)) != RESET)) )
 80026ce:	2690      	movs	r6, #144	; 0x90
 80026d0:	0076      	lsls	r6, r6, #1
 80026d2:	4231      	tst	r1, r6
 80026d4:	d059      	beq.n	800278a <HAL_UART_IRQHandler+0xea>
    if(((isrflags & USART_ISR_PE) != RESET) && ((cr1its & USART_CR1_PEIE) != RESET))
 80026d6:	4213      	tst	r3, r2
 80026d8:	d005      	beq.n	80026e6 <HAL_UART_IRQHandler+0x46>
 80026da:	05ce      	lsls	r6, r1, #23
 80026dc:	d503      	bpl.n	80026e6 <HAL_UART_IRQHandler+0x46>
      __HAL_UART_CLEAR_IT(huart, UART_CLEAR_PEF);
 80026de:	6202      	str	r2, [r0, #32]
      huart->ErrorCode |= HAL_UART_ERROR_PE;
 80026e0:	6ee6      	ldr	r6, [r4, #108]	; 0x6c
 80026e2:	4332      	orrs	r2, r6
 80026e4:	66e2      	str	r2, [r4, #108]	; 0x6c
    if(((isrflags & USART_ISR_FE) != RESET) && ((cr3its & USART_CR3_EIE) != RESET))
 80026e6:	2202      	movs	r2, #2
 80026e8:	4213      	tst	r3, r2
 80026ea:	d006      	beq.n	80026fa <HAL_UART_IRQHandler+0x5a>
 80026ec:	2d00      	cmp	r5, #0
 80026ee:	d004      	beq.n	80026fa <HAL_UART_IRQHandler+0x5a>
      __HAL_UART_CLEAR_IT(huart, UART_CLEAR_FEF);
 80026f0:	6202      	str	r2, [r0, #32]
      huart->ErrorCode |= HAL_UART_ERROR_FE;
 80026f2:	6ee6      	ldr	r6, [r4, #108]	; 0x6c
 80026f4:	1892      	adds	r2, r2, r2
 80026f6:	4332      	orrs	r2, r6
 80026f8:	66e2      	str	r2, [r4, #108]	; 0x6c
    if(((isrflags & USART_ISR_NE) != RESET) && ((cr3its & USART_CR3_EIE) != RESET))
 80026fa:	2204      	movs	r2, #4
 80026fc:	4213      	tst	r3, r2
 80026fe:	d006      	beq.n	800270e <HAL_UART_IRQHandler+0x6e>
 8002700:	2d00      	cmp	r5, #0
 8002702:	d004      	beq.n	800270e <HAL_UART_IRQHandler+0x6e>
      __HAL_UART_CLEAR_IT(huart, UART_CLEAR_NEF);
 8002704:	6202      	str	r2, [r0, #32]
      huart->ErrorCode |= HAL_UART_ERROR_NE;
 8002706:	6ee6      	ldr	r6, [r4, #108]	; 0x6c
 8002708:	3a02      	subs	r2, #2
 800270a:	4332      	orrs	r2, r6
 800270c:	66e2      	str	r2, [r4, #108]	; 0x6c
    if(((isrflags & USART_ISR_ORE) != RESET) &&
 800270e:	071a      	lsls	r2, r3, #28
 8002710:	d508      	bpl.n	8002724 <HAL_UART_IRQHandler+0x84>
 8002712:	068a      	lsls	r2, r1, #26
 8002714:	d401      	bmi.n	800271a <HAL_UART_IRQHandler+0x7a>
       (((cr1its & USART_CR1_RXNEIE) != RESET) || ((cr3its & USART_CR3_EIE) != RESET)))
 8002716:	2d00      	cmp	r5, #0
 8002718:	d004      	beq.n	8002724 <HAL_UART_IRQHandler+0x84>
      __HAL_UART_CLEAR_IT(huart, UART_CLEAR_OREF);
 800271a:	2208      	movs	r2, #8
 800271c:	6202      	str	r2, [r0, #32]
      huart->ErrorCode |= HAL_UART_ERROR_ORE;
 800271e:	6ee0      	ldr	r0, [r4, #108]	; 0x6c
 8002720:	4302      	orrs	r2, r0
 8002722:	66e2      	str	r2, [r4, #108]	; 0x6c
    if(huart->ErrorCode != HAL_UART_ERROR_NONE)
 8002724:	6ee2      	ldr	r2, [r4, #108]	; 0x6c
 8002726:	2a00      	cmp	r2, #0
 8002728:	d0ca      	beq.n	80026c0 <HAL_UART_IRQHandler+0x20>
      if(((isrflags & USART_ISR_RXNE) != RESET) && ((cr1its & USART_CR1_RXNEIE) != RESET))
 800272a:	2220      	movs	r2, #32
 800272c:	4213      	tst	r3, r2
 800272e:	d004      	beq.n	800273a <HAL_UART_IRQHandler+0x9a>
 8002730:	4211      	tst	r1, r2
 8002732:	d002      	beq.n	800273a <HAL_UART_IRQHandler+0x9a>
        UART_Receive_IT(huart);
 8002734:	0020      	movs	r0, r4
 8002736:	f7ff ff75 	bl	8002624 <UART_Receive_IT>
      if (((huart->ErrorCode & HAL_UART_ERROR_ORE) != RESET) ||
 800273a:	6ee3      	ldr	r3, [r4, #108]	; 0x6c
        UART_EndRxTransfer(huart);
 800273c:	0020      	movs	r0, r4
      if (((huart->ErrorCode & HAL_UART_ERROR_ORE) != RESET) ||
 800273e:	071b      	lsls	r3, r3, #28
 8002740:	d404      	bmi.n	800274c <HAL_UART_IRQHandler+0xac>
          (HAL_IS_BIT_SET(huart->Instance->CR3, USART_CR3_DMAR)))
 8002742:	6823      	ldr	r3, [r4, #0]
 8002744:	689d      	ldr	r5, [r3, #8]
 8002746:	2340      	movs	r3, #64	; 0x40
 8002748:	401d      	ands	r5, r3
      if (((huart->ErrorCode & HAL_UART_ERROR_ORE) != RESET) ||
 800274a:	d01a      	beq.n	8002782 <HAL_UART_IRQHandler+0xe2>
        UART_EndRxTransfer(huart);
 800274c:	f7ff fcdc 	bl	8002108 <UART_EndRxTransfer>
        if (HAL_IS_BIT_SET(huart->Instance->CR3, USART_CR3_DMAR))
 8002750:	2140      	movs	r1, #64	; 0x40
 8002752:	6823      	ldr	r3, [r4, #0]
 8002754:	689a      	ldr	r2, [r3, #8]
 8002756:	420a      	tst	r2, r1
 8002758:	d00f      	beq.n	800277a <HAL_UART_IRQHandler+0xda>
          CLEAR_BIT(huart->Instance->CR3, USART_CR3_DMAR);
 800275a:	689a      	ldr	r2, [r3, #8]
          if(huart->hdmarx != NULL)
 800275c:	6e60      	ldr	r0, [r4, #100]	; 0x64
          CLEAR_BIT(huart->Instance->CR3, USART_CR3_DMAR);
 800275e:	438a      	bics	r2, r1
 8002760:	609a      	str	r2, [r3, #8]
          if(huart->hdmarx != NULL)
 8002762:	2800      	cmp	r0, #0
 8002764:	d009      	beq.n	800277a <HAL_UART_IRQHandler+0xda>
            huart->hdmarx->XferAbortCallback = UART_DMAAbortOnError;
 8002766:	4b13      	ldr	r3, [pc, #76]	; (80027b4 <HAL_UART_IRQHandler+0x114>)
 8002768:	6343      	str	r3, [r0, #52]	; 0x34
            if(HAL_DMA_Abort_IT(huart->hdmarx) != HAL_OK)
 800276a:	f7fe fd6a 	bl	8001242 <HAL_DMA_Abort_IT>
 800276e:	2800      	cmp	r0, #0
 8002770:	d0a6      	beq.n	80026c0 <HAL_UART_IRQHandler+0x20>
              huart->hdmarx->XferAbortCallback(huart->hdmarx);
 8002772:	6e60      	ldr	r0, [r4, #100]	; 0x64
 8002774:	6b43      	ldr	r3, [r0, #52]	; 0x34
 8002776:	4798      	blx	r3
 8002778:	e7a2      	b.n	80026c0 <HAL_UART_IRQHandler+0x20>
            HAL_UART_ErrorCallback(huart);
 800277a:	0020      	movs	r0, r4
 800277c:	f7ff fdb0 	bl	80022e0 <HAL_UART_ErrorCallback>
 8002780:	e79e      	b.n	80026c0 <HAL_UART_IRQHandler+0x20>
        HAL_UART_ErrorCallback(huart);
 8002782:	f7ff fdad 	bl	80022e0 <HAL_UART_ErrorCallback>
        huart->ErrorCode = HAL_UART_ERROR_NONE;
 8002786:	66e5      	str	r5, [r4, #108]	; 0x6c
 8002788:	e79a      	b.n	80026c0 <HAL_UART_IRQHandler+0x20>
  if(((isrflags & USART_ISR_TXE) != RESET) && ((cr1its & USART_CR1_TXEIE) != RESET))
 800278a:	2280      	movs	r2, #128	; 0x80
 800278c:	4213      	tst	r3, r2
 800278e:	d005      	beq.n	800279c <HAL_UART_IRQHandler+0xfc>
 8002790:	4211      	tst	r1, r2
 8002792:	d003      	beq.n	800279c <HAL_UART_IRQHandler+0xfc>
    UART_Transmit_IT(huart);
 8002794:	0020      	movs	r0, r4
 8002796:	f7ff ff05 	bl	80025a4 <UART_Transmit_IT>
    return;
 800279a:	e791      	b.n	80026c0 <HAL_UART_IRQHandler+0x20>
  if(((isrflags & USART_ISR_TC) != RESET) && ((cr1its & USART_CR1_TCIE) != RESET))
 800279c:	2240      	movs	r2, #64	; 0x40
 800279e:	4213      	tst	r3, r2
 80027a0:	d100      	bne.n	80027a4 <HAL_UART_IRQHandler+0x104>
 80027a2:	e78d      	b.n	80026c0 <HAL_UART_IRQHandler+0x20>
 80027a4:	4211      	tst	r1, r2
 80027a6:	d100      	bne.n	80027aa <HAL_UART_IRQHandler+0x10a>
 80027a8:	e78a      	b.n	80026c0 <HAL_UART_IRQHandler+0x20>
    UART_EndTransmit_IT(huart);
 80027aa:	0020      	movs	r0, r4
 80027ac:	f7ff ff2c 	bl	8002608 <UART_EndTransmit_IT>
    return;
 80027b0:	e786      	b.n	80026c0 <HAL_UART_IRQHandler+0x20>
 80027b2:	46c0      	nop			; (mov r8, r8)
 80027b4:	0800233d 	.word	0x0800233d

080027b8 <get_current_potentiometer>:

#include "function.h"
#include "variables.h"
#define R 155		// Resistor chosen in H-brigde circuit to transform proportional current to a voltage

void get_current_potentiometer(){
 80027b8:	b5f8      	push	{r3, r4, r5, r6, r7, lr}
	sampledCurrent = ADC_buffer[1];
 80027ba:	4b18      	ldr	r3, [pc, #96]	; (800281c <get_current_potentiometer+0x64>)
 80027bc:	4a18      	ldr	r2, [pc, #96]	; (8002820 <get_current_potentiometer+0x68>)
 80027be:	681b      	ldr	r3, [r3, #0]
	sampledPotentiometer = ADC_buffer[0];
 80027c0:	4f18      	ldr	r7, [pc, #96]	; (8002824 <get_current_potentiometer+0x6c>)
	sampledCurrent = ADC_buffer[1];
 80027c2:	685e      	ldr	r6, [r3, #4]
 80027c4:	6016      	str	r6, [r2, #0]
	sampledPotentiometer = ADC_buffer[0];
 80027c6:	6818      	ldr	r0, [r3, #0]



	prevprev_q1 = prev_q1;
 80027c8:	4a17      	ldr	r2, [pc, #92]	; (8002828 <get_current_potentiometer+0x70>)
 80027ca:	4b18      	ldr	r3, [pc, #96]	; (800282c <get_current_potentiometer+0x74>)
	sampledPotentiometer = ADC_buffer[0];
 80027cc:	6038      	str	r0, [r7, #0]
	prevprev_q1 = prev_q1;
 80027ce:	681c      	ldr	r4, [r3, #0]
 80027d0:	685d      	ldr	r5, [r3, #4]
 80027d2:	6014      	str	r4, [r2, #0]
 80027d4:	6055      	str	r5, [r2, #4]
	prev_q1 = q1;
 80027d6:	4c16      	ldr	r4, [pc, #88]	; (8002830 <get_current_potentiometer+0x78>)
 80027d8:	6821      	ldr	r1, [r4, #0]
 80027da:	6862      	ldr	r2, [r4, #4]
 80027dc:	6019      	str	r1, [r3, #0]
 80027de:	605a      	str	r2, [r3, #4]
	q1 = ((int32_t)sampledPotentiometer-(int32_t)startval_sampledPotentiometer)*0.00153f;
 80027e0:	4b14      	ldr	r3, [pc, #80]	; (8002834 <get_current_potentiometer+0x7c>)
 80027e2:	681b      	ldr	r3, [r3, #0]
 80027e4:	1ac0      	subs	r0, r0, r3
 80027e6:	f7fd fe4d 	bl	8000484 <__aeabi_i2f>
 80027ea:	4913      	ldr	r1, [pc, #76]	; (8002838 <get_current_potentiometer+0x80>)
 80027ec:	f7fd fd2a 	bl	8000244 <__aeabi_fmul>
 80027f0:	f7fe f95a 	bl	8000aa8 <__aeabi_f2d>
	torque = (sampledCurrent<<9);
 80027f4:	2200      	movs	r2, #0
 80027f6:	4b11      	ldr	r3, [pc, #68]	; (800283c <get_current_potentiometer+0x84>)
	q1 = ((int32_t)sampledPotentiometer-(int32_t)startval_sampledPotentiometer)*0.00153f;
 80027f8:	6020      	str	r0, [r4, #0]
 80027fa:	6061      	str	r1, [r4, #4]
	torque = (sampledCurrent<<9);
 80027fc:	701a      	strb	r2, [r3, #0]
//	q1dot = (prevprev_q1 - prev_q1<<2+3*q1)/(time<<2); // time variable needs to change




	sprintf(send_torque,"%lu", sampledCurrent);
 80027fe:	4c10      	ldr	r4, [pc, #64]	; (8002840 <get_current_potentiometer+0x88>)
 8002800:	4b10      	ldr	r3, [pc, #64]	; (8002844 <get_current_potentiometer+0x8c>)
 8002802:	0032      	movs	r2, r6
 8002804:	0021      	movs	r1, r4
 8002806:	6818      	ldr	r0, [r3, #0]
 8002808:	f000 ff8a 	bl	8003720 <siprintf>
	sprintf(send_q1,"%lu", sampledPotentiometer);
 800280c:	4b0e      	ldr	r3, [pc, #56]	; (8002848 <get_current_potentiometer+0x90>)
 800280e:	683a      	ldr	r2, [r7, #0]
 8002810:	6818      	ldr	r0, [r3, #0]
 8002812:	0021      	movs	r1, r4
 8002814:	f000 ff84 	bl	8003720 <siprintf>
	// Do conversion equation to get 'real' value



	// store in buffer to be send across UART
}
 8002818:	bdf8      	pop	{r3, r4, r5, r6, r7, pc}
 800281a:	46c0      	nop			; (mov r8, r8)
 800281c:	2000021c 	.word	0x2000021c
 8002820:	2000027c 	.word	0x2000027c
 8002824:	20000280 	.word	0x20000280
 8002828:	20000248 	.word	0x20000248
 800282c:	20000238 	.word	0x20000238
 8002830:	20000260 	.word	0x20000260
 8002834:	20000028 	.word	0x20000028
 8002838:	3ac88a48 	.word	0x3ac88a48
 800283c:	200002b4 	.word	0x200002b4
 8002840:	08004030 	.word	0x08004030
 8002844:	20000294 	.word	0x20000294
 8002848:	20000288 	.word	0x20000288

0800284c <HAL_UART_RxCpltCallback>:
extern TIM_HandleTypeDef htim14;
extern TIM_HandleTypeDef htim3;
extern UART_HandleTypeDef huart1;
// interrupt when byte is received on UART
void HAL_UART_RxCpltCallback(UART_HandleTypeDef *huart){
	uart_flag = 1;
 800284c:	2201      	movs	r2, #1
 800284e:	4b01      	ldr	r3, [pc, #4]	; (8002854 <HAL_UART_RxCpltCallback+0x8>)
 8002850:	701a      	strb	r2, [r3, #0]
}
 8002852:	4770      	bx	lr
 8002854:	200002b5 	.word	0x200002b5

08002858 <HAL_GPIO_EXTI_Callback>:

//interrupt when encoder is experiencing an rising or falling edge
void HAL_GPIO_EXTI_Callback(uint16_t GPIO_Pin){
	encoder_flag = 1;
 8002858:	2201      	movs	r2, #1
 800285a:	4b01      	ldr	r3, [pc, #4]	; (8002860 <HAL_GPIO_EXTI_Callback+0x8>)
 800285c:	701a      	strb	r2, [r3, #0]

}
 800285e:	4770      	bx	lr
 8002860:	2000022f 	.word	0x2000022f

08002864 <HAL_TIM_PeriodElapsedCallback>:

void HAL_TIM_PeriodElapsedCallback(TIM_HandleTypeDef *htim){

	if(htim->Instance == htim16.Instance){
 8002864:	4a09      	ldr	r2, [pc, #36]	; (800288c <HAL_TIM_PeriodElapsedCallback+0x28>)
 8002866:	6803      	ldr	r3, [r0, #0]
 8002868:	6812      	ldr	r2, [r2, #0]
 800286a:	4293      	cmp	r3, r2
 800286c:	d00a      	beq.n	8002884 <HAL_TIM_PeriodElapsedCallback+0x20>
		send_data_flag = 1;
	}
	else if(htim->Instance == htim14.Instance){
 800286e:	4a08      	ldr	r2, [pc, #32]	; (8002890 <HAL_TIM_PeriodElapsedCallback+0x2c>)
 8002870:	6812      	ldr	r2, [r2, #0]
 8002872:	4293      	cmp	r3, r2
 8002874:	d000      	beq.n	8002878 <HAL_TIM_PeriodElapsedCallback+0x14>
		adc_flag = 1;
		data_flag = 1;
	}
//	data_flag = 1;
//	adc_flag = 1;
}
 8002876:	4770      	bx	lr
		adc_flag = 1;
 8002878:	2301      	movs	r3, #1
 800287a:	4a06      	ldr	r2, [pc, #24]	; (8002894 <HAL_TIM_PeriodElapsedCallback+0x30>)
 800287c:	7013      	strb	r3, [r2, #0]
		data_flag = 1;
 800287e:	4a06      	ldr	r2, [pc, #24]	; (8002898 <HAL_TIM_PeriodElapsedCallback+0x34>)
 8002880:	7013      	strb	r3, [r2, #0]
}
 8002882:	e7f8      	b.n	8002876 <HAL_TIM_PeriodElapsedCallback+0x12>
		send_data_flag = 1;
 8002884:	2201      	movs	r2, #1
 8002886:	4b05      	ldr	r3, [pc, #20]	; (800289c <HAL_TIM_PeriodElapsedCallback+0x38>)
 8002888:	701a      	strb	r2, [r3, #0]
 800288a:	e7f4      	b.n	8002876 <HAL_TIM_PeriodElapsedCallback+0x12>
 800288c:	20000490 	.word	0x20000490
 8002890:	200003c0 	.word	0x200003c0
 8002894:	20000220 	.word	0x20000220
 8002898:	2000022c 	.word	0x2000022c
 800289c:	20000024 	.word	0x20000024

080028a0 <HAL_TIM_OC_DelayElapsedCallback>:
 80028a0:	2201      	movs	r2, #1
 80028a2:	4b01      	ldr	r3, [pc, #4]	; (80028a8 <HAL_TIM_OC_DelayElapsedCallback+0x8>)
 80028a4:	701a      	strb	r2, [r3, #0]
 80028a6:	4770      	bx	lr
 80028a8:	20000258 	.word	0x20000258

080028ac <HAL_TIM_IC_CaptureCallback>:
 80028ac:	2201      	movs	r2, #1
 80028ae:	4b01      	ldr	r3, [pc, #4]	; (80028b4 <HAL_TIM_IC_CaptureCallback+0x8>)
 80028b0:	701a      	strb	r2, [r3, #0]
 80028b2:	4770      	bx	lr
 80028b4:	20000258 	.word	0x20000258

080028b8 <HAL_TIM_PWM_PulseFinishedCallback>:
void HAL_TIM_IC_CaptureCallback(TIM_HandleTypeDef *htim){
	pwm_flag = 1;
}

void HAL_TIM_PWM_PulseFinishedCallback(TIM_HandleTypeDef *htim){
	pwm_flag = 1;
 80028b8:	2201      	movs	r2, #1
 80028ba:	4b01      	ldr	r3, [pc, #4]	; (80028c0 <HAL_TIM_PWM_PulseFinishedCallback+0x8>)
 80028bc:	701a      	strb	r2, [r3, #0]
}
 80028be:	4770      	bx	lr
 80028c0:	20000258 	.word	0x20000258

080028c4 <HAL_UART_TxCpltCallback>:

void HAL_UART_TxCpltCallback (UART_HandleTypeDef *huart){
	memset(rx_buffer,0x00, 8);
 80028c4:	4b08      	ldr	r3, [pc, #32]	; (80028e8 <HAL_UART_TxCpltCallback+0x24>)
void HAL_UART_TxCpltCallback (UART_HandleTypeDef *huart){
 80028c6:	b510      	push	{r4, lr}
	memset(rx_buffer,0x00, 8);
 80028c8:	6818      	ldr	r0, [r3, #0]
 80028ca:	2208      	movs	r2, #8
 80028cc:	2100      	movs	r1, #0
 80028ce:	f000 fe64 	bl	800359a <memset>
	rx_buffer_cntr = 0;
 80028d2:	2200      	movs	r2, #0
 80028d4:	4b05      	ldr	r3, [pc, #20]	; (80028ec <HAL_UART_TxCpltCallback+0x28>)
	memset(data_buffer,0x00,40);
 80028d6:	2100      	movs	r1, #0
	rx_buffer_cntr = 0;
 80028d8:	701a      	strb	r2, [r3, #0]
	memset(data_buffer,0x00,40);
 80028da:	4b05      	ldr	r3, [pc, #20]	; (80028f0 <HAL_UART_TxCpltCallback+0x2c>)
 80028dc:	3228      	adds	r2, #40	; 0x28
 80028de:	6818      	ldr	r0, [r3, #0]
 80028e0:	f000 fe5b 	bl	800359a <memset>
}
 80028e4:	bd10      	pop	{r4, pc}
 80028e6:	46c0      	nop			; (mov r8, r8)
 80028e8:	20000274 	.word	0x20000274
 80028ec:	20000278 	.word	0x20000278
 80028f0:	20000228 	.word	0x20000228

080028f4 <read_motor_position>:


void read_motor_position(){
 80028f4:	b570      	push	{r4, r5, r6, lr}

	prevprev_q2 = prev_q2;
 80028f6:	4b15      	ldr	r3, [pc, #84]	; (800294c <read_motor_position+0x58>)
 80028f8:	4a15      	ldr	r2, [pc, #84]	; (8002950 <read_motor_position+0x5c>)
	prev_q2 = q2;
	error_step_prev = q2_steps;
 80028fa:	4d16      	ldr	r5, [pc, #88]	; (8002954 <read_motor_position+0x60>)
	prev_q2 = q2;
 80028fc:	4e16      	ldr	r6, [pc, #88]	; (8002958 <read_motor_position+0x64>)
	prevprev_q2 = prev_q2;
 80028fe:	6818      	ldr	r0, [r3, #0]
 8002900:	6859      	ldr	r1, [r3, #4]
 8002902:	6010      	str	r0, [r2, #0]
 8002904:	6051      	str	r1, [r2, #4]
	prev_q2 = q2;
 8002906:	6831      	ldr	r1, [r6, #0]
 8002908:	6872      	ldr	r2, [r6, #4]
 800290a:	6019      	str	r1, [r3, #0]
 800290c:	605a      	str	r2, [r3, #4]
	error_step_prev = q2_steps;
 800290e:	4b13      	ldr	r3, [pc, #76]	; (800295c <read_motor_position+0x68>)
 8002910:	782a      	ldrb	r2, [r5, #0]

	if(HAL_GPIO_ReadPin(DIR_GPIO_Port, DIR_Pin) == 1){ // actuated pendulum is turning clockwise
 8002912:	2120      	movs	r1, #32
 8002914:	4812      	ldr	r0, [pc, #72]	; (8002960 <read_motor_position+0x6c>)
	error_step_prev = q2_steps;
 8002916:	701a      	strb	r2, [r3, #0]
	if(HAL_GPIO_ReadPin(DIR_GPIO_Port, DIR_Pin) == 1){ // actuated pendulum is turning clockwise
 8002918:	f7fe fdb0 	bl	800147c <HAL_GPIO_ReadPin>
		q2_steps -= 1;
 800291c:	682b      	ldr	r3, [r5, #0]
 800291e:	1e5c      	subs	r4, r3, #1
	if(HAL_GPIO_ReadPin(DIR_GPIO_Port, DIR_Pin) == 1){ // actuated pendulum is turning clockwise
 8002920:	2801      	cmp	r0, #1
 8002922:	d000      	beq.n	8002926 <read_motor_position+0x32>
		q2 = q2_steps*dir_increment_size;
	}
	else{ // actuated pendulum is turning anti-clockwise
		q2_steps += 1;
 8002924:	1c5c      	adds	r4, r3, #1
		q2 = q2_steps*dir_increment_size;
 8002926:	0020      	movs	r0, r4
 8002928:	f7fe f87c 	bl	8000a24 <__aeabi_i2d>
 800292c:	4b0d      	ldr	r3, [pc, #52]	; (8002964 <read_motor_position+0x70>)
 800292e:	681a      	ldr	r2, [r3, #0]
 8002930:	685b      	ldr	r3, [r3, #4]
 8002932:	f7fd fdf7 	bl	8000524 <__aeabi_dmul>
	}
	sprintf(send_q2,"%d", q2_steps);
 8002936:	4b0c      	ldr	r3, [pc, #48]	; (8002968 <read_motor_position+0x74>)
 8002938:	6030      	str	r0, [r6, #0]
 800293a:	6071      	str	r1, [r6, #4]
 800293c:	0022      	movs	r2, r4
 800293e:	6818      	ldr	r0, [r3, #0]
 8002940:	490a      	ldr	r1, [pc, #40]	; (800296c <read_motor_position+0x78>)
 8002942:	602c      	str	r4, [r5, #0]
 8002944:	f000 feec 	bl	8003720 <siprintf>

	//three point backward difference
//	q2dot = (prevprev_q2 - prev_q2<<2+3*q2)/(2*time); // time variable needs to change

}
 8002948:	bd70      	pop	{r4, r5, r6, pc}
 800294a:	46c0      	nop			; (mov r8, r8)
 800294c:	20000240 	.word	0x20000240
 8002950:	20000250 	.word	0x20000250
 8002954:	20000270 	.word	0x20000270
 8002958:	20000268 	.word	0x20000268
 800295c:	20000230 	.word	0x20000230
 8002960:	48000400 	.word	0x48000400
 8002964:	20000010 	.word	0x20000010
 8002968:	2000028c 	.word	0x2000028c
 800296c:	08004034 	.word	0x08004034

08002970 <torque_output>:
//		motor_dir = 1;
//		HAL_GPIO_WritePin(MOTOR_DIR_GPIO_Port,MOTOR_DIR_Pin,motor_dir);
//		__HAL_TIM_SET_COMPARE(&htim3, TIM_CHANNEL_2, duty_cycle );
//	}

}
 8002970:	4770      	bx	lr
 8002972:	46c0      	nop			; (mov r8, r8)

08002974 <startPeripherals>:
extern ADC_HandleTypeDef hadc;
extern TIM_HandleTypeDef htim3;
extern TIM_HandleTypeDef htim14;
extern TIM_HandleTypeDef htim16;

void startPeripherals(){
 8002974:	b510      	push	{r4, lr}

	HAL_ADCEx_Calibration_Start(&hadc);					// Calibrate the ADC
 8002976:	4c12      	ldr	r4, [pc, #72]	; (80029c0 <startPeripherals+0x4c>)
 8002978:	0020      	movs	r0, r4
 800297a:	f7fe fb35 	bl	8000fe8 <HAL_ADCEx_Calibration_Start>
	HAL_ADC_Start_DMA(&hadc, ADC_buffer, 2);			// Start to capture the ADC with DMA
 800297e:	4b11      	ldr	r3, [pc, #68]	; (80029c4 <startPeripherals+0x50>)
 8002980:	2202      	movs	r2, #2
 8002982:	6819      	ldr	r1, [r3, #0]
 8002984:	0020      	movs	r0, r4
 8002986:	f7fe fa21 	bl	8000dcc <HAL_ADC_Start_DMA>

	HAL_TIM_Base_Start_IT(&htim14);						// Timer responsible for time-keeping and triggers system state to be send
 800298a:	480f      	ldr	r0, [pc, #60]	; (80029c8 <startPeripherals+0x54>)
 800298c:	f7ff f982 	bl	8001c94 <HAL_TIM_Base_Start_IT>
	HAL_TIM_Base_Start_IT(&htim16);						// Timer responsible for time-keeping and triggers system state to be send
 8002990:	480e      	ldr	r0, [pc, #56]	; (80029cc <startPeripherals+0x58>)
 8002992:	f7ff f97f 	bl	8001c94 <HAL_TIM_Base_Start_IT>
	HAL_TIM_PWM_Start_IT(&htim3,TIM_CHANNEL_2);			// Start the Timer Module with PWM
 8002996:	4c0e      	ldr	r4, [pc, #56]	; (80029d0 <startPeripherals+0x5c>)
 8002998:	2104      	movs	r1, #4
 800299a:	0020      	movs	r0, r4
 800299c:	f7ff fb52 	bl	8002044 <HAL_TIM_PWM_Start_IT>
	__HAL_TIM_SET_COMPARE(&htim3, TIM_CHANNEL_2, 0);	// Set duty cycle of PWM signal to 0%
 80029a0:	2200      	movs	r2, #0
 80029a2:	6823      	ldr	r3, [r4, #0]
	HAL_UART_Receive_IT(&huart1, &rx_byte, 1);			// Set interrupt to receive byte over UART
 80029a4:	490b      	ldr	r1, [pc, #44]	; (80029d4 <startPeripherals+0x60>)
	__HAL_TIM_SET_COMPARE(&htim3, TIM_CHANNEL_2, 0);	// Set duty cycle of PWM signal to 0%
 80029a6:	639a      	str	r2, [r3, #56]	; 0x38
	HAL_UART_Receive_IT(&huart1, &rx_byte, 1);			// Set interrupt to receive byte over UART
 80029a8:	480b      	ldr	r0, [pc, #44]	; (80029d8 <startPeripherals+0x64>)
 80029aa:	3201      	adds	r2, #1
 80029ac:	f7ff fbea 	bl	8002184 <HAL_UART_Receive_IT>


//	HAL_Delay(500);										// Delay for peripherals to settle
	HAL_GPIO_WritePin(DEBUG_LED1_GPIO_Port,DEBUG_LED1_Pin,1); // LED ON indicates system is ready
 80029b0:	2090      	movs	r0, #144	; 0x90
 80029b2:	2201      	movs	r2, #1
 80029b4:	2108      	movs	r1, #8
 80029b6:	05c0      	lsls	r0, r0, #23
 80029b8:	f7fe fd66 	bl	8001488 <HAL_GPIO_WritePin>

	//startval_sampledPotentiometer = ADC_buffer[1];

}
 80029bc:	bd10      	pop	{r4, pc}
 80029be:	46c0      	nop			; (mov r8, r8)
 80029c0:	20000444 	.word	0x20000444
 80029c4:	2000021c 	.word	0x2000021c
 80029c8:	200003c0 	.word	0x200003c0
 80029cc:	20000490 	.word	0x20000490
 80029d0:	200002cc 	.word	0x200002cc
 80029d4:	20000279 	.word	0x20000279
 80029d8:	20000350 	.word	0x20000350

080029dc <init_variables>:


void init_variables(){
 80029dc:	b570      	push	{r4, r5, r6, lr}

	rx_buffer = (uint8_t*)malloc(8*sizeof(uint8_t));
 80029de:	2008      	movs	r0, #8
	memset(rx_buffer,0x00,8);
 80029e0:	2408      	movs	r4, #8
	rx_buffer = (uint8_t*)malloc(8*sizeof(uint8_t));
 80029e2:	f000 fdc7 	bl	8003574 <malloc>
 80029e6:	4b31      	ldr	r3, [pc, #196]	; (8002aac <init_variables+0xd0>)
	memset(rx_buffer,0x00,8);
 80029e8:	0022      	movs	r2, r4
 80029ea:	2100      	movs	r1, #0
	rx_buffer = (uint8_t*)malloc(8*sizeof(uint8_t));
 80029ec:	6018      	str	r0, [r3, #0]
	memset(rx_buffer,0x00,8);
 80029ee:	f000 fdd4 	bl	800359a <memset>

	verification = (uint8_t*)malloc(8*sizeof(uint8_t));
 80029f2:	0020      	movs	r0, r4
 80029f4:	f000 fdbe 	bl	8003574 <malloc>
 80029f8:	4b2d      	ldr	r3, [pc, #180]	; (8002ab0 <init_variables+0xd4>)
	memset(verification,0x00,8);
 80029fa:	0022      	movs	r2, r4
 80029fc:	2100      	movs	r1, #0
	verification = (uint8_t*)malloc(8*sizeof(uint8_t));
 80029fe:	6018      	str	r0, [r3, #0]
	memset(verification,0x00,8);
 8002a00:	f000 fdcb 	bl	800359a <memset>

	// might to be larger to account for decimals
	data_buffer = (uint8_t*)malloc(72*sizeof(uint8_t));
 8002a04:	2048      	movs	r0, #72	; 0x48
 8002a06:	f000 fdb5 	bl	8003574 <malloc>
 8002a0a:	4b2a      	ldr	r3, [pc, #168]	; (8002ab4 <init_variables+0xd8>)
	memset(data_buffer,0x00,72);
 8002a0c:	2248      	movs	r2, #72	; 0x48
 8002a0e:	2100      	movs	r1, #0
	data_buffer = (uint8_t*)malloc(72*sizeof(uint8_t));
 8002a10:	0005      	movs	r5, r0
 8002a12:	6018      	str	r0, [r3, #0]
	memset(data_buffer,0x00,72);
 8002a14:	f000 fdc1 	bl	800359a <memset>

	// forming dat structure to be send
	memcpy(data_buffer, dollar, strlen((char*)dollar));
 8002a18:	4b27      	ldr	r3, [pc, #156]	; (8002ab8 <init_variables+0xdc>)
 8002a1a:	681e      	ldr	r6, [r3, #0]
 8002a1c:	0030      	movs	r0, r6
 8002a1e:	f7fd fb73 	bl	8000108 <strlen>
 8002a22:	0031      	movs	r1, r6
 8002a24:	0002      	movs	r2, r0
 8002a26:	0028      	movs	r0, r5
 8002a28:	f000 fdae 	bl	8003588 <memcpy>


	ADC_buffer = (uint32_t*)malloc(2*sizeof(uint32_t));
 8002a2c:	0020      	movs	r0, r4
 8002a2e:	f000 fda1 	bl	8003574 <malloc>
	memset(ADC_buffer,0x00,2);
 8002a32:	2400      	movs	r4, #0
	ADC_buffer = (uint32_t*)malloc(2*sizeof(uint32_t));
 8002a34:	4b21      	ldr	r3, [pc, #132]	; (8002abc <init_variables+0xe0>)
	memset(ADC_buffer,0x00,2);
 8002a36:	8004      	strh	r4, [r0, #0]
	ADC_buffer = (uint32_t*)malloc(2*sizeof(uint32_t));
 8002a38:	6018      	str	r0, [r3, #0]

	atan_vals = (double*)malloc(100*sizeof(double));
 8002a3a:	20c8      	movs	r0, #200	; 0xc8
 8002a3c:	0080      	lsls	r0, r0, #2
 8002a3e:	f000 fd99 	bl	8003574 <malloc>
 8002a42:	4b1f      	ldr	r3, [pc, #124]	; (8002ac0 <init_variables+0xe4>)
	memset(atan_vals,0x00,100);
 8002a44:	0021      	movs	r1, r4
 8002a46:	2264      	movs	r2, #100	; 0x64
	atan_vals = (double*)malloc(100*sizeof(double));
 8002a48:	6018      	str	r0, [r3, #0]
	memset(atan_vals,0x00,100);
 8002a4a:	f000 fda6 	bl	800359a <memset>

	scratchpad = (char*)malloc(5*sizeof(char));
 8002a4e:	2005      	movs	r0, #5
 8002a50:	f000 fd90 	bl	8003574 <malloc>
 8002a54:	4b1b      	ldr	r3, [pc, #108]	; (8002ac4 <init_variables+0xe8>)
	memset(scratchpad,0x00,5);
 8002a56:	0021      	movs	r1, r4
 8002a58:	2205      	movs	r2, #5
	scratchpad = (char*)malloc(5*sizeof(char));
 8002a5a:	6018      	str	r0, [r3, #0]
	memset(scratchpad,0x00,5);
 8002a5c:	f000 fd9d 	bl	800359a <memset>

	send_q1 = (char*)malloc(10*sizeof(char));
 8002a60:	200a      	movs	r0, #10
 8002a62:	f000 fd87 	bl	8003574 <malloc>
 8002a66:	4b18      	ldr	r3, [pc, #96]	; (8002ac8 <init_variables+0xec>)
	memset(send_q1,0x00,10);
 8002a68:	0021      	movs	r1, r4
 8002a6a:	220a      	movs	r2, #10
	send_q1 = (char*)malloc(10*sizeof(char));
 8002a6c:	6018      	str	r0, [r3, #0]
	memset(send_q1,0x00,10);
 8002a6e:	f000 fd94 	bl	800359a <memset>
	send_q2 = (char*)malloc(32*sizeof(char));
 8002a72:	2020      	movs	r0, #32
 8002a74:	f000 fd7e 	bl	8003574 <malloc>
 8002a78:	4b14      	ldr	r3, [pc, #80]	; (8002acc <init_variables+0xf0>)
	memset(send_q2,0x00,32);
 8002a7a:	0021      	movs	r1, r4
 8002a7c:	2220      	movs	r2, #32
	send_q2 = (char*)malloc(32*sizeof(char));
 8002a7e:	0005      	movs	r5, r0
 8002a80:	6018      	str	r0, [r3, #0]
	memset(send_q2,0x00,32);
 8002a82:	f000 fd8a 	bl	800359a <memset>
	send_torque = (char*)malloc(4*sizeof(char));
 8002a86:	2004      	movs	r0, #4
 8002a88:	f000 fd74 	bl	8003574 <malloc>
 8002a8c:	4b10      	ldr	r3, [pc, #64]	; (8002ad0 <init_variables+0xf4>)
	memset(send_torque,0x00,4);
 8002a8e:	6004      	str	r4, [r0, #0]
	send_torque = (char*)malloc(4*sizeof(char));
 8002a90:	6018      	str	r0, [r3, #0]
	send_time = (char*)malloc(4*sizeof(char));
 8002a92:	2004      	movs	r0, #4
 8002a94:	f000 fd6e 	bl	8003574 <malloc>
 8002a98:	4b0e      	ldr	r3, [pc, #56]	; (8002ad4 <init_variables+0xf8>)
	memset(send_time,0x00,4);
 8002a9a:	6004      	str	r4, [r0, #0]
	send_time = (char*)malloc(4*sizeof(char));
 8002a9c:	6018      	str	r0, [r3, #0]


	sprintf(send_q2,"%d", q2_steps);
 8002a9e:	4b0e      	ldr	r3, [pc, #56]	; (8002ad8 <init_variables+0xfc>)
 8002aa0:	0028      	movs	r0, r5
 8002aa2:	681a      	ldr	r2, [r3, #0]
 8002aa4:	490d      	ldr	r1, [pc, #52]	; (8002adc <init_variables+0x100>)
 8002aa6:	f000 fe3b 	bl	8003720 <siprintf>

	// temporary, this should be done where the variables are measured

}
 8002aaa:	bd70      	pop	{r4, r5, r6, pc}
 8002aac:	20000274 	.word	0x20000274
 8002ab0:	200002b8 	.word	0x200002b8
 8002ab4:	20000228 	.word	0x20000228
 8002ab8:	20000018 	.word	0x20000018
 8002abc:	2000021c 	.word	0x2000021c
 8002ac0:	20000224 	.word	0x20000224
 8002ac4:	20000284 	.word	0x20000284
 8002ac8:	20000288 	.word	0x20000288
 8002acc:	2000028c 	.word	0x2000028c
 8002ad0:	20000294 	.word	0x20000294
 8002ad4:	20000290 	.word	0x20000290
 8002ad8:	20000270 	.word	0x20000270
 8002adc:	08004038 	.word	0x08004038

08002ae0 <SystemClock_Config>:
  RCC_ClkInitTypeDef RCC_ClkInitStruct;
  RCC_PeriphCLKInitTypeDef PeriphClkInit;

    /**Initializes the CPU, AHB and APB busses clocks 
    */
  RCC_OscInitStruct.OscillatorType = RCC_OSCILLATORTYPE_HSI|RCC_OSCILLATORTYPE_HSI14;
 8002ae0:	2312      	movs	r3, #18
{
 8002ae2:	b530      	push	{r4, r5, lr}
 8002ae4:	b095      	sub	sp, #84	; 0x54
  RCC_OscInitStruct.OscillatorType = RCC_OSCILLATORTYPE_HSI|RCC_OSCILLATORTYPE_HSI14;
 8002ae6:	9308      	str	r3, [sp, #32]
  RCC_OscInitStruct.HSI14State = RCC_HSI14_ON;
  RCC_OscInitStruct.HSICalibrationValue = 16;
  RCC_OscInitStruct.HSI14CalibrationValue = 16;
  RCC_OscInitStruct.PLL.PLLState = RCC_PLL_ON;
  RCC_OscInitStruct.PLL.PLLSource = RCC_PLLSOURCE_HSI;
  RCC_OscInitStruct.PLL.PLLMUL = RCC_PLL_MUL12;
 8002ae8:	22a0      	movs	r2, #160	; 0xa0
  RCC_OscInitStruct.HSICalibrationValue = 16;
 8002aea:	3b02      	subs	r3, #2
  RCC_OscInitStruct.HSIState = RCC_HSI_ON;
 8002aec:	2401      	movs	r4, #1
  RCC_OscInitStruct.HSICalibrationValue = 16;
 8002aee:	930c      	str	r3, [sp, #48]	; 0x30
  RCC_OscInitStruct.HSI14CalibrationValue = 16;
 8002af0:	930e      	str	r3, [sp, #56]	; 0x38
  RCC_OscInitStruct.PLL.PLLState = RCC_PLL_ON;
 8002af2:	2502      	movs	r5, #2
  RCC_OscInitStruct.PLL.PLLSource = RCC_PLLSOURCE_HSI;
 8002af4:	2300      	movs	r3, #0
  RCC_OscInitStruct.PLL.PLLMUL = RCC_PLL_MUL12;
 8002af6:	0392      	lsls	r2, r2, #14
  RCC_OscInitStruct.PLL.PREDIV = RCC_PREDIV_DIV1;
  if (HAL_RCC_OscConfig(&RCC_OscInitStruct) != HAL_OK)
 8002af8:	a808      	add	r0, sp, #32
  RCC_OscInitStruct.HSIState = RCC_HSI_ON;
 8002afa:	940b      	str	r4, [sp, #44]	; 0x2c
  RCC_OscInitStruct.HSI14State = RCC_HSI14_ON;
 8002afc:	940d      	str	r4, [sp, #52]	; 0x34
  RCC_OscInitStruct.PLL.PLLState = RCC_PLL_ON;
 8002afe:	9510      	str	r5, [sp, #64]	; 0x40
  RCC_OscInitStruct.PLL.PLLSource = RCC_PLLSOURCE_HSI;
 8002b00:	9311      	str	r3, [sp, #68]	; 0x44
  RCC_OscInitStruct.PLL.PLLMUL = RCC_PLL_MUL12;
 8002b02:	9212      	str	r2, [sp, #72]	; 0x48
  RCC_OscInitStruct.PLL.PREDIV = RCC_PREDIV_DIV1;
 8002b04:	9313      	str	r3, [sp, #76]	; 0x4c
  if (HAL_RCC_OscConfig(&RCC_OscInitStruct) != HAL_OK)
 8002b06:	f7fe fcd1 	bl	80014ac <HAL_RCC_OscConfig>
 8002b0a:	2800      	cmp	r0, #0
 8002b0c:	d000      	beq.n	8002b10 <SystemClock_Config+0x30>
 8002b0e:	e7fe      	b.n	8002b0e <SystemClock_Config+0x2e>
    _Error_Handler(__FILE__, __LINE__);
  }

    /**Initializes the CPU, AHB and APB busses clocks 
    */
  RCC_ClkInitStruct.ClockType = RCC_CLOCKTYPE_HCLK|RCC_CLOCKTYPE_SYSCLK
 8002b10:	2307      	movs	r3, #7
                              |RCC_CLOCKTYPE_PCLK1;
  RCC_ClkInitStruct.SYSCLKSource = RCC_SYSCLKSOURCE_PLLCLK;
  RCC_ClkInitStruct.AHBCLKDivider = RCC_SYSCLK_DIV1;
 8002b12:	9002      	str	r0, [sp, #8]
  RCC_ClkInitStruct.APB1CLKDivider = RCC_HCLK_DIV1;
 8002b14:	9003      	str	r0, [sp, #12]

  if (HAL_RCC_ClockConfig(&RCC_ClkInitStruct, FLASH_LATENCY_1) != HAL_OK)
 8002b16:	2101      	movs	r1, #1
 8002b18:	4668      	mov	r0, sp
  RCC_ClkInitStruct.ClockType = RCC_CLOCKTYPE_HCLK|RCC_CLOCKTYPE_SYSCLK
 8002b1a:	9300      	str	r3, [sp, #0]
  RCC_ClkInitStruct.SYSCLKSource = RCC_SYSCLKSOURCE_PLLCLK;
 8002b1c:	9501      	str	r5, [sp, #4]
  if (HAL_RCC_ClockConfig(&RCC_ClkInitStruct, FLASH_LATENCY_1) != HAL_OK)
 8002b1e:	f7fe fed9 	bl	80018d4 <HAL_RCC_ClockConfig>
 8002b22:	2800      	cmp	r0, #0
 8002b24:	d000      	beq.n	8002b28 <SystemClock_Config+0x48>
 8002b26:	e7fe      	b.n	8002b26 <SystemClock_Config+0x46>
  {
    _Error_Handler(__FILE__, __LINE__);
  }

  PeriphClkInit.PeriphClockSelection = RCC_PERIPHCLK_USART1;
  PeriphClkInit.Usart1ClockSelection = RCC_USART1CLKSOURCE_PCLK1;
 8002b28:	9006      	str	r0, [sp, #24]
  if (HAL_RCCEx_PeriphCLKConfig(&PeriphClkInit) != HAL_OK)
 8002b2a:	a804      	add	r0, sp, #16
  PeriphClkInit.PeriphClockSelection = RCC_PERIPHCLK_USART1;
 8002b2c:	9404      	str	r4, [sp, #16]
  if (HAL_RCCEx_PeriphCLKConfig(&PeriphClkInit) != HAL_OK)
 8002b2e:	f7fe ff7d 	bl	8001a2c <HAL_RCCEx_PeriphCLKConfig>
 8002b32:	2800      	cmp	r0, #0
 8002b34:	d000      	beq.n	8002b38 <SystemClock_Config+0x58>
 8002b36:	e7fe      	b.n	8002b36 <SystemClock_Config+0x56>
    _Error_Handler(__FILE__, __LINE__);
  }

    /**Configure the Systick interrupt time 
    */
  HAL_SYSTICK_Config(HAL_RCC_GetHCLKFreq()/1000);
 8002b38:	f7fe ff62 	bl	8001a00 <HAL_RCC_GetHCLKFreq>
 8002b3c:	21fa      	movs	r1, #250	; 0xfa
 8002b3e:	0089      	lsls	r1, r1, #2
 8002b40:	f7fd faf4 	bl	800012c <__udivsi3>
 8002b44:	f7fe fade 	bl	8001104 <HAL_SYSTICK_Config>

    /**Configure the Systick 
    */
  HAL_SYSTICK_CLKSourceConfig(SYSTICK_CLKSOURCE_HCLK);
 8002b48:	2004      	movs	r0, #4
 8002b4a:	f7fe faf5 	bl	8001138 <HAL_SYSTICK_CLKSourceConfig>

  /* SysTick_IRQn interrupt configuration */
  HAL_NVIC_SetPriority(SysTick_IRQn, 0, 0);
 8002b4e:	2001      	movs	r0, #1
 8002b50:	2200      	movs	r2, #0
 8002b52:	2100      	movs	r1, #0
 8002b54:	4240      	negs	r0, r0
 8002b56:	f7fe fa9b 	bl	8001090 <HAL_NVIC_SetPriority>
}
 8002b5a:	b015      	add	sp, #84	; 0x54
 8002b5c:	bd30      	pop	{r4, r5, pc}
 8002b5e:	46c0      	nop			; (mov r8, r8)

08002b60 <main>:
{
 8002b60:	b570      	push	{r4, r5, r6, lr}
 8002b62:	b08c      	sub	sp, #48	; 0x30
  HAL_Init();
 8002b64:	f7fe f822 	bl	8000bac <HAL_Init>
  SystemClock_Config();
 8002b68:	f7ff ffba 	bl	8002ae0 <SystemClock_Config>
{

  GPIO_InitTypeDef GPIO_InitStruct;

  /* GPIO Ports Clock Enable */
  __HAL_RCC_GPIOA_CLK_ENABLE();
 8002b6c:	2180      	movs	r1, #128	; 0x80
 8002b6e:	4c75      	ldr	r4, [pc, #468]	; (8002d44 <main+0x1e4>)
 8002b70:	0289      	lsls	r1, r1, #10
 8002b72:	6962      	ldr	r2, [r4, #20]
  __HAL_RCC_GPIOB_CLK_ENABLE();

  /*Configure GPIO pin Output Level */
  HAL_GPIO_WritePin(GPIOA, DEBUG_LED1_Pin|DEBUG_LED2_Pin|MOTOR_DIR_Pin, GPIO_PIN_RESET);
 8002b74:	2090      	movs	r0, #144	; 0x90
  __HAL_RCC_GPIOA_CLK_ENABLE();
 8002b76:	430a      	orrs	r2, r1
 8002b78:	6162      	str	r2, [r4, #20]
 8002b7a:	6963      	ldr	r3, [r4, #20]
  HAL_GPIO_WritePin(GPIOA, DEBUG_LED1_Pin|DEBUG_LED2_Pin|MOTOR_DIR_Pin, GPIO_PIN_RESET);
 8002b7c:	05c0      	lsls	r0, r0, #23
  __HAL_RCC_GPIOA_CLK_ENABLE();
 8002b7e:	400b      	ands	r3, r1
  __HAL_RCC_GPIOB_CLK_ENABLE();
 8002b80:	2180      	movs	r1, #128	; 0x80
  __HAL_RCC_GPIOA_CLK_ENABLE();
 8002b82:	9301      	str	r3, [sp, #4]
 8002b84:	9b01      	ldr	r3, [sp, #4]
  __HAL_RCC_GPIOB_CLK_ENABLE();
 8002b86:	6962      	ldr	r2, [r4, #20]
 8002b88:	02c9      	lsls	r1, r1, #11
 8002b8a:	430a      	orrs	r2, r1
 8002b8c:	6162      	str	r2, [r4, #20]
 8002b8e:	6963      	ldr	r3, [r4, #20]
  HAL_GPIO_WritePin(GPIOA, DEBUG_LED1_Pin|DEBUG_LED2_Pin|MOTOR_DIR_Pin, GPIO_PIN_RESET);
 8002b90:	2200      	movs	r2, #0
  __HAL_RCC_GPIOB_CLK_ENABLE();
 8002b92:	400b      	ands	r3, r1
 8002b94:	9302      	str	r3, [sp, #8]
  HAL_GPIO_WritePin(GPIOA, DEBUG_LED1_Pin|DEBUG_LED2_Pin|MOTOR_DIR_Pin, GPIO_PIN_RESET);
 8002b96:	2138      	movs	r1, #56	; 0x38
  __HAL_RCC_GPIOB_CLK_ENABLE();
 8002b98:	9b02      	ldr	r3, [sp, #8]
  HAL_GPIO_WritePin(GPIOA, DEBUG_LED1_Pin|DEBUG_LED2_Pin|MOTOR_DIR_Pin, GPIO_PIN_RESET);
 8002b9a:	f7fe fc75 	bl	8001488 <HAL_GPIO_WritePin>
  /*Configure GPIO pins : DEBUG_LED1_Pin DEBUG_LED2_Pin MOTOR_DIR_Pin */
  GPIO_InitStruct.Pin = DEBUG_LED1_Pin|DEBUG_LED2_Pin|MOTOR_DIR_Pin;
  GPIO_InitStruct.Mode = GPIO_MODE_OUTPUT_PP;
  GPIO_InitStruct.Pull = GPIO_NOPULL;
  GPIO_InitStruct.Speed = GPIO_SPEED_FREQ_LOW;
  HAL_GPIO_Init(GPIOA, &GPIO_InitStruct);
 8002b9e:	2090      	movs	r0, #144	; 0x90
  GPIO_InitStruct.Pull = GPIO_NOPULL;
 8002ba0:	2500      	movs	r5, #0
  GPIO_InitStruct.Mode = GPIO_MODE_OUTPUT_PP;
 8002ba2:	2601      	movs	r6, #1
  GPIO_InitStruct.Pin = DEBUG_LED1_Pin|DEBUG_LED2_Pin|MOTOR_DIR_Pin;
 8002ba4:	2338      	movs	r3, #56	; 0x38
  HAL_GPIO_Init(GPIOA, &GPIO_InitStruct);
 8002ba6:	a905      	add	r1, sp, #20
 8002ba8:	05c0      	lsls	r0, r0, #23
  GPIO_InitStruct.Pin = DEBUG_LED1_Pin|DEBUG_LED2_Pin|MOTOR_DIR_Pin;
 8002baa:	9305      	str	r3, [sp, #20]
  GPIO_InitStruct.Mode = GPIO_MODE_OUTPUT_PP;
 8002bac:	9606      	str	r6, [sp, #24]
  GPIO_InitStruct.Pull = GPIO_NOPULL;
 8002bae:	9507      	str	r5, [sp, #28]
  GPIO_InitStruct.Speed = GPIO_SPEED_FREQ_LOW;
 8002bb0:	9508      	str	r5, [sp, #32]
  HAL_GPIO_Init(GPIOA, &GPIO_InitStruct);
 8002bb2:	f7fe fbb3 	bl	800131c <HAL_GPIO_Init>

  /*Configure GPIO pin : ENCODER_Pin */
  GPIO_InitStruct.Pin = ENCODER_Pin;
 8002bb6:	2310      	movs	r3, #16
 8002bb8:	9305      	str	r3, [sp, #20]
  GPIO_InitStruct.Mode = GPIO_MODE_IT_RISING_FALLING;
 8002bba:	4b63      	ldr	r3, [pc, #396]	; (8002d48 <main+0x1e8>)
  GPIO_InitStruct.Pull = GPIO_NOPULL;
  HAL_GPIO_Init(ENCODER_GPIO_Port, &GPIO_InitStruct);
 8002bbc:	a905      	add	r1, sp, #20
 8002bbe:	4863      	ldr	r0, [pc, #396]	; (8002d4c <main+0x1ec>)
  GPIO_InitStruct.Mode = GPIO_MODE_IT_RISING_FALLING;
 8002bc0:	9306      	str	r3, [sp, #24]
  GPIO_InitStruct.Pull = GPIO_NOPULL;
 8002bc2:	9507      	str	r5, [sp, #28]
  HAL_GPIO_Init(ENCODER_GPIO_Port, &GPIO_InitStruct);
 8002bc4:	f7fe fbaa 	bl	800131c <HAL_GPIO_Init>

  /*Configure GPIO pin : DIR_Pin */
  GPIO_InitStruct.Pin = DIR_Pin;
 8002bc8:	2320      	movs	r3, #32
  GPIO_InitStruct.Mode = GPIO_MODE_INPUT;
  GPIO_InitStruct.Pull = GPIO_NOPULL;
  HAL_GPIO_Init(DIR_GPIO_Port, &GPIO_InitStruct);
 8002bca:	a905      	add	r1, sp, #20
 8002bcc:	485f      	ldr	r0, [pc, #380]	; (8002d4c <main+0x1ec>)
  GPIO_InitStruct.Pin = DIR_Pin;
 8002bce:	9305      	str	r3, [sp, #20]
  GPIO_InitStruct.Mode = GPIO_MODE_INPUT;
 8002bd0:	9506      	str	r5, [sp, #24]
  GPIO_InitStruct.Pull = GPIO_NOPULL;
 8002bd2:	9507      	str	r5, [sp, #28]
  HAL_GPIO_Init(DIR_GPIO_Port, &GPIO_InitStruct);
 8002bd4:	f7fe fba2 	bl	800131c <HAL_GPIO_Init>

  /* EXTI interrupt init*/
  HAL_NVIC_SetPriority(EXTI4_15_IRQn, 0, 0);
 8002bd8:	2200      	movs	r2, #0
 8002bda:	2100      	movs	r1, #0
 8002bdc:	2007      	movs	r0, #7
 8002bde:	f7fe fa57 	bl	8001090 <HAL_NVIC_SetPriority>
  HAL_NVIC_EnableIRQ(EXTI4_15_IRQn);
 8002be2:	2007      	movs	r0, #7
 8002be4:	f7fe fa84 	bl	80010f0 <HAL_NVIC_EnableIRQ>
  __HAL_RCC_DMA1_CLK_ENABLE();
 8002be8:	6963      	ldr	r3, [r4, #20]
  HAL_NVIC_SetPriority(DMA1_Channel1_IRQn, 1, 0);
 8002bea:	2200      	movs	r2, #0
  __HAL_RCC_DMA1_CLK_ENABLE();
 8002bec:	4333      	orrs	r3, r6
 8002bee:	6163      	str	r3, [r4, #20]
 8002bf0:	6963      	ldr	r3, [r4, #20]
  HAL_NVIC_SetPriority(DMA1_Channel1_IRQn, 1, 0);
 8002bf2:	2101      	movs	r1, #1
  __HAL_RCC_DMA1_CLK_ENABLE();
 8002bf4:	4033      	ands	r3, r6
 8002bf6:	9300      	str	r3, [sp, #0]
  HAL_NVIC_SetPriority(DMA1_Channel1_IRQn, 1, 0);
 8002bf8:	2009      	movs	r0, #9
  __HAL_RCC_DMA1_CLK_ENABLE();
 8002bfa:	9b00      	ldr	r3, [sp, #0]
  HAL_NVIC_SetPriority(DMA1_Channel1_IRQn, 1, 0);
 8002bfc:	f7fe fa48 	bl	8001090 <HAL_NVIC_SetPriority>
  HAL_NVIC_EnableIRQ(DMA1_Channel1_IRQn);
 8002c00:	2009      	movs	r0, #9
 8002c02:	f7fe fa75 	bl	80010f0 <HAL_NVIC_EnableIRQ>
  HAL_NVIC_SetPriority(DMA1_Channel2_3_IRQn, 1, 0);
 8002c06:	2200      	movs	r2, #0
 8002c08:	2101      	movs	r1, #1
 8002c0a:	200a      	movs	r0, #10
 8002c0c:	f7fe fa40 	bl	8001090 <HAL_NVIC_SetPriority>
  HAL_NVIC_EnableIRQ(DMA1_Channel2_3_IRQn);
 8002c10:	200a      	movs	r0, #10
 8002c12:	f7fe fa6d 	bl	80010f0 <HAL_NVIC_EnableIRQ>
  hadc.Instance = ADC1;
 8002c16:	4c4e      	ldr	r4, [pc, #312]	; (8002d50 <main+0x1f0>)
 8002c18:	4b4e      	ldr	r3, [pc, #312]	; (8002d54 <main+0x1f4>)
  if (HAL_ADC_Init(&hadc) != HAL_OK)
 8002c1a:	0020      	movs	r0, r4
  hadc.Instance = ADC1;
 8002c1c:	6023      	str	r3, [r4, #0]
  hadc.Init.EOCSelection = ADC_EOC_SINGLE_CONV;
 8002c1e:	2304      	movs	r3, #4
 8002c20:	6163      	str	r3, [r4, #20]
  hadc.Init.ExternalTrigConv = ADC_SOFTWARE_START;
 8002c22:	23c2      	movs	r3, #194	; 0xc2
 8002c24:	33ff      	adds	r3, #255	; 0xff
  hadc.Init.ClockPrescaler = ADC_CLOCK_ASYNC_DIV1;
 8002c26:	6065      	str	r5, [r4, #4]
  hadc.Init.Resolution = ADC_RESOLUTION_12B;
 8002c28:	60a5      	str	r5, [r4, #8]
  hadc.Init.DataAlign = ADC_DATAALIGN_RIGHT;
 8002c2a:	60e5      	str	r5, [r4, #12]
  hadc.Init.ScanConvMode = ADC_SCAN_DIRECTION_FORWARD;
 8002c2c:	6126      	str	r6, [r4, #16]
  hadc.Init.LowPowerAutoWait = DISABLE;
 8002c2e:	61a5      	str	r5, [r4, #24]
  hadc.Init.LowPowerAutoPowerOff = DISABLE;
 8002c30:	61e5      	str	r5, [r4, #28]
  hadc.Init.ContinuousConvMode = ENABLE;
 8002c32:	6226      	str	r6, [r4, #32]
  hadc.Init.DiscontinuousConvMode = DISABLE;
 8002c34:	6265      	str	r5, [r4, #36]	; 0x24
  hadc.Init.ExternalTrigConv = ADC_SOFTWARE_START;
 8002c36:	62a3      	str	r3, [r4, #40]	; 0x28
  hadc.Init.ExternalTrigConvEdge = ADC_EXTERNALTRIGCONVEDGE_NONE;
 8002c38:	62e5      	str	r5, [r4, #44]	; 0x2c
  hadc.Init.DMAContinuousRequests = ENABLE;
 8002c3a:	6326      	str	r6, [r4, #48]	; 0x30
  hadc.Init.Overrun = ADC_OVR_DATA_PRESERVED;
 8002c3c:	6366      	str	r6, [r4, #52]	; 0x34
  if (HAL_ADC_Init(&hadc) != HAL_OK)
 8002c3e:	f7fe f81f 	bl	8000c80 <HAL_ADC_Init>
 8002c42:	2800      	cmp	r0, #0
 8002c44:	d000      	beq.n	8002c48 <main+0xe8>
 8002c46:	e7fe      	b.n	8002c46 <main+0xe6>
  sConfig.Channel = ADC_CHANNEL_8;
 8002c48:	2308      	movs	r3, #8
 8002c4a:	9305      	str	r3, [sp, #20]
  sConfig.Rank = ADC_RANK_CHANNEL_NUMBER;
 8002c4c:	2380      	movs	r3, #128	; 0x80
 8002c4e:	015b      	lsls	r3, r3, #5
 8002c50:	9306      	str	r3, [sp, #24]
  sConfig.SamplingTime = ADC_SAMPLETIME_239CYCLES_5;
 8002c52:	2307      	movs	r3, #7
  if (HAL_ADC_ConfigChannel(&hadc, &sConfig) != HAL_OK)
 8002c54:	a905      	add	r1, sp, #20
 8002c56:	0020      	movs	r0, r4
  sConfig.SamplingTime = ADC_SAMPLETIME_239CYCLES_5;
 8002c58:	9307      	str	r3, [sp, #28]
  if (HAL_ADC_ConfigChannel(&hadc, &sConfig) != HAL_OK)
 8002c5a:	f7fe f94f 	bl	8000efc <HAL_ADC_ConfigChannel>
 8002c5e:	2800      	cmp	r0, #0
 8002c60:	d000      	beq.n	8002c64 <main+0x104>
 8002c62:	e7fe      	b.n	8002c62 <main+0x102>
  sConfig.Channel = ADC_CHANNEL_9;
 8002c64:	2309      	movs	r3, #9
  if (HAL_ADC_ConfigChannel(&hadc, &sConfig) != HAL_OK)
 8002c66:	a905      	add	r1, sp, #20
 8002c68:	0020      	movs	r0, r4
  sConfig.Channel = ADC_CHANNEL_9;
 8002c6a:	9305      	str	r3, [sp, #20]
  if (HAL_ADC_ConfigChannel(&hadc, &sConfig) != HAL_OK)
 8002c6c:	f7fe f946 	bl	8000efc <HAL_ADC_ConfigChannel>
 8002c70:	2800      	cmp	r0, #0
 8002c72:	d000      	beq.n	8002c76 <main+0x116>
 8002c74:	e7fe      	b.n	8002c74 <main+0x114>
  huart1.Instance = USART1;
 8002c76:	4b38      	ldr	r3, [pc, #224]	; (8002d58 <main+0x1f8>)
 8002c78:	4a38      	ldr	r2, [pc, #224]	; (8002d5c <main+0x1fc>)
  huart1.Init.WordLength = UART_WORDLENGTH_8B;
 8002c7a:	6098      	str	r0, [r3, #8]
  huart1.Instance = USART1;
 8002c7c:	601a      	str	r2, [r3, #0]
  huart1.Init.BaudRate = 230400;
 8002c7e:	22e1      	movs	r2, #225	; 0xe1
 8002c80:	0292      	lsls	r2, r2, #10
 8002c82:	605a      	str	r2, [r3, #4]
  huart1.Init.Mode = UART_MODE_TX_RX;
 8002c84:	220c      	movs	r2, #12
  huart1.Init.StopBits = UART_STOPBITS_1;
 8002c86:	60d8      	str	r0, [r3, #12]
  huart1.Init.Parity = UART_PARITY_NONE;
 8002c88:	6118      	str	r0, [r3, #16]
  huart1.Init.HwFlowCtl = UART_HWCONTROL_NONE;
 8002c8a:	6198      	str	r0, [r3, #24]
  huart1.Init.OverSampling = UART_OVERSAMPLING_16;
 8002c8c:	61d8      	str	r0, [r3, #28]
  huart1.Init.OneBitSampling = UART_ONE_BIT_SAMPLE_DISABLE;
 8002c8e:	6218      	str	r0, [r3, #32]
  huart1.AdvancedInit.AdvFeatureInit = UART_ADVFEATURE_NO_INIT;
 8002c90:	6258      	str	r0, [r3, #36]	; 0x24
  if (HAL_UART_Init(&huart1) != HAL_OK)
 8002c92:	0018      	movs	r0, r3
  huart1.Init.Mode = UART_MODE_TX_RX;
 8002c94:	615a      	str	r2, [r3, #20]
  if (HAL_UART_Init(&huart1) != HAL_OK)
 8002c96:	f7ff fc49 	bl	800252c <HAL_UART_Init>
 8002c9a:	2800      	cmp	r0, #0
 8002c9c:	d000      	beq.n	8002ca0 <main+0x140>
 8002c9e:	e7fe      	b.n	8002c9e <main+0x13e>
  htim3.Instance = TIM3;
 8002ca0:	4c2f      	ldr	r4, [pc, #188]	; (8002d60 <main+0x200>)
 8002ca2:	4b30      	ldr	r3, [pc, #192]	; (8002d64 <main+0x204>)
  htim3.Init.CounterMode = TIM_COUNTERMODE_UP;
 8002ca4:	60a0      	str	r0, [r4, #8]
  htim3.Instance = TIM3;
 8002ca6:	6023      	str	r3, [r4, #0]
  htim3.Init.Prescaler = 48;
 8002ca8:	2330      	movs	r3, #48	; 0x30
  htim3.Init.ClockDivision = TIM_CLOCKDIVISION_DIV1;
 8002caa:	6120      	str	r0, [r4, #16]
  htim3.Init.Prescaler = 48;
 8002cac:	6063      	str	r3, [r4, #4]
  htim3.Init.AutoReloadPreload = TIM_AUTORELOAD_PRELOAD_DISABLE;
 8002cae:	61a0      	str	r0, [r4, #24]
  htim3.Init.Period = 99;
 8002cb0:	3333      	adds	r3, #51	; 0x33
  if (HAL_TIM_PWM_Init(&htim3) != HAL_OK)
 8002cb2:	0020      	movs	r0, r4
  htim3.Init.Period = 99;
 8002cb4:	60e3      	str	r3, [r4, #12]
  if (HAL_TIM_PWM_Init(&htim3) != HAL_OK)
 8002cb6:	f7ff f8f8 	bl	8001eaa <HAL_TIM_PWM_Init>
 8002cba:	2800      	cmp	r0, #0
 8002cbc:	d000      	beq.n	8002cc0 <main+0x160>
 8002cbe:	e7fe      	b.n	8002cbe <main+0x15e>
  sMasterConfig.MasterOutputTrigger = TIM_TRGO_RESET;
 8002cc0:	9003      	str	r0, [sp, #12]
  sMasterConfig.MasterSlaveMode = TIM_MASTERSLAVEMODE_DISABLE;
 8002cc2:	9004      	str	r0, [sp, #16]
  if (HAL_TIMEx_MasterConfigSynchronization(&htim3, &sMasterConfig) != HAL_OK)
 8002cc4:	a903      	add	r1, sp, #12
 8002cc6:	0020      	movs	r0, r4
 8002cc8:	f7ff f9fa 	bl	80020c0 <HAL_TIMEx_MasterConfigSynchronization>
 8002ccc:	2800      	cmp	r0, #0
 8002cce:	d000      	beq.n	8002cd2 <main+0x172>
 8002cd0:	e7fe      	b.n	8002cd0 <main+0x170>
  sConfigOC.OCMode = TIM_OCMODE_PWM1;
 8002cd2:	2360      	movs	r3, #96	; 0x60
  sConfigOC.Pulse = 0;
 8002cd4:	9006      	str	r0, [sp, #24]
  sConfigOC.OCPolarity = TIM_OCPOLARITY_HIGH;
 8002cd6:	9007      	str	r0, [sp, #28]
  sConfigOC.OCFastMode = TIM_OCFAST_DISABLE;
 8002cd8:	9009      	str	r0, [sp, #36]	; 0x24
  if (HAL_TIM_PWM_ConfigChannel(&htim3, &sConfigOC, TIM_CHANNEL_2) != HAL_OK)
 8002cda:	2204      	movs	r2, #4
 8002cdc:	a905      	add	r1, sp, #20
 8002cde:	0020      	movs	r0, r4
  sConfigOC.OCMode = TIM_OCMODE_PWM1;
 8002ce0:	9305      	str	r3, [sp, #20]
  if (HAL_TIM_PWM_ConfigChannel(&htim3, &sConfigOC, TIM_CHANNEL_2) != HAL_OK)
 8002ce2:	f7ff f939 	bl	8001f58 <HAL_TIM_PWM_ConfigChannel>
 8002ce6:	1e05      	subs	r5, r0, #0
 8002ce8:	d000      	beq.n	8002cec <main+0x18c>
 8002cea:	e7fe      	b.n	8002cea <main+0x18a>
  HAL_TIM_MspPostInit(&htim3);
 8002cec:	0020      	movs	r0, r4
 8002cee:	f000 f8f5 	bl	8002edc <HAL_TIM_MspPostInit>
  htim14.Instance = TIM14;
 8002cf2:	481d      	ldr	r0, [pc, #116]	; (8002d68 <main+0x208>)
 8002cf4:	4b1d      	ldr	r3, [pc, #116]	; (8002d6c <main+0x20c>)
  htim14.Init.Period = 1000;
 8002cf6:	24fa      	movs	r4, #250	; 0xfa
  htim14.Instance = TIM14;
 8002cf8:	6003      	str	r3, [r0, #0]
  htim14.Init.Prescaler = 192;
 8002cfa:	23c0      	movs	r3, #192	; 0xc0
  htim14.Init.Period = 1000;
 8002cfc:	00a4      	lsls	r4, r4, #2
  htim14.Init.Prescaler = 192;
 8002cfe:	6043      	str	r3, [r0, #4]
  htim14.Init.CounterMode = TIM_COUNTERMODE_UP;
 8002d00:	6085      	str	r5, [r0, #8]
  htim14.Init.Period = 1000;
 8002d02:	60c4      	str	r4, [r0, #12]
  htim14.Init.ClockDivision = TIM_CLOCKDIVISION_DIV1;
 8002d04:	6105      	str	r5, [r0, #16]
  htim14.Init.AutoReloadPreload = TIM_AUTORELOAD_PRELOAD_DISABLE;
 8002d06:	6185      	str	r5, [r0, #24]
  if (HAL_TIM_Base_Init(&htim14) != HAL_OK)
 8002d08:	f7ff f8b4 	bl	8001e74 <HAL_TIM_Base_Init>
 8002d0c:	2800      	cmp	r0, #0
 8002d0e:	d000      	beq.n	8002d12 <main+0x1b2>
 8002d10:	e7fe      	b.n	8002d10 <main+0x1b0>
  htim16.Instance = TIM16;
 8002d12:	4b17      	ldr	r3, [pc, #92]	; (8002d70 <main+0x210>)
 8002d14:	4a17      	ldr	r2, [pc, #92]	; (8002d74 <main+0x214>)
  htim16.Init.CounterMode = TIM_COUNTERMODE_UP;
 8002d16:	6098      	str	r0, [r3, #8]
  htim16.Instance = TIM16;
 8002d18:	601a      	str	r2, [r3, #0]
  htim16.Init.Prescaler = 384;
 8002d1a:	22c0      	movs	r2, #192	; 0xc0
  htim16.Init.ClockDivision = TIM_CLOCKDIVISION_DIV1;
 8002d1c:	6118      	str	r0, [r3, #16]
  htim16.Init.Prescaler = 384;
 8002d1e:	0052      	lsls	r2, r2, #1
  htim16.Init.RepetitionCounter = 0;
 8002d20:	6158      	str	r0, [r3, #20]
  htim16.Init.AutoReloadPreload = TIM_AUTORELOAD_PRELOAD_DISABLE;
 8002d22:	6198      	str	r0, [r3, #24]
  if (HAL_TIM_Base_Init(&htim16) != HAL_OK)
 8002d24:	0018      	movs	r0, r3
  htim16.Init.Prescaler = 384;
 8002d26:	605a      	str	r2, [r3, #4]
  htim16.Init.Period = 1000;
 8002d28:	60dc      	str	r4, [r3, #12]
  if (HAL_TIM_Base_Init(&htim16) != HAL_OK)
 8002d2a:	f7ff f8a3 	bl	8001e74 <HAL_TIM_Base_Init>
 8002d2e:	2800      	cmp	r0, #0
 8002d30:	d000      	beq.n	8002d34 <main+0x1d4>
 8002d32:	e7fe      	b.n	8002d32 <main+0x1d2>
  init_variables();
 8002d34:	f7ff fe52 	bl	80029dc <init_variables>
  startPeripherals();
 8002d38:	f7ff fe1c 	bl	8002974 <startPeripherals>
	  user_main();
 8002d3c:	f000 fb5e 	bl	80033fc <user_main>
 8002d40:	e7fc      	b.n	8002d3c <main+0x1dc>
 8002d42:	46c0      	nop			; (mov r8, r8)
 8002d44:	40021000 	.word	0x40021000
 8002d48:	10310000 	.word	0x10310000
 8002d4c:	48000400 	.word	0x48000400
 8002d50:	20000444 	.word	0x20000444
 8002d54:	40012400 	.word	0x40012400
 8002d58:	20000350 	.word	0x20000350
 8002d5c:	40013800 	.word	0x40013800
 8002d60:	200002cc 	.word	0x200002cc
 8002d64:	40000400 	.word	0x40000400
 8002d68:	200003c0 	.word	0x200003c0
 8002d6c:	40002000 	.word	0x40002000
 8002d70:	20000490 	.word	0x20000490
 8002d74:	40014400 	.word	0x40014400

08002d78 <_Error_Handler>:
  * @param  file: The file name as string.
  * @param  line: The line in file as a number.
  * @retval None
  */
void _Error_Handler(char *file, int line)
{
 8002d78:	e7fe      	b.n	8002d78 <_Error_Handler>
 8002d7a:	46c0      	nop			; (mov r8, r8)

08002d7c <HAL_MspInit>:
/* USER CODE END 0 */
/**
  * Initializes the Global MSP.
  */
void HAL_MspInit(void)
{
 8002d7c:	b507      	push	{r0, r1, r2, lr}
  /* USER CODE BEGIN MspInit 0 */

  /* USER CODE END MspInit 0 */

  __HAL_RCC_SYSCFG_CLK_ENABLE();
 8002d7e:	2001      	movs	r0, #1
 8002d80:	4a0c      	ldr	r2, [pc, #48]	; (8002db4 <HAL_MspInit+0x38>)
 8002d82:	6991      	ldr	r1, [r2, #24]
 8002d84:	4301      	orrs	r1, r0
 8002d86:	6191      	str	r1, [r2, #24]
 8002d88:	6993      	ldr	r3, [r2, #24]

  /* System interrupt init*/
  /* SVC_IRQn interrupt configuration */
  HAL_NVIC_SetPriority(SVC_IRQn, 0, 0);
 8002d8a:	2200      	movs	r2, #0
  __HAL_RCC_SYSCFG_CLK_ENABLE();
 8002d8c:	4003      	ands	r3, r0
  HAL_NVIC_SetPriority(SVC_IRQn, 0, 0);
 8002d8e:	0011      	movs	r1, r2
  __HAL_RCC_SYSCFG_CLK_ENABLE();
 8002d90:	9301      	str	r3, [sp, #4]
  HAL_NVIC_SetPriority(SVC_IRQn, 0, 0);
 8002d92:	3806      	subs	r0, #6
  __HAL_RCC_SYSCFG_CLK_ENABLE();
 8002d94:	9b01      	ldr	r3, [sp, #4]
  HAL_NVIC_SetPriority(SVC_IRQn, 0, 0);
 8002d96:	f7fe f97b 	bl	8001090 <HAL_NVIC_SetPriority>
  /* PendSV_IRQn interrupt configuration */
  HAL_NVIC_SetPriority(PendSV_IRQn, 0, 0);
 8002d9a:	2200      	movs	r2, #0
 8002d9c:	2002      	movs	r0, #2
 8002d9e:	0011      	movs	r1, r2
 8002da0:	4240      	negs	r0, r0
 8002da2:	f7fe f975 	bl	8001090 <HAL_NVIC_SetPriority>
  /* SysTick_IRQn interrupt configuration */
  HAL_NVIC_SetPriority(SysTick_IRQn, 0, 0);
 8002da6:	2200      	movs	r2, #0
 8002da8:	2001      	movs	r0, #1
 8002daa:	0011      	movs	r1, r2
 8002dac:	4240      	negs	r0, r0
 8002dae:	f7fe f96f 	bl	8001090 <HAL_NVIC_SetPriority>

  /* USER CODE BEGIN MspInit 1 */

  /* USER CODE END MspInit 1 */
}
 8002db2:	bd07      	pop	{r0, r1, r2, pc}
 8002db4:	40021000 	.word	0x40021000

08002db8 <HAL_ADC_MspInit>:

void HAL_ADC_MspInit(ADC_HandleTypeDef* hadc)
{
 8002db8:	b5f0      	push	{r4, r5, r6, r7, lr}

  GPIO_InitTypeDef GPIO_InitStruct;
  if(hadc->Instance==ADC1)
 8002dba:	4b1b      	ldr	r3, [pc, #108]	; (8002e28 <HAL_ADC_MspInit+0x70>)
 8002dbc:	6802      	ldr	r2, [r0, #0]
{
 8002dbe:	b087      	sub	sp, #28
 8002dc0:	0005      	movs	r5, r0
  if(hadc->Instance==ADC1)
 8002dc2:	429a      	cmp	r2, r3
 8002dc4:	d12d      	bne.n	8002e22 <HAL_ADC_MspInit+0x6a>
  {
  /* USER CODE BEGIN ADC1_MspInit 0 */

  /* USER CODE END ADC1_MspInit 0 */
    /* Peripheral clock enable */
    __HAL_RCC_ADC1_CLK_ENABLE();
 8002dc6:	2680      	movs	r6, #128	; 0x80
 8002dc8:	4b18      	ldr	r3, [pc, #96]	; (8002e2c <HAL_ADC_MspInit+0x74>)
 8002dca:	00b6      	lsls	r6, r6, #2
 8002dcc:	699a      	ldr	r2, [r3, #24]
    PB0     ------> ADC_IN8
    PB1     ------> ADC_IN9 
    */
    GPIO_InitStruct.Pin = POTENTIOMETER_Pin|CURRENT_Pin;
    GPIO_InitStruct.Mode = GPIO_MODE_ANALOG;
    GPIO_InitStruct.Pull = GPIO_NOPULL;
 8002dce:	2700      	movs	r7, #0
    __HAL_RCC_ADC1_CLK_ENABLE();
 8002dd0:	4332      	orrs	r2, r6
 8002dd2:	619a      	str	r2, [r3, #24]
 8002dd4:	699b      	ldr	r3, [r3, #24]
    HAL_GPIO_Init(GPIOB, &GPIO_InitStruct);
 8002dd6:	4816      	ldr	r0, [pc, #88]	; (8002e30 <HAL_ADC_MspInit+0x78>)
    __HAL_RCC_ADC1_CLK_ENABLE();
 8002dd8:	4033      	ands	r3, r6
 8002dda:	9300      	str	r3, [sp, #0]
 8002ddc:	9b00      	ldr	r3, [sp, #0]
    GPIO_InitStruct.Pin = POTENTIOMETER_Pin|CURRENT_Pin;
 8002dde:	2303      	movs	r3, #3
    HAL_GPIO_Init(GPIOB, &GPIO_InitStruct);
 8002de0:	a901      	add	r1, sp, #4
    GPIO_InitStruct.Pin = POTENTIOMETER_Pin|CURRENT_Pin;
 8002de2:	9301      	str	r3, [sp, #4]
    GPIO_InitStruct.Mode = GPIO_MODE_ANALOG;
 8002de4:	9302      	str	r3, [sp, #8]
    GPIO_InitStruct.Pull = GPIO_NOPULL;
 8002de6:	9703      	str	r7, [sp, #12]
    HAL_GPIO_Init(GPIOB, &GPIO_InitStruct);
 8002de8:	f7fe fa98 	bl	800131c <HAL_GPIO_Init>

    /* ADC1 DMA Init */
    /* ADC Init */
    hdma_adc.Instance = DMA1_Channel1;
 8002dec:	4c11      	ldr	r4, [pc, #68]	; (8002e34 <HAL_ADC_MspInit+0x7c>)
 8002dee:	4b12      	ldr	r3, [pc, #72]	; (8002e38 <HAL_ADC_MspInit+0x80>)
    hdma_adc.Init.MemInc = DMA_MINC_ENABLE;
    hdma_adc.Init.PeriphDataAlignment = DMA_PDATAALIGN_WORD;
    hdma_adc.Init.MemDataAlignment = DMA_MDATAALIGN_WORD;
    hdma_adc.Init.Mode = DMA_CIRCULAR;
    hdma_adc.Init.Priority = DMA_PRIORITY_HIGH;
    if (HAL_DMA_Init(&hdma_adc) != HAL_OK)
 8002df0:	0020      	movs	r0, r4
    hdma_adc.Instance = DMA1_Channel1;
 8002df2:	6023      	str	r3, [r4, #0]
    hdma_adc.Init.MemInc = DMA_MINC_ENABLE;
 8002df4:	2380      	movs	r3, #128	; 0x80
 8002df6:	60e3      	str	r3, [r4, #12]
    hdma_adc.Init.MemDataAlignment = DMA_MDATAALIGN_WORD;
 8002df8:	2380      	movs	r3, #128	; 0x80
 8002dfa:	011b      	lsls	r3, r3, #4
 8002dfc:	6163      	str	r3, [r4, #20]
    hdma_adc.Init.Mode = DMA_CIRCULAR;
 8002dfe:	2320      	movs	r3, #32
 8002e00:	61a3      	str	r3, [r4, #24]
    hdma_adc.Init.Priority = DMA_PRIORITY_HIGH;
 8002e02:	2380      	movs	r3, #128	; 0x80
 8002e04:	019b      	lsls	r3, r3, #6
    hdma_adc.Init.Direction = DMA_PERIPH_TO_MEMORY;
 8002e06:	6067      	str	r7, [r4, #4]
    hdma_adc.Init.PeriphInc = DMA_PINC_DISABLE;
 8002e08:	60a7      	str	r7, [r4, #8]
    hdma_adc.Init.PeriphDataAlignment = DMA_PDATAALIGN_WORD;
 8002e0a:	6126      	str	r6, [r4, #16]
    hdma_adc.Init.Priority = DMA_PRIORITY_HIGH;
 8002e0c:	61e3      	str	r3, [r4, #28]
    if (HAL_DMA_Init(&hdma_adc) != HAL_OK)
 8002e0e:	f7fe f9a7 	bl	8001160 <HAL_DMA_Init>
 8002e12:	42b8      	cmp	r0, r7
 8002e14:	d003      	beq.n	8002e1e <HAL_ADC_MspInit+0x66>
    {
      _Error_Handler(__FILE__, __LINE__);
 8002e16:	216b      	movs	r1, #107	; 0x6b
 8002e18:	4808      	ldr	r0, [pc, #32]	; (8002e3c <HAL_ADC_MspInit+0x84>)
 8002e1a:	f7ff ffad 	bl	8002d78 <_Error_Handler>
    }

    __HAL_LINKDMA(hadc,DMA_Handle,hdma_adc);
 8002e1e:	63ec      	str	r4, [r5, #60]	; 0x3c
 8002e20:	6265      	str	r5, [r4, #36]	; 0x24
  /* USER CODE BEGIN ADC1_MspInit 1 */

  /* USER CODE END ADC1_MspInit 1 */
  }

}
 8002e22:	b007      	add	sp, #28
 8002e24:	bdf0      	pop	{r4, r5, r6, r7, pc}
 8002e26:	46c0      	nop			; (mov r8, r8)
 8002e28:	40012400 	.word	0x40012400
 8002e2c:	40021000 	.word	0x40021000
 8002e30:	48000400 	.word	0x48000400
 8002e34:	20000400 	.word	0x20000400
 8002e38:	40020008 	.word	0x40020008
 8002e3c:	0800403b 	.word	0x0800403b

08002e40 <HAL_TIM_PWM_MspInit>:
  }

}

void HAL_TIM_PWM_MspInit(TIM_HandleTypeDef* htim_pwm)
{
 8002e40:	b507      	push	{r0, r1, r2, lr}

  if(htim_pwm->Instance==TIM3)
 8002e42:	4b0b      	ldr	r3, [pc, #44]	; (8002e70 <HAL_TIM_PWM_MspInit+0x30>)
 8002e44:	6802      	ldr	r2, [r0, #0]
 8002e46:	429a      	cmp	r2, r3
 8002e48:	d110      	bne.n	8002e6c <HAL_TIM_PWM_MspInit+0x2c>
  {
  /* USER CODE BEGIN TIM3_MspInit 0 */

  /* USER CODE END TIM3_MspInit 0 */
    /* Peripheral clock enable */
    __HAL_RCC_TIM3_CLK_ENABLE();
 8002e4a:	2002      	movs	r0, #2
 8002e4c:	4a09      	ldr	r2, [pc, #36]	; (8002e74 <HAL_TIM_PWM_MspInit+0x34>)
 8002e4e:	69d1      	ldr	r1, [r2, #28]
 8002e50:	4301      	orrs	r1, r0
 8002e52:	61d1      	str	r1, [r2, #28]
 8002e54:	69d3      	ldr	r3, [r2, #28]
    /* TIM3 interrupt Init */
    HAL_NVIC_SetPriority(TIM3_IRQn, 1, 0);
 8002e56:	2101      	movs	r1, #1
    __HAL_RCC_TIM3_CLK_ENABLE();
 8002e58:	4003      	ands	r3, r0
 8002e5a:	9301      	str	r3, [sp, #4]
    HAL_NVIC_SetPriority(TIM3_IRQn, 1, 0);
 8002e5c:	300e      	adds	r0, #14
 8002e5e:	2200      	movs	r2, #0
    __HAL_RCC_TIM3_CLK_ENABLE();
 8002e60:	9b01      	ldr	r3, [sp, #4]
    HAL_NVIC_SetPriority(TIM3_IRQn, 1, 0);
 8002e62:	f7fe f915 	bl	8001090 <HAL_NVIC_SetPriority>
    HAL_NVIC_EnableIRQ(TIM3_IRQn);
 8002e66:	2010      	movs	r0, #16
 8002e68:	f7fe f942 	bl	80010f0 <HAL_NVIC_EnableIRQ>
  /* USER CODE BEGIN TIM3_MspInit 1 */

  /* USER CODE END TIM3_MspInit 1 */
  }

}
 8002e6c:	bd07      	pop	{r0, r1, r2, pc}
 8002e6e:	46c0      	nop			; (mov r8, r8)
 8002e70:	40000400 	.word	0x40000400
 8002e74:	40021000 	.word	0x40021000

08002e78 <HAL_TIM_Base_MspInit>:

void HAL_TIM_Base_MspInit(TIM_HandleTypeDef* htim_base)
{
 8002e78:	b507      	push	{r0, r1, r2, lr}

  if(htim_base->Instance==TIM14)
 8002e7a:	6803      	ldr	r3, [r0, #0]
 8002e7c:	4a14      	ldr	r2, [pc, #80]	; (8002ed0 <HAL_TIM_Base_MspInit+0x58>)
 8002e7e:	4293      	cmp	r3, r2
 8002e80:	d112      	bne.n	8002ea8 <HAL_TIM_Base_MspInit+0x30>
  {
  /* USER CODE BEGIN TIM14_MspInit 0 */

  /* USER CODE END TIM14_MspInit 0 */
    /* Peripheral clock enable */
    __HAL_RCC_TIM14_CLK_ENABLE();
 8002e82:	2080      	movs	r0, #128	; 0x80
 8002e84:	4a13      	ldr	r2, [pc, #76]	; (8002ed4 <HAL_TIM_Base_MspInit+0x5c>)
 8002e86:	0040      	lsls	r0, r0, #1
 8002e88:	69d1      	ldr	r1, [r2, #28]
 8002e8a:	4301      	orrs	r1, r0
 8002e8c:	61d1      	str	r1, [r2, #28]
 8002e8e:	69d3      	ldr	r3, [r2, #28]
    /* TIM14 interrupt Init */
    HAL_NVIC_SetPriority(TIM14_IRQn, 1, 0);
 8002e90:	2101      	movs	r1, #1
    __HAL_RCC_TIM14_CLK_ENABLE();
 8002e92:	4003      	ands	r3, r0
 8002e94:	9300      	str	r3, [sp, #0]
    HAL_NVIC_SetPriority(TIM14_IRQn, 1, 0);
 8002e96:	38ed      	subs	r0, #237	; 0xed
 8002e98:	2200      	movs	r2, #0
    __HAL_RCC_TIM14_CLK_ENABLE();
 8002e9a:	9b00      	ldr	r3, [sp, #0]
    HAL_NVIC_SetPriority(TIM14_IRQn, 1, 0);
 8002e9c:	f7fe f8f8 	bl	8001090 <HAL_NVIC_SetPriority>
    HAL_NVIC_EnableIRQ(TIM14_IRQn);
 8002ea0:	2013      	movs	r0, #19
  /* USER CODE END TIM16_MspInit 0 */
    /* Peripheral clock enable */
    __HAL_RCC_TIM16_CLK_ENABLE();
    /* TIM16 interrupt Init */
    HAL_NVIC_SetPriority(TIM16_IRQn, 0, 0);
    HAL_NVIC_EnableIRQ(TIM16_IRQn);
 8002ea2:	f7fe f925 	bl	80010f0 <HAL_NVIC_EnableIRQ>
  /* USER CODE BEGIN TIM16_MspInit 1 */

  /* USER CODE END TIM16_MspInit 1 */
  }

}
 8002ea6:	bd07      	pop	{r0, r1, r2, pc}
  else if(htim_base->Instance==TIM16)
 8002ea8:	4a0b      	ldr	r2, [pc, #44]	; (8002ed8 <HAL_TIM_Base_MspInit+0x60>)
 8002eaa:	4293      	cmp	r3, r2
 8002eac:	d1fb      	bne.n	8002ea6 <HAL_TIM_Base_MspInit+0x2e>
    __HAL_RCC_TIM16_CLK_ENABLE();
 8002eae:	2080      	movs	r0, #128	; 0x80
 8002eb0:	4a08      	ldr	r2, [pc, #32]	; (8002ed4 <HAL_TIM_Base_MspInit+0x5c>)
 8002eb2:	0280      	lsls	r0, r0, #10
 8002eb4:	6991      	ldr	r1, [r2, #24]
 8002eb6:	4301      	orrs	r1, r0
 8002eb8:	6191      	str	r1, [r2, #24]
 8002eba:	6993      	ldr	r3, [r2, #24]
    HAL_NVIC_SetPriority(TIM16_IRQn, 0, 0);
 8002ebc:	2200      	movs	r2, #0
    __HAL_RCC_TIM16_CLK_ENABLE();
 8002ebe:	4003      	ands	r3, r0
 8002ec0:	9301      	str	r3, [sp, #4]
    HAL_NVIC_SetPriority(TIM16_IRQn, 0, 0);
 8002ec2:	2015      	movs	r0, #21
 8002ec4:	0011      	movs	r1, r2
    __HAL_RCC_TIM16_CLK_ENABLE();
 8002ec6:	9b01      	ldr	r3, [sp, #4]
    HAL_NVIC_SetPriority(TIM16_IRQn, 0, 0);
 8002ec8:	f7fe f8e2 	bl	8001090 <HAL_NVIC_SetPriority>
    HAL_NVIC_EnableIRQ(TIM16_IRQn);
 8002ecc:	2015      	movs	r0, #21
 8002ece:	e7e8      	b.n	8002ea2 <HAL_TIM_Base_MspInit+0x2a>
 8002ed0:	40002000 	.word	0x40002000
 8002ed4:	40021000 	.word	0x40021000
 8002ed8:	40014400 	.word	0x40014400

08002edc <HAL_TIM_MspPostInit>:

void HAL_TIM_MspPostInit(TIM_HandleTypeDef* htim)
{
 8002edc:	b57f      	push	{r0, r1, r2, r3, r4, r5, r6, lr}

  GPIO_InitTypeDef GPIO_InitStruct;
  if(htim->Instance==TIM3)
 8002ede:	4b0a      	ldr	r3, [pc, #40]	; (8002f08 <HAL_TIM_MspPostInit+0x2c>)
 8002ee0:	6802      	ldr	r2, [r0, #0]
 8002ee2:	429a      	cmp	r2, r3
 8002ee4:	d10d      	bne.n	8002f02 <HAL_TIM_MspPostInit+0x26>
  /* USER CODE END TIM3_MspPostInit 0 */
  
    /**TIM3 GPIO Configuration    
    PA7     ------> TIM3_CH2 
    */
    GPIO_InitStruct.Pin = PWM_SIGNAL_Pin;
 8002ee6:	2380      	movs	r3, #128	; 0x80
 8002ee8:	9301      	str	r3, [sp, #4]
    GPIO_InitStruct.Mode = GPIO_MODE_AF_PP;
 8002eea:	3b7e      	subs	r3, #126	; 0x7e
 8002eec:	9302      	str	r3, [sp, #8]
    GPIO_InitStruct.Pull = GPIO_NOPULL;
    GPIO_InitStruct.Speed = GPIO_SPEED_FREQ_LOW;
    GPIO_InitStruct.Alternate = GPIO_AF1_TIM3;
    HAL_GPIO_Init(PWM_SIGNAL_GPIO_Port, &GPIO_InitStruct);
 8002eee:	2090      	movs	r0, #144	; 0x90
    GPIO_InitStruct.Pull = GPIO_NOPULL;
 8002ef0:	2300      	movs	r3, #0
    HAL_GPIO_Init(PWM_SIGNAL_GPIO_Port, &GPIO_InitStruct);
 8002ef2:	a901      	add	r1, sp, #4
    GPIO_InitStruct.Pull = GPIO_NOPULL;
 8002ef4:	9303      	str	r3, [sp, #12]
    GPIO_InitStruct.Speed = GPIO_SPEED_FREQ_LOW;
 8002ef6:	9304      	str	r3, [sp, #16]
    HAL_GPIO_Init(PWM_SIGNAL_GPIO_Port, &GPIO_InitStruct);
 8002ef8:	05c0      	lsls	r0, r0, #23
    GPIO_InitStruct.Alternate = GPIO_AF1_TIM3;
 8002efa:	3301      	adds	r3, #1
 8002efc:	9305      	str	r3, [sp, #20]
    HAL_GPIO_Init(PWM_SIGNAL_GPIO_Port, &GPIO_InitStruct);
 8002efe:	f7fe fa0d 	bl	800131c <HAL_GPIO_Init>
  /* USER CODE BEGIN TIM3_MspPostInit 1 */

  /* USER CODE END TIM3_MspPostInit 1 */
  }

}
 8002f02:	b007      	add	sp, #28
 8002f04:	bd00      	pop	{pc}
 8002f06:	46c0      	nop			; (mov r8, r8)
 8002f08:	40000400 	.word	0x40000400

08002f0c <HAL_UART_MspInit>:
  }

}

void HAL_UART_MspInit(UART_HandleTypeDef* huart)
{
 8002f0c:	b570      	push	{r4, r5, r6, lr}

  GPIO_InitTypeDef GPIO_InitStruct;
  if(huart->Instance==USART1)
 8002f0e:	4b22      	ldr	r3, [pc, #136]	; (8002f98 <HAL_UART_MspInit+0x8c>)
 8002f10:	6802      	ldr	r2, [r0, #0]
{
 8002f12:	b086      	sub	sp, #24
 8002f14:	0006      	movs	r6, r0
  if(huart->Instance==USART1)
 8002f16:	429a      	cmp	r2, r3
 8002f18:	d13b      	bne.n	8002f92 <HAL_UART_MspInit+0x86>
  {
  /* USER CODE BEGIN USART1_MspInit 0 */

  /* USER CODE END USART1_MspInit 0 */
    /* Peripheral clock enable */
    __HAL_RCC_USART1_CLK_ENABLE();
 8002f1a:	2080      	movs	r0, #128	; 0x80
 8002f1c:	4a1f      	ldr	r2, [pc, #124]	; (8002f9c <HAL_UART_MspInit+0x90>)
 8002f1e:	01c0      	lsls	r0, r0, #7
 8002f20:	6991      	ldr	r1, [r2, #24]
    PA9     ------> USART1_TX
    PA10     ------> USART1_RX 
    */
    GPIO_InitStruct.Pin = GPIO_PIN_9|GPIO_PIN_10;
    GPIO_InitStruct.Mode = GPIO_MODE_AF_PP;
    GPIO_InitStruct.Pull = GPIO_NOPULL;
 8002f22:	2500      	movs	r5, #0
    __HAL_RCC_USART1_CLK_ENABLE();
 8002f24:	4301      	orrs	r1, r0
 8002f26:	6191      	str	r1, [r2, #24]
 8002f28:	6993      	ldr	r3, [r2, #24]
    GPIO_InitStruct.Speed = GPIO_SPEED_FREQ_HIGH;
    GPIO_InitStruct.Alternate = GPIO_AF1_USART1;
    HAL_GPIO_Init(GPIOA, &GPIO_InitStruct);
 8002f2a:	a901      	add	r1, sp, #4
    __HAL_RCC_USART1_CLK_ENABLE();
 8002f2c:	4003      	ands	r3, r0
 8002f2e:	9300      	str	r3, [sp, #0]
 8002f30:	9b00      	ldr	r3, [sp, #0]
    GPIO_InitStruct.Pin = GPIO_PIN_9|GPIO_PIN_10;
 8002f32:	23c0      	movs	r3, #192	; 0xc0
 8002f34:	00db      	lsls	r3, r3, #3
 8002f36:	9301      	str	r3, [sp, #4]
    GPIO_InitStruct.Mode = GPIO_MODE_AF_PP;
 8002f38:	2302      	movs	r3, #2
    HAL_GPIO_Init(GPIOA, &GPIO_InitStruct);
 8002f3a:	2090      	movs	r0, #144	; 0x90
    GPIO_InitStruct.Mode = GPIO_MODE_AF_PP;
 8002f3c:	9302      	str	r3, [sp, #8]
    GPIO_InitStruct.Speed = GPIO_SPEED_FREQ_HIGH;
 8002f3e:	3301      	adds	r3, #1
 8002f40:	9304      	str	r3, [sp, #16]
    HAL_GPIO_Init(GPIOA, &GPIO_InitStruct);
 8002f42:	05c0      	lsls	r0, r0, #23
    GPIO_InitStruct.Alternate = GPIO_AF1_USART1;
 8002f44:	3b02      	subs	r3, #2
 8002f46:	9305      	str	r3, [sp, #20]
    GPIO_InitStruct.Pull = GPIO_NOPULL;
 8002f48:	9503      	str	r5, [sp, #12]
    HAL_GPIO_Init(GPIOA, &GPIO_InitStruct);
 8002f4a:	f7fe f9e7 	bl	800131c <HAL_GPIO_Init>

    /* USART1 DMA Init */
    /* USART1_TX Init */
    hdma_usart1_tx.Instance = DMA1_Channel2;
 8002f4e:	4c14      	ldr	r4, [pc, #80]	; (8002fa0 <HAL_UART_MspInit+0x94>)
 8002f50:	4b14      	ldr	r3, [pc, #80]	; (8002fa4 <HAL_UART_MspInit+0x98>)
    hdma_usart1_tx.Init.MemInc = DMA_MINC_ENABLE;
    hdma_usart1_tx.Init.PeriphDataAlignment = DMA_PDATAALIGN_BYTE;
    hdma_usart1_tx.Init.MemDataAlignment = DMA_MDATAALIGN_BYTE;
    hdma_usart1_tx.Init.Mode = DMA_NORMAL;
    hdma_usart1_tx.Init.Priority = DMA_PRIORITY_HIGH;
    if (HAL_DMA_Init(&hdma_usart1_tx) != HAL_OK)
 8002f52:	0020      	movs	r0, r4
    hdma_usart1_tx.Instance = DMA1_Channel2;
 8002f54:	6023      	str	r3, [r4, #0]
    hdma_usart1_tx.Init.Direction = DMA_MEMORY_TO_PERIPH;
 8002f56:	2310      	movs	r3, #16
 8002f58:	6063      	str	r3, [r4, #4]
    hdma_usart1_tx.Init.MemInc = DMA_MINC_ENABLE;
 8002f5a:	3370      	adds	r3, #112	; 0x70
 8002f5c:	60e3      	str	r3, [r4, #12]
    hdma_usart1_tx.Init.Priority = DMA_PRIORITY_HIGH;
 8002f5e:	2380      	movs	r3, #128	; 0x80
 8002f60:	019b      	lsls	r3, r3, #6
    hdma_usart1_tx.Init.PeriphInc = DMA_PINC_DISABLE;
 8002f62:	60a5      	str	r5, [r4, #8]
    hdma_usart1_tx.Init.PeriphDataAlignment = DMA_PDATAALIGN_BYTE;
 8002f64:	6125      	str	r5, [r4, #16]
    hdma_usart1_tx.Init.MemDataAlignment = DMA_MDATAALIGN_BYTE;
 8002f66:	6165      	str	r5, [r4, #20]
    hdma_usart1_tx.Init.Mode = DMA_NORMAL;
 8002f68:	61a5      	str	r5, [r4, #24]
    hdma_usart1_tx.Init.Priority = DMA_PRIORITY_HIGH;
 8002f6a:	61e3      	str	r3, [r4, #28]
    if (HAL_DMA_Init(&hdma_usart1_tx) != HAL_OK)
 8002f6c:	f7fe f8f8 	bl	8001160 <HAL_DMA_Init>
 8002f70:	42a8      	cmp	r0, r5
 8002f72:	d004      	beq.n	8002f7e <HAL_UART_MspInit+0x72>
    {
      _Error_Handler(__FILE__, __LINE__);
 8002f74:	213c      	movs	r1, #60	; 0x3c
 8002f76:	480c      	ldr	r0, [pc, #48]	; (8002fa8 <HAL_UART_MspInit+0x9c>)
 8002f78:	31ff      	adds	r1, #255	; 0xff
 8002f7a:	f7ff fefd 	bl	8002d78 <_Error_Handler>
    }

    __HAL_LINKDMA(huart,hdmatx,hdma_usart1_tx);

    /* USART1 interrupt Init */
    HAL_NVIC_SetPriority(USART1_IRQn, 0, 0);
 8002f7e:	2200      	movs	r2, #0
 8002f80:	201b      	movs	r0, #27
    __HAL_LINKDMA(huart,hdmatx,hdma_usart1_tx);
 8002f82:	6634      	str	r4, [r6, #96]	; 0x60
    HAL_NVIC_SetPriority(USART1_IRQn, 0, 0);
 8002f84:	0011      	movs	r1, r2
    __HAL_LINKDMA(huart,hdmatx,hdma_usart1_tx);
 8002f86:	6266      	str	r6, [r4, #36]	; 0x24
    HAL_NVIC_SetPriority(USART1_IRQn, 0, 0);
 8002f88:	f7fe f882 	bl	8001090 <HAL_NVIC_SetPriority>
    HAL_NVIC_EnableIRQ(USART1_IRQn);
 8002f8c:	201b      	movs	r0, #27
 8002f8e:	f7fe f8af 	bl	80010f0 <HAL_NVIC_EnableIRQ>
  /* USER CODE BEGIN USART1_MspInit 1 */

  /* USER CODE END USART1_MspInit 1 */
  }

}
 8002f92:	b006      	add	sp, #24
 8002f94:	bd70      	pop	{r4, r5, r6, pc}
 8002f96:	46c0      	nop			; (mov r8, r8)
 8002f98:	40013800 	.word	0x40013800
 8002f9c:	40021000 	.word	0x40021000
 8002fa0:	2000030c 	.word	0x2000030c
 8002fa4:	4002001c 	.word	0x4002001c
 8002fa8:	0800403b 	.word	0x0800403b

08002fac <NMI_Handler>:
 8002fac:	4770      	bx	lr

08002fae <HardFault_Handler>:

/**
* @brief This function handles Hard fault interrupt.
*/
void HardFault_Handler(void)
{
 8002fae:	e7fe      	b.n	8002fae <HardFault_Handler>

08002fb0 <SVC_Handler>:
 8002fb0:	4770      	bx	lr

08002fb2 <PendSV_Handler>:

  /* USER CODE END PendSV_IRQn 0 */
  /* USER CODE BEGIN PendSV_IRQn 1 */

  /* USER CODE END PendSV_IRQn 1 */
}
 8002fb2:	4770      	bx	lr

08002fb4 <SysTick_Handler>:

/**
* @brief This function handles System tick timer.
*/
void SysTick_Handler(void)
{
 8002fb4:	b510      	push	{r4, lr}
  /* USER CODE BEGIN SysTick_IRQn 0 */

  /* USER CODE END SysTick_IRQn 0 */
  HAL_IncTick();
 8002fb6:	f7fd fe09 	bl	8000bcc <HAL_IncTick>
  HAL_SYSTICK_IRQHandler();
 8002fba:	f7fe f8cc 	bl	8001156 <HAL_SYSTICK_IRQHandler>
  /* USER CODE BEGIN SysTick_IRQn 1 */

  /* USER CODE END SysTick_IRQn 1 */
}
 8002fbe:	bd10      	pop	{r4, pc}

08002fc0 <EXTI4_15_IRQHandler>:

/**
* @brief This function handles EXTI line 4 to 15 interrupts.
*/
void EXTI4_15_IRQHandler(void)
{
 8002fc0:	b510      	push	{r4, lr}
  /* USER CODE BEGIN EXTI4_15_IRQn 0 */

  /* USER CODE END EXTI4_15_IRQn 0 */
  HAL_GPIO_EXTI_IRQHandler(GPIO_PIN_4);
 8002fc2:	2010      	movs	r0, #16
 8002fc4:	f7fe fa66 	bl	8001494 <HAL_GPIO_EXTI_IRQHandler>
  /* USER CODE BEGIN EXTI4_15_IRQn 1 */

  /* USER CODE END EXTI4_15_IRQn 1 */
}
 8002fc8:	bd10      	pop	{r4, pc}
	...

08002fcc <DMA1_Channel1_IRQHandler>:

/**
* @brief This function handles DMA1 channel 1 interrupt.
*/
void DMA1_Channel1_IRQHandler(void)
{
 8002fcc:	b510      	push	{r4, lr}
  /* USER CODE BEGIN DMA1_Channel1_IRQn 0 */

  /* USER CODE END DMA1_Channel1_IRQn 0 */
  HAL_DMA_IRQHandler(&hdma_adc);
 8002fce:	4802      	ldr	r0, [pc, #8]	; (8002fd8 <DMA1_Channel1_IRQHandler+0xc>)
 8002fd0:	f7fe f95a 	bl	8001288 <HAL_DMA_IRQHandler>
  /* USER CODE BEGIN DMA1_Channel1_IRQn 1 */

  /* USER CODE END DMA1_Channel1_IRQn 1 */
}
 8002fd4:	bd10      	pop	{r4, pc}
 8002fd6:	46c0      	nop			; (mov r8, r8)
 8002fd8:	20000400 	.word	0x20000400

08002fdc <DMA1_Channel2_3_IRQHandler>:

/**
* @brief This function handles DMA1 channel 2 and 3 interrupts.
*/
void DMA1_Channel2_3_IRQHandler(void)
{
 8002fdc:	b510      	push	{r4, lr}
  /* USER CODE BEGIN DMA1_Channel2_3_IRQn 0 */

  /* USER CODE END DMA1_Channel2_3_IRQn 0 */
  HAL_DMA_IRQHandler(&hdma_usart1_tx);
 8002fde:	4802      	ldr	r0, [pc, #8]	; (8002fe8 <DMA1_Channel2_3_IRQHandler+0xc>)
 8002fe0:	f7fe f952 	bl	8001288 <HAL_DMA_IRQHandler>
  /* USER CODE BEGIN DMA1_Channel2_3_IRQn 1 */

  /* USER CODE END DMA1_Channel2_3_IRQn 1 */
}
 8002fe4:	bd10      	pop	{r4, pc}
 8002fe6:	46c0      	nop			; (mov r8, r8)
 8002fe8:	2000030c 	.word	0x2000030c

08002fec <TIM3_IRQHandler>:

/**
* @brief This function handles TIM3 global interrupt.
*/
void TIM3_IRQHandler(void)
{
 8002fec:	b510      	push	{r4, lr}
  /* USER CODE BEGIN TIM3_IRQn 0 */

  /* USER CODE END TIM3_IRQn 0 */
  HAL_TIM_IRQHandler(&htim3);
 8002fee:	4802      	ldr	r0, [pc, #8]	; (8002ff8 <TIM3_IRQHandler+0xc>)
 8002ff0:	f7fe fe5b 	bl	8001caa <HAL_TIM_IRQHandler>
  /* USER CODE BEGIN TIM3_IRQn 1 */

  /* USER CODE END TIM3_IRQn 1 */
}
 8002ff4:	bd10      	pop	{r4, pc}
 8002ff6:	46c0      	nop			; (mov r8, r8)
 8002ff8:	200002cc 	.word	0x200002cc

08002ffc <TIM14_IRQHandler>:

/**
* @brief This function handles TIM14 global interrupt.
*/
void TIM14_IRQHandler(void)
{
 8002ffc:	b510      	push	{r4, lr}
  /* USER CODE BEGIN TIM14_IRQn 0 */

  /* USER CODE END TIM14_IRQn 0 */
  HAL_TIM_IRQHandler(&htim14);
 8002ffe:	4802      	ldr	r0, [pc, #8]	; (8003008 <TIM14_IRQHandler+0xc>)
 8003000:	f7fe fe53 	bl	8001caa <HAL_TIM_IRQHandler>
  /* USER CODE BEGIN TIM14_IRQn 1 */

  /* USER CODE END TIM14_IRQn 1 */
}
 8003004:	bd10      	pop	{r4, pc}
 8003006:	46c0      	nop			; (mov r8, r8)
 8003008:	200003c0 	.word	0x200003c0

0800300c <TIM16_IRQHandler>:

/**
* @brief This function handles TIM16 global interrupt.
*/
void TIM16_IRQHandler(void)
{
 800300c:	b510      	push	{r4, lr}
  /* USER CODE BEGIN TIM16_IRQn 0 */

  /* USER CODE END TIM16_IRQn 0 */
  HAL_TIM_IRQHandler(&htim16);
 800300e:	4802      	ldr	r0, [pc, #8]	; (8003018 <TIM16_IRQHandler+0xc>)
 8003010:	f7fe fe4b 	bl	8001caa <HAL_TIM_IRQHandler>
  /* USER CODE BEGIN TIM16_IRQn 1 */

  /* USER CODE END TIM16_IRQn 1 */
}
 8003014:	bd10      	pop	{r4, pc}
 8003016:	46c0      	nop			; (mov r8, r8)
 8003018:	20000490 	.word	0x20000490

0800301c <USART1_IRQHandler>:

/**
* @brief This function handles USART1 global interrupt.
*/
void USART1_IRQHandler(void)
{
 800301c:	b510      	push	{r4, lr}
  /* USER CODE BEGIN USART1_IRQn 0 */

  /* USER CODE END USART1_IRQn 0 */
  HAL_UART_IRQHandler(&huart1);
 800301e:	4802      	ldr	r0, [pc, #8]	; (8003028 <USART1_IRQHandler+0xc>)
 8003020:	f7ff fb3e 	bl	80026a0 <HAL_UART_IRQHandler>
  /* USER CODE BEGIN USART1_IRQn 1 */

  /* USER CODE END USART1_IRQn 1 */
}
 8003024:	bd10      	pop	{r4, pc}
 8003026:	46c0      	nop			; (mov r8, r8)
 8003028:	20000350 	.word	0x20000350

0800302c <SystemInit>:
  */
void SystemInit(void)
{
  /* Reset the RCC clock configuration to the default reset state ------------*/
  /* Set HSION bit */
  RCC->CR |= (uint32_t)0x00000001U;
 800302c:	2101      	movs	r1, #1
 800302e:	4b11      	ldr	r3, [pc, #68]	; (8003074 <SystemInit+0x48>)
#if defined (STM32F051x8) || defined (STM32F058x8)
  /* Reset SW[1:0], HPRE[3:0], PPRE[2:0], ADCPRE and MCOSEL[2:0] bits */
  RCC->CFGR &= (uint32_t)0xF8FFB80CU;
#else
  /* Reset SW[1:0], HPRE[3:0], PPRE[2:0], ADCPRE, MCOSEL[2:0], MCOPRE[2:0] and PLLNODIV bits */
  RCC->CFGR &= (uint32_t)0x08FFB80CU;
 8003030:	4811      	ldr	r0, [pc, #68]	; (8003078 <SystemInit+0x4c>)
  RCC->CR |= (uint32_t)0x00000001U;
 8003032:	681a      	ldr	r2, [r3, #0]
 8003034:	430a      	orrs	r2, r1
 8003036:	601a      	str	r2, [r3, #0]
  RCC->CFGR &= (uint32_t)0x08FFB80CU;
 8003038:	685a      	ldr	r2, [r3, #4]
 800303a:	4002      	ands	r2, r0
 800303c:	605a      	str	r2, [r3, #4]
#endif /* STM32F051x8 or STM32F058x8 */
  
  /* Reset HSEON, CSSON and PLLON bits */
  RCC->CR &= (uint32_t)0xFEF6FFFFU;
 800303e:	681a      	ldr	r2, [r3, #0]
 8003040:	480e      	ldr	r0, [pc, #56]	; (800307c <SystemInit+0x50>)
 8003042:	4002      	ands	r2, r0
 8003044:	601a      	str	r2, [r3, #0]

  /* Reset HSEBYP bit */
  RCC->CR &= (uint32_t)0xFFFBFFFFU;
 8003046:	681a      	ldr	r2, [r3, #0]
 8003048:	480d      	ldr	r0, [pc, #52]	; (8003080 <SystemInit+0x54>)
 800304a:	4002      	ands	r2, r0
 800304c:	601a      	str	r2, [r3, #0]

  /* Reset PLLSRC, PLLXTPRE and PLLMUL[3:0] bits */
  RCC->CFGR &= (uint32_t)0xFFC0FFFFU;
 800304e:	685a      	ldr	r2, [r3, #4]
 8003050:	480c      	ldr	r0, [pc, #48]	; (8003084 <SystemInit+0x58>)
 8003052:	4002      	ands	r2, r0

  /* Reset PREDIV[3:0] bits */
  RCC->CFGR2 &= (uint32_t)0xFFFFFFF0U;
 8003054:	200f      	movs	r0, #15
  RCC->CFGR &= (uint32_t)0xFFC0FFFFU;
 8003056:	605a      	str	r2, [r3, #4]
  RCC->CFGR2 &= (uint32_t)0xFFFFFFF0U;
 8003058:	6ada      	ldr	r2, [r3, #44]	; 0x2c
 800305a:	4382      	bics	r2, r0
 800305c:	62da      	str	r2, [r3, #44]	; 0x2c
#elif defined (STM32F091xC) || defined (STM32F098xx)
  /* Reset USART3SW[1:0], USART2SW[1:0], USART1SW[1:0], I2C1SW, CECSW and ADCSW bits */
  RCC->CFGR3 &= (uint32_t)0xFFF0FEACU;
#elif defined (STM32F030x6) || defined (STM32F030x8) || defined (STM32F031x6) || defined (STM32F038xx) || defined (STM32F030xC)
  /* Reset USART1SW[1:0], I2C1SW and ADCSW bits */
  RCC->CFGR3 &= (uint32_t)0xFFFFFEECU;
 800305e:	6b1a      	ldr	r2, [r3, #48]	; 0x30
 8003060:	4809      	ldr	r0, [pc, #36]	; (8003088 <SystemInit+0x5c>)
 8003062:	4002      	ands	r2, r0
 8003064:	631a      	str	r2, [r3, #48]	; 0x30
#else
 #warning "No target selected"
#endif

  /* Reset HSI14 bit */
  RCC->CR2 &= (uint32_t)0xFFFFFFFEU;
 8003066:	6b5a      	ldr	r2, [r3, #52]	; 0x34
 8003068:	438a      	bics	r2, r1
 800306a:	635a      	str	r2, [r3, #52]	; 0x34

  /* Disable all interrupts */
  RCC->CIR = 0x00000000U;
 800306c:	2200      	movs	r2, #0
 800306e:	609a      	str	r2, [r3, #8]

}
 8003070:	4770      	bx	lr
 8003072:	46c0      	nop			; (mov r8, r8)
 8003074:	40021000 	.word	0x40021000
 8003078:	08ffb80c 	.word	0x08ffb80c
 800307c:	fef6ffff 	.word	0xfef6ffff
 8003080:	fffbffff 	.word	0xfffbffff
 8003084:	ffc0ffff 	.word	0xffc0ffff
 8003088:	fffffeec 	.word	0xfffffeec

0800308c <data_aquisition>:
#include "function.h"
#include "variables.h"
extern UART_HandleTypeDef huart1;
extern TIM_HandleTypeDef htim3;

void data_aquisition(){
 800308c:	b5f0      	push	{r4, r5, r6, r7, lr}
 800308e:	46de      	mov	lr, fp
 8003090:	4657      	mov	r7, sl
 8003092:	464e      	mov	r6, r9
 8003094:	4645      	mov	r5, r8
 8003096:	b5e0      	push	{r5, r6, r7, lr}
 8003098:	b085      	sub	sp, #20
	size_data_buffer = strlen((char*)data_buffer);
 800309a:	4e54      	ldr	r6, [pc, #336]	; (80031ec <data_aquisition+0x160>)
 800309c:	6833      	ldr	r3, [r6, #0]
 800309e:	9300      	str	r3, [sp, #0]
 80030a0:	0018      	movs	r0, r3
 80030a2:	f7fd f831 	bl	8000108 <strlen>
 80030a6:	4682      	mov	sl, r0
 80030a8:	4c51      	ldr	r4, [pc, #324]	; (80031f0 <data_aquisition+0x164>)
 80030aa:	6020      	str	r0, [r4, #0]
	size_time = strlen((char*)send_time);
 80030ac:	4b51      	ldr	r3, [pc, #324]	; (80031f4 <data_aquisition+0x168>)
 80030ae:	681b      	ldr	r3, [r3, #0]
 80030b0:	9301      	str	r3, [sp, #4]
 80030b2:	0018      	movs	r0, r3
 80030b4:	f7fd f828 	bl	8000108 <strlen>
 80030b8:	4d4f      	ldr	r5, [pc, #316]	; (80031f8 <data_aquisition+0x16c>)
 80030ba:	9002      	str	r0, [sp, #8]
 80030bc:	6028      	str	r0, [r5, #0]
	size_q1 = strlen((char*)send_q1);
 80030be:	4f4f      	ldr	r7, [pc, #316]	; (80031fc <data_aquisition+0x170>)
 80030c0:	46bb      	mov	fp, r7
 80030c2:	6838      	ldr	r0, [r7, #0]
 80030c4:	f7fd f820 	bl	8000108 <strlen>
 80030c8:	4f4d      	ldr	r7, [pc, #308]	; (8003200 <data_aquisition+0x174>)
 80030ca:	6038      	str	r0, [r7, #0]
	size_q2 = strlen((char*)send_q2);
 80030cc:	494d      	ldr	r1, [pc, #308]	; (8003204 <data_aquisition+0x178>)
 80030ce:	6809      	ldr	r1, [r1, #0]
 80030d0:	9103      	str	r1, [sp, #12]
 80030d2:	0008      	movs	r0, r1
 80030d4:	f7fd f818 	bl	8000108 <strlen>
 80030d8:	494b      	ldr	r1, [pc, #300]	; (8003208 <data_aquisition+0x17c>)
 80030da:	4688      	mov	r8, r1
 80030dc:	6008      	str	r0, [r1, #0]
	size_torque = strlen((char*)send_torque);
 80030de:	494b      	ldr	r1, [pc, #300]	; (800320c <data_aquisition+0x180>)
 80030e0:	6809      	ldr	r1, [r1, #0]
 80030e2:	9103      	str	r1, [sp, #12]
 80030e4:	0008      	movs	r0, r1
 80030e6:	f7fd f80f 	bl	8000108 <strlen>
 80030ea:	4949      	ldr	r1, [pc, #292]	; (8003210 <data_aquisition+0x184>)
 80030ec:	4689      	mov	r9, r1
 80030ee:	6008      	str	r0, [r1, #0]

	//memset(data_buffer,0x00,40);
	memcpy(data_buffer+size_data_buffer, send_time, size_time);
 80030f0:	9b00      	ldr	r3, [sp, #0]
 80030f2:	0018      	movs	r0, r3
 80030f4:	4450      	add	r0, sl
 80030f6:	9a02      	ldr	r2, [sp, #8]
 80030f8:	9901      	ldr	r1, [sp, #4]
 80030fa:	f000 fa45 	bl	8003588 <memcpy>
	memcpy(data_buffer+size_time+size_data_buffer, comma, 1);
 80030fe:	682b      	ldr	r3, [r5, #0]
 8003100:	6822      	ldr	r2, [r4, #0]
 8003102:	4694      	mov	ip, r2
 8003104:	4463      	add	r3, ip
 8003106:	4a43      	ldr	r2, [pc, #268]	; (8003214 <data_aquisition+0x188>)
 8003108:	4692      	mov	sl, r2
 800310a:	6812      	ldr	r2, [r2, #0]
 800310c:	7812      	ldrb	r2, [r2, #0]
 800310e:	6831      	ldr	r1, [r6, #0]
 8003110:	54ca      	strb	r2, [r1, r3]
	memcpy(data_buffer+1+size_time+size_data_buffer, send_q1, size_q1);
 8003112:	682b      	ldr	r3, [r5, #0]
 8003114:	6822      	ldr	r2, [r4, #0]
 8003116:	4694      	mov	ip, r2
 8003118:	4463      	add	r3, ip
 800311a:	0018      	movs	r0, r3
 800311c:	3001      	adds	r0, #1
 800311e:	6833      	ldr	r3, [r6, #0]
 8003120:	469c      	mov	ip, r3
 8003122:	4460      	add	r0, ip
 8003124:	465b      	mov	r3, fp
 8003126:	6819      	ldr	r1, [r3, #0]
 8003128:	683a      	ldr	r2, [r7, #0]
 800312a:	f000 fa2d 	bl	8003588 <memcpy>
	memcpy(data_buffer+1+size_q1+size_time+size_data_buffer, comma, 1);
 800312e:	683b      	ldr	r3, [r7, #0]
 8003130:	682a      	ldr	r2, [r5, #0]
 8003132:	4694      	mov	ip, r2
 8003134:	4463      	add	r3, ip
 8003136:	6822      	ldr	r2, [r4, #0]
 8003138:	4694      	mov	ip, r2
 800313a:	4463      	add	r3, ip
 800313c:	3301      	adds	r3, #1
 800313e:	4652      	mov	r2, sl
 8003140:	6812      	ldr	r2, [r2, #0]
 8003142:	7812      	ldrb	r2, [r2, #0]
 8003144:	6831      	ldr	r1, [r6, #0]
 8003146:	54ca      	strb	r2, [r1, r3]
	memcpy(data_buffer+2+size_q1+size_time+size_data_buffer, send_q2, size_q2);
 8003148:	683b      	ldr	r3, [r7, #0]
 800314a:	682a      	ldr	r2, [r5, #0]
 800314c:	4694      	mov	ip, r2
 800314e:	4463      	add	r3, ip
 8003150:	0018      	movs	r0, r3
 8003152:	6823      	ldr	r3, [r4, #0]
 8003154:	469c      	mov	ip, r3
 8003156:	4460      	add	r0, ip
 8003158:	3002      	adds	r0, #2
 800315a:	6833      	ldr	r3, [r6, #0]
 800315c:	469c      	mov	ip, r3
 800315e:	4460      	add	r0, ip
 8003160:	4b28      	ldr	r3, [pc, #160]	; (8003204 <data_aquisition+0x178>)
 8003162:	6819      	ldr	r1, [r3, #0]
 8003164:	4643      	mov	r3, r8
 8003166:	681a      	ldr	r2, [r3, #0]
 8003168:	f000 fa0e 	bl	8003588 <memcpy>
	memcpy(data_buffer+2+size_q1+size_time+size_q2+size_data_buffer, comma, 1);
 800316c:	683b      	ldr	r3, [r7, #0]
 800316e:	682a      	ldr	r2, [r5, #0]
 8003170:	4694      	mov	ip, r2
 8003172:	4463      	add	r3, ip
 8003174:	4642      	mov	r2, r8
 8003176:	6812      	ldr	r2, [r2, #0]
 8003178:	4694      	mov	ip, r2
 800317a:	4463      	add	r3, ip
 800317c:	6822      	ldr	r2, [r4, #0]
 800317e:	4694      	mov	ip, r2
 8003180:	4463      	add	r3, ip
 8003182:	3302      	adds	r3, #2
 8003184:	4652      	mov	r2, sl
 8003186:	6812      	ldr	r2, [r2, #0]
 8003188:	7812      	ldrb	r2, [r2, #0]
 800318a:	6831      	ldr	r1, [r6, #0]
 800318c:	54ca      	strb	r2, [r1, r3]
	memcpy(data_buffer+3+size_q1+size_time+size_q2+size_data_buffer, send_torque, size_torque);
 800318e:	683b      	ldr	r3, [r7, #0]
 8003190:	682a      	ldr	r2, [r5, #0]
 8003192:	4694      	mov	ip, r2
 8003194:	4463      	add	r3, ip
 8003196:	0018      	movs	r0, r3
 8003198:	4643      	mov	r3, r8
 800319a:	681b      	ldr	r3, [r3, #0]
 800319c:	469c      	mov	ip, r3
 800319e:	4460      	add	r0, ip
 80031a0:	6823      	ldr	r3, [r4, #0]
 80031a2:	469c      	mov	ip, r3
 80031a4:	4460      	add	r0, ip
 80031a6:	3003      	adds	r0, #3
 80031a8:	6833      	ldr	r3, [r6, #0]
 80031aa:	469c      	mov	ip, r3
 80031ac:	4460      	add	r0, ip
 80031ae:	4b17      	ldr	r3, [pc, #92]	; (800320c <data_aquisition+0x180>)
 80031b0:	6819      	ldr	r1, [r3, #0]
 80031b2:	464b      	mov	r3, r9
 80031b4:	681a      	ldr	r2, [r3, #0]
 80031b6:	f000 f9e7 	bl	8003588 <memcpy>
	memcpy(data_buffer+3+size_q1+size_time+size_q2+size_torque+size_data_buffer, endSymbol, 1);
 80031ba:	6832      	ldr	r2, [r6, #0]
 80031bc:	683b      	ldr	r3, [r7, #0]
 80031be:	6829      	ldr	r1, [r5, #0]
 80031c0:	185b      	adds	r3, r3, r1
 80031c2:	4641      	mov	r1, r8
 80031c4:	6809      	ldr	r1, [r1, #0]
 80031c6:	185b      	adds	r3, r3, r1
 80031c8:	4649      	mov	r1, r9
 80031ca:	6809      	ldr	r1, [r1, #0]
 80031cc:	185b      	adds	r3, r3, r1
 80031ce:	6821      	ldr	r1, [r4, #0]
 80031d0:	185b      	adds	r3, r3, r1
 80031d2:	3303      	adds	r3, #3
 80031d4:	4910      	ldr	r1, [pc, #64]	; (8003218 <data_aquisition+0x18c>)
 80031d6:	6809      	ldr	r1, [r1, #0]
 80031d8:	7809      	ldrb	r1, [r1, #0]
 80031da:	54d1      	strb	r1, [r2, r3]

//	HAL_UART_Transmit_DMA(&huart1, ((uint8_t*)data_buffer),strlen((char*)data_buffer));
}
 80031dc:	b005      	add	sp, #20
 80031de:	bc3c      	pop	{r2, r3, r4, r5}
 80031e0:	4690      	mov	r8, r2
 80031e2:	4699      	mov	r9, r3
 80031e4:	46a2      	mov	sl, r4
 80031e6:	46ab      	mov	fp, r5
 80031e8:	bdf0      	pop	{r4, r5, r6, r7, pc}
 80031ea:	46c0      	nop			; (mov r8, r8)
 80031ec:	20000228 	.word	0x20000228
 80031f0:	20000298 	.word	0x20000298
 80031f4:	20000290 	.word	0x20000290
 80031f8:	200002a4 	.word	0x200002a4
 80031fc:	20000288 	.word	0x20000288
 8003200:	2000029c 	.word	0x2000029c
 8003204:	2000028c 	.word	0x2000028c
 8003208:	200002a0 	.word	0x200002a0
 800320c:	20000294 	.word	0x20000294
 8003210:	200002a8 	.word	0x200002a8
 8003214:	20000008 	.word	0x20000008
 8003218:	20000020 	.word	0x20000020

0800321c <uart_request>:


void uart_request(){
 800321c:	b570      	push	{r4, r5, r6, lr}

	rx_buffer[rx_buffer_cntr] = rx_byte;
 800321e:	4b69      	ldr	r3, [pc, #420]	; (80033c4 <uart_request+0x1a8>)
 8003220:	4a69      	ldr	r2, [pc, #420]	; (80033c8 <uart_request+0x1ac>)
 8003222:	7812      	ldrb	r2, [r2, #0]
 8003224:	4969      	ldr	r1, [pc, #420]	; (80033cc <uart_request+0x1b0>)
 8003226:	7809      	ldrb	r1, [r1, #0]
 8003228:	6818      	ldr	r0, [r3, #0]
 800322a:	5481      	strb	r1, [r0, r2]
	if(*rx_buffer == '$'){
 800322c:	681c      	ldr	r4, [r3, #0]
 800322e:	7823      	ldrb	r3, [r4, #0]
 8003230:	2b24      	cmp	r3, #36	; 0x24
 8003232:	d00f      	beq.n	8003254 <uart_request+0x38>
		rx_buffer_cntr += 1;
	}
	if(rx_buffer_cntr > 10){
 8003234:	4b64      	ldr	r3, [pc, #400]	; (80033c8 <uart_request+0x1ac>)
 8003236:	781b      	ldrb	r3, [r3, #0]
 8003238:	2b0a      	cmp	r3, #10
 800323a:	d902      	bls.n	8003242 <uart_request+0x26>
		rx_buffer_cntr = 0;
 800323c:	2200      	movs	r2, #0
 800323e:	4b62      	ldr	r3, [pc, #392]	; (80033c8 <uart_request+0x1ac>)
 8003240:	701a      	strb	r2, [r3, #0]
	}
	if(rx_buffer[0] == '$' && rx_buffer[rx_buffer_cntr-1] == '\n' && rx_buffer_cntr > 2){
 8003242:	7823      	ldrb	r3, [r4, #0]
 8003244:	2b24      	cmp	r3, #36	; 0x24
 8003246:	d00a      	beq.n	800325e <uart_request+0x42>

		}

	}

	HAL_UART_Receive_IT(&huart1, &rx_byte, 1);
 8003248:	2201      	movs	r2, #1
 800324a:	4960      	ldr	r1, [pc, #384]	; (80033cc <uart_request+0x1b0>)
 800324c:	4860      	ldr	r0, [pc, #384]	; (80033d0 <uart_request+0x1b4>)
 800324e:	f7fe ff99 	bl	8002184 <HAL_UART_Receive_IT>


}
 8003252:	bd70      	pop	{r4, r5, r6, pc}
		rx_buffer_cntr += 1;
 8003254:	4a5c      	ldr	r2, [pc, #368]	; (80033c8 <uart_request+0x1ac>)
 8003256:	7813      	ldrb	r3, [r2, #0]
 8003258:	3301      	adds	r3, #1
 800325a:	7013      	strb	r3, [r2, #0]
 800325c:	e7ea      	b.n	8003234 <uart_request+0x18>
	if(rx_buffer[0] == '$' && rx_buffer[rx_buffer_cntr-1] == '\n' && rx_buffer_cntr > 2){
 800325e:	4b5a      	ldr	r3, [pc, #360]	; (80033c8 <uart_request+0x1ac>)
 8003260:	781a      	ldrb	r2, [r3, #0]
 8003262:	18a3      	adds	r3, r4, r2
 8003264:	3b01      	subs	r3, #1
 8003266:	781b      	ldrb	r3, [r3, #0]
 8003268:	2b0a      	cmp	r3, #10
 800326a:	d1ed      	bne.n	8003248 <uart_request+0x2c>
 800326c:	2a02      	cmp	r2, #2
 800326e:	d9eb      	bls.n	8003248 <uart_request+0x2c>
		switch(rx_buffer[1]){
 8003270:	7863      	ldrb	r3, [r4, #1]
 8003272:	3b41      	subs	r3, #65	; 0x41
 8003274:	b2da      	uxtb	r2, r3
 8003276:	2a17      	cmp	r2, #23
 8003278:	d8e6      	bhi.n	8003248 <uart_request+0x2c>
 800327a:	0093      	lsls	r3, r2, #2
 800327c:	4a55      	ldr	r2, [pc, #340]	; (80033d4 <uart_request+0x1b8>)
 800327e:	58d3      	ldr	r3, [r2, r3]
 8003280:	469f      	mov	pc, r3
			__HAL_TIM_SET_COMPARE(&htim3, TIM_CHANNEL_1, 0);
 8003282:	4b55      	ldr	r3, [pc, #340]	; (80033d8 <uart_request+0x1bc>)
 8003284:	681a      	ldr	r2, [r3, #0]
 8003286:	2300      	movs	r3, #0
 8003288:	6353      	str	r3, [r2, #52]	; 0x34
			enable_data_aquisition = 0;
 800328a:	4a54      	ldr	r2, [pc, #336]	; (80033dc <uart_request+0x1c0>)
 800328c:	7013      	strb	r3, [r2, #0]
			enable_encoder_reading = 0;
 800328e:	4a54      	ldr	r2, [pc, #336]	; (80033e0 <uart_request+0x1c4>)
 8003290:	7013      	strb	r3, [r2, #0]
			enable_ADC_interrupt = 0;
 8003292:	4a54      	ldr	r2, [pc, #336]	; (80033e4 <uart_request+0x1c8>)
 8003294:	7013      	strb	r3, [r2, #0]
			HAL_UART_Transmit_IT(&huart1, ((uint8_t*)rx_buffer),strlen((char*)rx_buffer));
 8003296:	0020      	movs	r0, r4
 8003298:	f7fc ff36 	bl	8000108 <strlen>
 800329c:	b282      	uxth	r2, r0
 800329e:	0021      	movs	r1, r4
 80032a0:	484b      	ldr	r0, [pc, #300]	; (80033d0 <uart_request+0x1b4>)
 80032a2:	f7fe ff41 	bl	8002128 <HAL_UART_Transmit_IT>
			break;
 80032a6:	e7cf      	b.n	8003248 <uart_request+0x2c>
			HAL_UART_Transmit_IT(&huart1, ((uint8_t*)acrobat),strlen((char*)acrobat));
 80032a8:	4b4f      	ldr	r3, [pc, #316]	; (80033e8 <uart_request+0x1cc>)
 80032aa:	681c      	ldr	r4, [r3, #0]
 80032ac:	0020      	movs	r0, r4
 80032ae:	f7fc ff2b 	bl	8000108 <strlen>
 80032b2:	b282      	uxth	r2, r0
 80032b4:	0021      	movs	r1, r4
 80032b6:	4846      	ldr	r0, [pc, #280]	; (80033d0 <uart_request+0x1b4>)
 80032b8:	f7fe ff36 	bl	8002128 <HAL_UART_Transmit_IT>
			break;
 80032bc:	e7c4      	b.n	8003248 <uart_request+0x2c>
			if(*(rx_buffer+3) == '1'){
 80032be:	78e3      	ldrb	r3, [r4, #3]
 80032c0:	2b31      	cmp	r3, #49	; 0x31
 80032c2:	d005      	beq.n	80032d0 <uart_request+0xb4>
			else if(rx_buffer[3] == '0'){
 80032c4:	2b30      	cmp	r3, #48	; 0x30
 80032c6:	d1bf      	bne.n	8003248 <uart_request+0x2c>
				enable_data_aquisition = 0;
 80032c8:	2200      	movs	r2, #0
 80032ca:	4b44      	ldr	r3, [pc, #272]	; (80033dc <uart_request+0x1c0>)
 80032cc:	701a      	strb	r2, [r3, #0]
 80032ce:	e7bb      	b.n	8003248 <uart_request+0x2c>
				HAL_UART_Transmit_IT(&huart1, ((uint8_t*)rx_buffer),strlen((char*)rx_buffer));
 80032d0:	0020      	movs	r0, r4
 80032d2:	f7fc ff19 	bl	8000108 <strlen>
 80032d6:	b282      	uxth	r2, r0
 80032d8:	0021      	movs	r1, r4
 80032da:	483d      	ldr	r0, [pc, #244]	; (80033d0 <uart_request+0x1b4>)
 80032dc:	f7fe ff24 	bl	8002128 <HAL_UART_Transmit_IT>
				enable_data_aquisition = 1;
 80032e0:	2201      	movs	r2, #1
 80032e2:	4b3e      	ldr	r3, [pc, #248]	; (80033dc <uart_request+0x1c0>)
 80032e4:	701a      	strb	r2, [r3, #0]
 80032e6:	e7af      	b.n	8003248 <uart_request+0x2c>
			if(rx_buffer[2] == 1){
 80032e8:	78a3      	ldrb	r3, [r4, #2]
 80032ea:	2b01      	cmp	r3, #1
 80032ec:	d005      	beq.n	80032fa <uart_request+0xde>
			else if(rx_buffer[2] == 0){
 80032ee:	2b00      	cmp	r3, #0
 80032f0:	d1aa      	bne.n	8003248 <uart_request+0x2c>
				start = 0;
 80032f2:	2200      	movs	r2, #0
 80032f4:	4b3d      	ldr	r3, [pc, #244]	; (80033ec <uart_request+0x1d0>)
 80032f6:	701a      	strb	r2, [r3, #0]
 80032f8:	e7a6      	b.n	8003248 <uart_request+0x2c>
				start = 1;
 80032fa:	2201      	movs	r2, #1
 80032fc:	4b3b      	ldr	r3, [pc, #236]	; (80033ec <uart_request+0x1d0>)
 80032fe:	701a      	strb	r2, [r3, #0]
 8003300:	e7a2      	b.n	8003248 <uart_request+0x2c>
			memcpy(scratchpad, rx_buffer+3, strlen((char*)rx_buffer)-4);
 8003302:	1ce5      	adds	r5, r4, #3
 8003304:	0020      	movs	r0, r4
 8003306:	f7fc feff 	bl	8000108 <strlen>
 800330a:	4c39      	ldr	r4, [pc, #228]	; (80033f0 <uart_request+0x1d4>)
 800330c:	1f02      	subs	r2, r0, #4
 800330e:	0029      	movs	r1, r5
 8003310:	6820      	ldr	r0, [r4, #0]
 8003312:	f000 f939 	bl	8003588 <memcpy>
			duty_cycle = (uint8_t)strtol(scratchpad, (char**)NULL,10);
 8003316:	6820      	ldr	r0, [r4, #0]
 8003318:	220a      	movs	r2, #10
 800331a:	2100      	movs	r1, #0
 800331c:	f000 faa8 	bl	8003870 <strtol>
 8003320:	b2c0      	uxtb	r0, r0
 8003322:	4b34      	ldr	r3, [pc, #208]	; (80033f4 <uart_request+0x1d8>)
 8003324:	7018      	strb	r0, [r3, #0]
			__HAL_TIM_SET_COMPARE(&htim3, TIM_CHANNEL_2, duty_cycle);
 8003326:	4b2c      	ldr	r3, [pc, #176]	; (80033d8 <uart_request+0x1bc>)
 8003328:	681b      	ldr	r3, [r3, #0]
 800332a:	6398      	str	r0, [r3, #56]	; 0x38
			HAL_UART_Transmit_IT(&huart1, ((uint8_t*)rx_buffer),strlen((char*)rx_buffer));
 800332c:	4b25      	ldr	r3, [pc, #148]	; (80033c4 <uart_request+0x1a8>)
 800332e:	681c      	ldr	r4, [r3, #0]
 8003330:	0020      	movs	r0, r4
 8003332:	f7fc fee9 	bl	8000108 <strlen>
 8003336:	b282      	uxth	r2, r0
 8003338:	0021      	movs	r1, r4
 800333a:	4825      	ldr	r0, [pc, #148]	; (80033d0 <uart_request+0x1b4>)
 800333c:	f7fe fef4 	bl	8002128 <HAL_UART_Transmit_IT>
			break;
 8003340:	e782      	b.n	8003248 <uart_request+0x2c>
			if(rx_buffer[3] == 1){
 8003342:	78e3      	ldrb	r3, [r4, #3]
 8003344:	2b01      	cmp	r3, #1
 8003346:	d006      	beq.n	8003356 <uart_request+0x13a>
			else if(rx_buffer[3] == 0){
 8003348:	2b00      	cmp	r3, #0
 800334a:	d000      	beq.n	800334e <uart_request+0x132>
 800334c:	e77c      	b.n	8003248 <uart_request+0x2c>
				enable_encoder_reading = 0;
 800334e:	2200      	movs	r2, #0
 8003350:	4b23      	ldr	r3, [pc, #140]	; (80033e0 <uart_request+0x1c4>)
 8003352:	701a      	strb	r2, [r3, #0]
 8003354:	e778      	b.n	8003248 <uart_request+0x2c>
				enable_encoder_reading = 1;
 8003356:	2201      	movs	r2, #1
 8003358:	4b21      	ldr	r3, [pc, #132]	; (80033e0 <uart_request+0x1c4>)
 800335a:	701a      	strb	r2, [r3, #0]
 800335c:	e774      	b.n	8003248 <uart_request+0x2c>
			if(rx_buffer[3] == '1'){
 800335e:	78e3      	ldrb	r3, [r4, #3]
 8003360:	2b31      	cmp	r3, #49	; 0x31
 8003362:	d006      	beq.n	8003372 <uart_request+0x156>
			else if(rx_buffer[3] == '0'){
 8003364:	2b30      	cmp	r3, #48	; 0x30
 8003366:	d000      	beq.n	800336a <uart_request+0x14e>
 8003368:	e76e      	b.n	8003248 <uart_request+0x2c>
				enable_ADC_interrupt = 0;
 800336a:	2200      	movs	r2, #0
 800336c:	4b1d      	ldr	r3, [pc, #116]	; (80033e4 <uart_request+0x1c8>)
 800336e:	701a      	strb	r2, [r3, #0]
 8003370:	e76a      	b.n	8003248 <uart_request+0x2c>
				enable_ADC_interrupt = 1;
 8003372:	2201      	movs	r2, #1
 8003374:	4b1b      	ldr	r3, [pc, #108]	; (80033e4 <uart_request+0x1c8>)
 8003376:	701a      	strb	r2, [r3, #0]
 8003378:	e766      	b.n	8003248 <uart_request+0x2c>
			if(rx_buffer[3] == '1'){
 800337a:	78e3      	ldrb	r3, [r4, #3]
 800337c:	2b31      	cmp	r3, #49	; 0x31
 800337e:	d00c      	beq.n	800339a <uart_request+0x17e>
			else if(rx_buffer[3] == '0'){
 8003380:	2b30      	cmp	r3, #48	; 0x30
 8003382:	d014      	beq.n	80033ae <uart_request+0x192>
			HAL_UART_Transmit_IT(&huart1, ((uint8_t*)rx_buffer),strlen((char*)rx_buffer));
 8003384:	4b0f      	ldr	r3, [pc, #60]	; (80033c4 <uart_request+0x1a8>)
 8003386:	681c      	ldr	r4, [r3, #0]
 8003388:	0020      	movs	r0, r4
 800338a:	f7fc febd 	bl	8000108 <strlen>
 800338e:	b282      	uxth	r2, r0
 8003390:	0021      	movs	r1, r4
 8003392:	480f      	ldr	r0, [pc, #60]	; (80033d0 <uart_request+0x1b4>)
 8003394:	f7fe fec8 	bl	8002128 <HAL_UART_Transmit_IT>
			break;
 8003398:	e756      	b.n	8003248 <uart_request+0x2c>
				HAL_GPIO_WritePin(MOTOR_DIR_GPIO_Port,MOTOR_DIR_Pin,1);
 800339a:	2201      	movs	r2, #1
 800339c:	2120      	movs	r1, #32
 800339e:	2090      	movs	r0, #144	; 0x90
 80033a0:	05c0      	lsls	r0, r0, #23
 80033a2:	f7fe f871 	bl	8001488 <HAL_GPIO_WritePin>
				motor_dir = 1;
 80033a6:	2201      	movs	r2, #1
 80033a8:	4b13      	ldr	r3, [pc, #76]	; (80033f8 <uart_request+0x1dc>)
 80033aa:	701a      	strb	r2, [r3, #0]
 80033ac:	e7ea      	b.n	8003384 <uart_request+0x168>
				HAL_GPIO_WritePin(MOTOR_DIR_GPIO_Port,MOTOR_DIR_Pin,0);
 80033ae:	2200      	movs	r2, #0
 80033b0:	2120      	movs	r1, #32
 80033b2:	2090      	movs	r0, #144	; 0x90
 80033b4:	05c0      	lsls	r0, r0, #23
 80033b6:	f7fe f867 	bl	8001488 <HAL_GPIO_WritePin>
				motor_dir = 0;
 80033ba:	2200      	movs	r2, #0
 80033bc:	4b0e      	ldr	r3, [pc, #56]	; (80033f8 <uart_request+0x1dc>)
 80033be:	701a      	strb	r2, [r3, #0]
 80033c0:	e7e0      	b.n	8003384 <uart_request+0x168>
 80033c2:	46c0      	nop			; (mov r8, r8)
 80033c4:	20000274 	.word	0x20000274
 80033c8:	20000278 	.word	0x20000278
 80033cc:	20000279 	.word	0x20000279
 80033d0:	20000350 	.word	0x20000350
 80033d4:	08004070 	.word	0x08004070
 80033d8:	200002cc 	.word	0x200002cc
 80033dc:	2000022e 	.word	0x2000022e
 80033e0:	2000001d 	.word	0x2000001d
 80033e4:	2000001c 	.word	0x2000001c
 80033e8:	20000004 	.word	0x20000004
 80033ec:	200002ac 	.word	0x200002ac
 80033f0:	20000284 	.word	0x20000284
 80033f4:	2000022d 	.word	0x2000022d
 80033f8:	20000231 	.word	0x20000231

080033fc <user_main>:
#include "function.h"
#include "variables.h"

extern UART_HandleTypeDef huart1;

void user_main(){
 80033fc:	b570      	push	{r4, r5, r6, lr}

	if(uart_flag == 1){
 80033fe:	4b29      	ldr	r3, [pc, #164]	; (80034a4 <user_main+0xa8>)
 8003400:	781a      	ldrb	r2, [r3, #0]
 8003402:	2a01      	cmp	r2, #1
 8003404:	d049      	beq.n	800349a <user_main+0x9e>
		uart_flag = 0;
		uart_request();

	}

	if(enable_encoder_reading == 1){
 8003406:	4b28      	ldr	r3, [pc, #160]	; (80034a8 <user_main+0xac>)
 8003408:	781b      	ldrb	r3, [r3, #0]
 800340a:	2b01      	cmp	r3, #1
 800340c:	d027      	beq.n	800345e <user_main+0x62>
			encoder_flag = 0;
			read_motor_position();
		}
	}

	if(enable_ADC_interrupt == 1){
 800340e:	4b27      	ldr	r3, [pc, #156]	; (80034ac <user_main+0xb0>)
 8003410:	781b      	ldrb	r3, [r3, #0]
 8003412:	2b01      	cmp	r3, #1
 8003414:	d01a      	beq.n	800344c <user_main+0x50>
			get_current_potentiometer();
		}
	}


	if(enable_data_aquisition){
 8003416:	4c26      	ldr	r4, [pc, #152]	; (80034b0 <user_main+0xb4>)
 8003418:	7823      	ldrb	r3, [r4, #0]
 800341a:	2b00      	cmp	r3, #0
 800341c:	d013      	beq.n	8003446 <user_main+0x4a>
		if(data_flag == 1){ // send system variables over UART
 800341e:	4d25      	ldr	r5, [pc, #148]	; (80034b4 <user_main+0xb8>)
 8003420:	782b      	ldrb	r3, [r5, #0]
 8003422:	2b01      	cmp	r3, #1
 8003424:	d024      	beq.n	8003470 <user_main+0x74>
			data_flag = 0;
			data_aquisition();
		}
	}

	if(send_data_flag && enable_data_aquisition){
 8003426:	4b24      	ldr	r3, [pc, #144]	; (80034b8 <user_main+0xbc>)
 8003428:	781a      	ldrb	r2, [r3, #0]
 800342a:	2a00      	cmp	r2, #0
 800342c:	d00b      	beq.n	8003446 <user_main+0x4a>
		send_data_flag = 0;
 800342e:	2200      	movs	r2, #0
 8003430:	701a      	strb	r2, [r3, #0]
		HAL_UART_Transmit_DMA(&huart1, ((uint8_t*)data_buffer),strlen((char*)data_buffer));
 8003432:	4b22      	ldr	r3, [pc, #136]	; (80034bc <user_main+0xc0>)
 8003434:	681c      	ldr	r4, [r3, #0]
 8003436:	0020      	movs	r0, r4
 8003438:	f7fc fe66 	bl	8000108 <strlen>
 800343c:	0021      	movs	r1, r4
 800343e:	b282      	uxth	r2, r0
 8003440:	481f      	ldr	r0, [pc, #124]	; (80034c0 <user_main+0xc4>)
 8003442:	f7fe fee9 	bl	8002218 <HAL_UART_Transmit_DMA>
	}

	torque_output();
 8003446:	f7ff fa93 	bl	8002970 <torque_output>

}
 800344a:	bd70      	pop	{r4, r5, r6, pc}
		if(adc_flag == 1){
 800344c:	4b1d      	ldr	r3, [pc, #116]	; (80034c4 <user_main+0xc8>)
 800344e:	781a      	ldrb	r2, [r3, #0]
 8003450:	2a01      	cmp	r2, #1
 8003452:	d1e0      	bne.n	8003416 <user_main+0x1a>
			adc_flag = 0;
 8003454:	2200      	movs	r2, #0
 8003456:	701a      	strb	r2, [r3, #0]
			get_current_potentiometer();
 8003458:	f7ff f9ae 	bl	80027b8 <get_current_potentiometer>
 800345c:	e7db      	b.n	8003416 <user_main+0x1a>
		if(encoder_flag == 1){
 800345e:	4b1a      	ldr	r3, [pc, #104]	; (80034c8 <user_main+0xcc>)
 8003460:	781a      	ldrb	r2, [r3, #0]
 8003462:	2a01      	cmp	r2, #1
 8003464:	d1d3      	bne.n	800340e <user_main+0x12>
			encoder_flag = 0;
 8003466:	2200      	movs	r2, #0
 8003468:	701a      	strb	r2, [r3, #0]
			read_motor_position();
 800346a:	f7ff fa43 	bl	80028f4 <read_motor_position>
 800346e:	e7ce      	b.n	800340e <user_main+0x12>
			time += 1;
 8003470:	4b16      	ldr	r3, [pc, #88]	; (80034cc <user_main+0xd0>)
			sprintf(send_time,"%lu", time);
 8003472:	4917      	ldr	r1, [pc, #92]	; (80034d0 <user_main+0xd4>)
			time += 1;
 8003474:	681a      	ldr	r2, [r3, #0]
 8003476:	3201      	adds	r2, #1
 8003478:	601a      	str	r2, [r3, #0]
			sprintf(send_time,"%lu", time);
 800347a:	4b16      	ldr	r3, [pc, #88]	; (80034d4 <user_main+0xd8>)
 800347c:	6818      	ldr	r0, [r3, #0]
 800347e:	f000 f94f 	bl	8003720 <siprintf>
			data_flag = 0;
 8003482:	2300      	movs	r3, #0
 8003484:	702b      	strb	r3, [r5, #0]
			data_aquisition();
 8003486:	f7ff fe01 	bl	800308c <data_aquisition>
	if(send_data_flag && enable_data_aquisition){
 800348a:	4b0b      	ldr	r3, [pc, #44]	; (80034b8 <user_main+0xbc>)
 800348c:	781a      	ldrb	r2, [r3, #0]
 800348e:	2a00      	cmp	r2, #0
 8003490:	d0d9      	beq.n	8003446 <user_main+0x4a>
 8003492:	7822      	ldrb	r2, [r4, #0]
 8003494:	2a00      	cmp	r2, #0
 8003496:	d0d6      	beq.n	8003446 <user_main+0x4a>
 8003498:	e7c9      	b.n	800342e <user_main+0x32>
		uart_flag = 0;
 800349a:	2200      	movs	r2, #0
 800349c:	701a      	strb	r2, [r3, #0]
		uart_request();
 800349e:	f7ff febd 	bl	800321c <uart_request>
 80034a2:	e7b0      	b.n	8003406 <user_main+0xa>
 80034a4:	200002b5 	.word	0x200002b5
 80034a8:	2000001d 	.word	0x2000001d
 80034ac:	2000001c 	.word	0x2000001c
 80034b0:	2000022e 	.word	0x2000022e
 80034b4:	2000022c 	.word	0x2000022c
 80034b8:	20000024 	.word	0x20000024
 80034bc:	20000228 	.word	0x20000228
 80034c0:	20000350 	.word	0x20000350
 80034c4:	20000220 	.word	0x20000220
 80034c8:	2000022f 	.word	0x2000022f
 80034cc:	200002b0 	.word	0x200002b0
 80034d0:	08004030 	.word	0x08004030
 80034d4:	20000290 	.word	0x20000290

080034d8 <Reset_Handler>:

  .section .text.Reset_Handler
  .weak Reset_Handler
  .type Reset_Handler, %function
Reset_Handler:
  ldr   r0, =_estack
 80034d8:	480d      	ldr	r0, [pc, #52]	; (8003510 <LoopForever+0x2>)
  mov   sp, r0          /* set stack pointer */
 80034da:	4685      	mov	sp, r0

/* Copy the data segment initializers from flash to SRAM */
  ldr r0, =_sdata
 80034dc:	480d      	ldr	r0, [pc, #52]	; (8003514 <LoopForever+0x6>)
  ldr r1, =_edata
 80034de:	490e      	ldr	r1, [pc, #56]	; (8003518 <LoopForever+0xa>)
  ldr r2, =_sidata
 80034e0:	4a0e      	ldr	r2, [pc, #56]	; (800351c <LoopForever+0xe>)
  movs r3, #0
 80034e2:	2300      	movs	r3, #0
  b LoopCopyDataInit
 80034e4:	e002      	b.n	80034ec <LoopCopyDataInit>

080034e6 <CopyDataInit>:

CopyDataInit:
  ldr r4, [r2, r3]
 80034e6:	58d4      	ldr	r4, [r2, r3]
  str r4, [r0, r3]
 80034e8:	50c4      	str	r4, [r0, r3]
  adds r3, r3, #4
 80034ea:	3304      	adds	r3, #4

080034ec <LoopCopyDataInit>:

LoopCopyDataInit:
  adds r4, r0, r3
 80034ec:	18c4      	adds	r4, r0, r3
  cmp r4, r1
 80034ee:	428c      	cmp	r4, r1
  bcc CopyDataInit
 80034f0:	d3f9      	bcc.n	80034e6 <CopyDataInit>
  
/* Zero fill the bss segment. */
  ldr r2, =_sbss
 80034f2:	4a0b      	ldr	r2, [pc, #44]	; (8003520 <LoopForever+0x12>)
  ldr r4, =_ebss
 80034f4:	4c0b      	ldr	r4, [pc, #44]	; (8003524 <LoopForever+0x16>)
  movs r3, #0
 80034f6:	2300      	movs	r3, #0
  b LoopFillZerobss
 80034f8:	e001      	b.n	80034fe <LoopFillZerobss>

080034fa <FillZerobss>:

FillZerobss:
  str  r3, [r2]
 80034fa:	6013      	str	r3, [r2, #0]
  adds r2, r2, #4
 80034fc:	3204      	adds	r2, #4

080034fe <LoopFillZerobss>:

LoopFillZerobss:
  cmp r2, r4
 80034fe:	42a2      	cmp	r2, r4
  bcc FillZerobss
 8003500:	d3fb      	bcc.n	80034fa <FillZerobss>

/* Call the clock system intitialization function.*/
  bl  SystemInit
 8003502:	f7ff fd93 	bl	800302c <SystemInit>
/* Call static constructors */
  bl __libc_init_array
 8003506:	f000 f811 	bl	800352c <__libc_init_array>
/* Call the application's entry point.*/
  bl main
 800350a:	f7ff fb29 	bl	8002b60 <main>

0800350e <LoopForever>:

LoopForever:
    b LoopForever
 800350e:	e7fe      	b.n	800350e <LoopForever>
  ldr   r0, =_estack
 8003510:	20001000 	.word	0x20001000
  ldr r0, =_sdata
 8003514:	20000000 	.word	0x20000000
  ldr r1, =_edata
 8003518:	200001fc 	.word	0x200001fc
  ldr r2, =_sidata
 800351c:	08004244 	.word	0x08004244
  ldr r2, =_sbss
 8003520:	20000200 	.word	0x20000200
  ldr r4, =_ebss
 8003524:	200004d4 	.word	0x200004d4

08003528 <ADC1_IRQHandler>:
 * @retval : None
*/
    .section .text.Default_Handler,"ax",%progbits
Default_Handler:
Infinite_Loop:
  b Infinite_Loop
 8003528:	e7fe      	b.n	8003528 <ADC1_IRQHandler>
	...

0800352c <__libc_init_array>:
 800352c:	b570      	push	{r4, r5, r6, lr}
 800352e:	2600      	movs	r6, #0
 8003530:	4d0c      	ldr	r5, [pc, #48]	; (8003564 <__libc_init_array+0x38>)
 8003532:	4c0d      	ldr	r4, [pc, #52]	; (8003568 <__libc_init_array+0x3c>)
 8003534:	1b64      	subs	r4, r4, r5
 8003536:	10a4      	asrs	r4, r4, #2
 8003538:	42a6      	cmp	r6, r4
 800353a:	d109      	bne.n	8003550 <__libc_init_array+0x24>
 800353c:	2600      	movs	r6, #0
 800353e:	f000 fd19 	bl	8003f74 <_init>
 8003542:	4d0a      	ldr	r5, [pc, #40]	; (800356c <__libc_init_array+0x40>)
 8003544:	4c0a      	ldr	r4, [pc, #40]	; (8003570 <__libc_init_array+0x44>)
 8003546:	1b64      	subs	r4, r4, r5
 8003548:	10a4      	asrs	r4, r4, #2
 800354a:	42a6      	cmp	r6, r4
 800354c:	d105      	bne.n	800355a <__libc_init_array+0x2e>
 800354e:	bd70      	pop	{r4, r5, r6, pc}
 8003550:	00b3      	lsls	r3, r6, #2
 8003552:	58eb      	ldr	r3, [r5, r3]
 8003554:	4798      	blx	r3
 8003556:	3601      	adds	r6, #1
 8003558:	e7ee      	b.n	8003538 <__libc_init_array+0xc>
 800355a:	00b3      	lsls	r3, r6, #2
 800355c:	58eb      	ldr	r3, [r5, r3]
 800355e:	4798      	blx	r3
 8003560:	3601      	adds	r6, #1
 8003562:	e7f2      	b.n	800354a <__libc_init_array+0x1e>
 8003564:	0800423c 	.word	0x0800423c
 8003568:	0800423c 	.word	0x0800423c
 800356c:	0800423c 	.word	0x0800423c
 8003570:	08004240 	.word	0x08004240

08003574 <malloc>:
 8003574:	b510      	push	{r4, lr}
 8003576:	4b03      	ldr	r3, [pc, #12]	; (8003584 <malloc+0x10>)
 8003578:	0001      	movs	r1, r0
 800357a:	6818      	ldr	r0, [r3, #0]
 800357c:	f000 f860 	bl	8003640 <_malloc_r>
 8003580:	bd10      	pop	{r4, pc}
 8003582:	46c0      	nop			; (mov r8, r8)
 8003584:	2000002c 	.word	0x2000002c

08003588 <memcpy>:
 8003588:	2300      	movs	r3, #0
 800358a:	b510      	push	{r4, lr}
 800358c:	429a      	cmp	r2, r3
 800358e:	d100      	bne.n	8003592 <memcpy+0xa>
 8003590:	bd10      	pop	{r4, pc}
 8003592:	5ccc      	ldrb	r4, [r1, r3]
 8003594:	54c4      	strb	r4, [r0, r3]
 8003596:	3301      	adds	r3, #1
 8003598:	e7f8      	b.n	800358c <memcpy+0x4>

0800359a <memset>:
 800359a:	0003      	movs	r3, r0
 800359c:	1882      	adds	r2, r0, r2
 800359e:	4293      	cmp	r3, r2
 80035a0:	d100      	bne.n	80035a4 <memset+0xa>
 80035a2:	4770      	bx	lr
 80035a4:	7019      	strb	r1, [r3, #0]
 80035a6:	3301      	adds	r3, #1
 80035a8:	e7f9      	b.n	800359e <memset+0x4>
	...

080035ac <_free_r>:
 80035ac:	b570      	push	{r4, r5, r6, lr}
 80035ae:	0005      	movs	r5, r0
 80035b0:	2900      	cmp	r1, #0
 80035b2:	d010      	beq.n	80035d6 <_free_r+0x2a>
 80035b4:	1f0c      	subs	r4, r1, #4
 80035b6:	6823      	ldr	r3, [r4, #0]
 80035b8:	2b00      	cmp	r3, #0
 80035ba:	da00      	bge.n	80035be <_free_r+0x12>
 80035bc:	18e4      	adds	r4, r4, r3
 80035be:	0028      	movs	r0, r5
 80035c0:	f000 f97f 	bl	80038c2 <__malloc_lock>
 80035c4:	4a1d      	ldr	r2, [pc, #116]	; (800363c <_free_r+0x90>)
 80035c6:	6813      	ldr	r3, [r2, #0]
 80035c8:	2b00      	cmp	r3, #0
 80035ca:	d105      	bne.n	80035d8 <_free_r+0x2c>
 80035cc:	6063      	str	r3, [r4, #4]
 80035ce:	6014      	str	r4, [r2, #0]
 80035d0:	0028      	movs	r0, r5
 80035d2:	f000 f977 	bl	80038c4 <__malloc_unlock>
 80035d6:	bd70      	pop	{r4, r5, r6, pc}
 80035d8:	42a3      	cmp	r3, r4
 80035da:	d909      	bls.n	80035f0 <_free_r+0x44>
 80035dc:	6821      	ldr	r1, [r4, #0]
 80035de:	1860      	adds	r0, r4, r1
 80035e0:	4283      	cmp	r3, r0
 80035e2:	d1f3      	bne.n	80035cc <_free_r+0x20>
 80035e4:	6818      	ldr	r0, [r3, #0]
 80035e6:	685b      	ldr	r3, [r3, #4]
 80035e8:	1841      	adds	r1, r0, r1
 80035ea:	6021      	str	r1, [r4, #0]
 80035ec:	e7ee      	b.n	80035cc <_free_r+0x20>
 80035ee:	0013      	movs	r3, r2
 80035f0:	685a      	ldr	r2, [r3, #4]
 80035f2:	2a00      	cmp	r2, #0
 80035f4:	d001      	beq.n	80035fa <_free_r+0x4e>
 80035f6:	42a2      	cmp	r2, r4
 80035f8:	d9f9      	bls.n	80035ee <_free_r+0x42>
 80035fa:	6819      	ldr	r1, [r3, #0]
 80035fc:	1858      	adds	r0, r3, r1
 80035fe:	42a0      	cmp	r0, r4
 8003600:	d10b      	bne.n	800361a <_free_r+0x6e>
 8003602:	6820      	ldr	r0, [r4, #0]
 8003604:	1809      	adds	r1, r1, r0
 8003606:	1858      	adds	r0, r3, r1
 8003608:	6019      	str	r1, [r3, #0]
 800360a:	4282      	cmp	r2, r0
 800360c:	d1e0      	bne.n	80035d0 <_free_r+0x24>
 800360e:	6810      	ldr	r0, [r2, #0]
 8003610:	6852      	ldr	r2, [r2, #4]
 8003612:	1841      	adds	r1, r0, r1
 8003614:	6019      	str	r1, [r3, #0]
 8003616:	605a      	str	r2, [r3, #4]
 8003618:	e7da      	b.n	80035d0 <_free_r+0x24>
 800361a:	42a0      	cmp	r0, r4
 800361c:	d902      	bls.n	8003624 <_free_r+0x78>
 800361e:	230c      	movs	r3, #12
 8003620:	602b      	str	r3, [r5, #0]
 8003622:	e7d5      	b.n	80035d0 <_free_r+0x24>
 8003624:	6821      	ldr	r1, [r4, #0]
 8003626:	1860      	adds	r0, r4, r1
 8003628:	4282      	cmp	r2, r0
 800362a:	d103      	bne.n	8003634 <_free_r+0x88>
 800362c:	6810      	ldr	r0, [r2, #0]
 800362e:	6852      	ldr	r2, [r2, #4]
 8003630:	1841      	adds	r1, r0, r1
 8003632:	6021      	str	r1, [r4, #0]
 8003634:	6062      	str	r2, [r4, #4]
 8003636:	605c      	str	r4, [r3, #4]
 8003638:	e7ca      	b.n	80035d0 <_free_r+0x24>
 800363a:	46c0      	nop			; (mov r8, r8)
 800363c:	200002bc 	.word	0x200002bc

08003640 <_malloc_r>:
 8003640:	2303      	movs	r3, #3
 8003642:	b570      	push	{r4, r5, r6, lr}
 8003644:	1ccd      	adds	r5, r1, #3
 8003646:	439d      	bics	r5, r3
 8003648:	3508      	adds	r5, #8
 800364a:	0006      	movs	r6, r0
 800364c:	2d0c      	cmp	r5, #12
 800364e:	d21e      	bcs.n	800368e <_malloc_r+0x4e>
 8003650:	250c      	movs	r5, #12
 8003652:	42a9      	cmp	r1, r5
 8003654:	d81d      	bhi.n	8003692 <_malloc_r+0x52>
 8003656:	0030      	movs	r0, r6
 8003658:	f000 f933 	bl	80038c2 <__malloc_lock>
 800365c:	4a25      	ldr	r2, [pc, #148]	; (80036f4 <_malloc_r+0xb4>)
 800365e:	6814      	ldr	r4, [r2, #0]
 8003660:	0021      	movs	r1, r4
 8003662:	2900      	cmp	r1, #0
 8003664:	d119      	bne.n	800369a <_malloc_r+0x5a>
 8003666:	4c24      	ldr	r4, [pc, #144]	; (80036f8 <_malloc_r+0xb8>)
 8003668:	6823      	ldr	r3, [r4, #0]
 800366a:	2b00      	cmp	r3, #0
 800366c:	d103      	bne.n	8003676 <_malloc_r+0x36>
 800366e:	0030      	movs	r0, r6
 8003670:	f000 f844 	bl	80036fc <_sbrk_r>
 8003674:	6020      	str	r0, [r4, #0]
 8003676:	0029      	movs	r1, r5
 8003678:	0030      	movs	r0, r6
 800367a:	f000 f83f 	bl	80036fc <_sbrk_r>
 800367e:	1c43      	adds	r3, r0, #1
 8003680:	d12c      	bne.n	80036dc <_malloc_r+0x9c>
 8003682:	230c      	movs	r3, #12
 8003684:	0030      	movs	r0, r6
 8003686:	6033      	str	r3, [r6, #0]
 8003688:	f000 f91c 	bl	80038c4 <__malloc_unlock>
 800368c:	e003      	b.n	8003696 <_malloc_r+0x56>
 800368e:	2d00      	cmp	r5, #0
 8003690:	dadf      	bge.n	8003652 <_malloc_r+0x12>
 8003692:	230c      	movs	r3, #12
 8003694:	6033      	str	r3, [r6, #0]
 8003696:	2000      	movs	r0, #0
 8003698:	bd70      	pop	{r4, r5, r6, pc}
 800369a:	680b      	ldr	r3, [r1, #0]
 800369c:	1b5b      	subs	r3, r3, r5
 800369e:	d41a      	bmi.n	80036d6 <_malloc_r+0x96>
 80036a0:	2b0b      	cmp	r3, #11
 80036a2:	d903      	bls.n	80036ac <_malloc_r+0x6c>
 80036a4:	600b      	str	r3, [r1, #0]
 80036a6:	18cc      	adds	r4, r1, r3
 80036a8:	6025      	str	r5, [r4, #0]
 80036aa:	e003      	b.n	80036b4 <_malloc_r+0x74>
 80036ac:	428c      	cmp	r4, r1
 80036ae:	d10e      	bne.n	80036ce <_malloc_r+0x8e>
 80036b0:	6863      	ldr	r3, [r4, #4]
 80036b2:	6013      	str	r3, [r2, #0]
 80036b4:	0030      	movs	r0, r6
 80036b6:	f000 f905 	bl	80038c4 <__malloc_unlock>
 80036ba:	0020      	movs	r0, r4
 80036bc:	2207      	movs	r2, #7
 80036be:	300b      	adds	r0, #11
 80036c0:	1d23      	adds	r3, r4, #4
 80036c2:	4390      	bics	r0, r2
 80036c4:	1ac3      	subs	r3, r0, r3
 80036c6:	d0e7      	beq.n	8003698 <_malloc_r+0x58>
 80036c8:	425a      	negs	r2, r3
 80036ca:	50e2      	str	r2, [r4, r3]
 80036cc:	e7e4      	b.n	8003698 <_malloc_r+0x58>
 80036ce:	684b      	ldr	r3, [r1, #4]
 80036d0:	6063      	str	r3, [r4, #4]
 80036d2:	000c      	movs	r4, r1
 80036d4:	e7ee      	b.n	80036b4 <_malloc_r+0x74>
 80036d6:	000c      	movs	r4, r1
 80036d8:	6849      	ldr	r1, [r1, #4]
 80036da:	e7c2      	b.n	8003662 <_malloc_r+0x22>
 80036dc:	2303      	movs	r3, #3
 80036de:	1cc4      	adds	r4, r0, #3
 80036e0:	439c      	bics	r4, r3
 80036e2:	42a0      	cmp	r0, r4
 80036e4:	d0e0      	beq.n	80036a8 <_malloc_r+0x68>
 80036e6:	1a21      	subs	r1, r4, r0
 80036e8:	0030      	movs	r0, r6
 80036ea:	f000 f807 	bl	80036fc <_sbrk_r>
 80036ee:	1c43      	adds	r3, r0, #1
 80036f0:	d1da      	bne.n	80036a8 <_malloc_r+0x68>
 80036f2:	e7c6      	b.n	8003682 <_malloc_r+0x42>
 80036f4:	200002bc 	.word	0x200002bc
 80036f8:	200002c0 	.word	0x200002c0

080036fc <_sbrk_r>:
 80036fc:	2300      	movs	r3, #0
 80036fe:	b570      	push	{r4, r5, r6, lr}
 8003700:	4c06      	ldr	r4, [pc, #24]	; (800371c <_sbrk_r+0x20>)
 8003702:	0005      	movs	r5, r0
 8003704:	0008      	movs	r0, r1
 8003706:	6023      	str	r3, [r4, #0]
 8003708:	f000 fc24 	bl	8003f54 <_sbrk>
 800370c:	1c43      	adds	r3, r0, #1
 800370e:	d103      	bne.n	8003718 <_sbrk_r+0x1c>
 8003710:	6823      	ldr	r3, [r4, #0]
 8003712:	2b00      	cmp	r3, #0
 8003714:	d000      	beq.n	8003718 <_sbrk_r+0x1c>
 8003716:	602b      	str	r3, [r5, #0]
 8003718:	bd70      	pop	{r4, r5, r6, pc}
 800371a:	46c0      	nop			; (mov r8, r8)
 800371c:	200004d0 	.word	0x200004d0

08003720 <siprintf>:
 8003720:	b40e      	push	{r1, r2, r3}
 8003722:	b510      	push	{r4, lr}
 8003724:	b09d      	sub	sp, #116	; 0x74
 8003726:	a902      	add	r1, sp, #8
 8003728:	9002      	str	r0, [sp, #8]
 800372a:	6108      	str	r0, [r1, #16]
 800372c:	480b      	ldr	r0, [pc, #44]	; (800375c <siprintf+0x3c>)
 800372e:	2482      	movs	r4, #130	; 0x82
 8003730:	6088      	str	r0, [r1, #8]
 8003732:	6148      	str	r0, [r1, #20]
 8003734:	2001      	movs	r0, #1
 8003736:	4240      	negs	r0, r0
 8003738:	ab1f      	add	r3, sp, #124	; 0x7c
 800373a:	81c8      	strh	r0, [r1, #14]
 800373c:	4808      	ldr	r0, [pc, #32]	; (8003760 <siprintf+0x40>)
 800373e:	cb04      	ldmia	r3!, {r2}
 8003740:	00a4      	lsls	r4, r4, #2
 8003742:	6800      	ldr	r0, [r0, #0]
 8003744:	9301      	str	r3, [sp, #4]
 8003746:	818c      	strh	r4, [r1, #12]
 8003748:	f000 f920 	bl	800398c <_svfiprintf_r>
 800374c:	2300      	movs	r3, #0
 800374e:	9a02      	ldr	r2, [sp, #8]
 8003750:	7013      	strb	r3, [r2, #0]
 8003752:	b01d      	add	sp, #116	; 0x74
 8003754:	bc10      	pop	{r4}
 8003756:	bc08      	pop	{r3}
 8003758:	b003      	add	sp, #12
 800375a:	4718      	bx	r3
 800375c:	7fffffff 	.word	0x7fffffff
 8003760:	2000002c 	.word	0x2000002c

08003764 <_strtol_l.isra.0>:
 8003764:	b5f0      	push	{r4, r5, r6, r7, lr}
 8003766:	001f      	movs	r7, r3
 8003768:	000e      	movs	r6, r1
 800376a:	b087      	sub	sp, #28
 800376c:	9005      	str	r0, [sp, #20]
 800376e:	9103      	str	r1, [sp, #12]
 8003770:	9202      	str	r2, [sp, #8]
 8003772:	980c      	ldr	r0, [sp, #48]	; 0x30
 8003774:	7834      	ldrb	r4, [r6, #0]
 8003776:	f000 f88f 	bl	8003898 <__locale_ctype_ptr_l>
 800377a:	2208      	movs	r2, #8
 800377c:	1900      	adds	r0, r0, r4
 800377e:	7843      	ldrb	r3, [r0, #1]
 8003780:	1c75      	adds	r5, r6, #1
 8003782:	4013      	ands	r3, r2
 8003784:	d10c      	bne.n	80037a0 <_strtol_l.isra.0+0x3c>
 8003786:	2c2d      	cmp	r4, #45	; 0x2d
 8003788:	d10c      	bne.n	80037a4 <_strtol_l.isra.0+0x40>
 800378a:	3301      	adds	r3, #1
 800378c:	782c      	ldrb	r4, [r5, #0]
 800378e:	9301      	str	r3, [sp, #4]
 8003790:	1cb5      	adds	r5, r6, #2
 8003792:	2f00      	cmp	r7, #0
 8003794:	d00c      	beq.n	80037b0 <_strtol_l.isra.0+0x4c>
 8003796:	2f10      	cmp	r7, #16
 8003798:	d114      	bne.n	80037c4 <_strtol_l.isra.0+0x60>
 800379a:	2c30      	cmp	r4, #48	; 0x30
 800379c:	d00a      	beq.n	80037b4 <_strtol_l.isra.0+0x50>
 800379e:	e011      	b.n	80037c4 <_strtol_l.isra.0+0x60>
 80037a0:	002e      	movs	r6, r5
 80037a2:	e7e6      	b.n	8003772 <_strtol_l.isra.0+0xe>
 80037a4:	9301      	str	r3, [sp, #4]
 80037a6:	2c2b      	cmp	r4, #43	; 0x2b
 80037a8:	d1f3      	bne.n	8003792 <_strtol_l.isra.0+0x2e>
 80037aa:	782c      	ldrb	r4, [r5, #0]
 80037ac:	1cb5      	adds	r5, r6, #2
 80037ae:	e7f0      	b.n	8003792 <_strtol_l.isra.0+0x2e>
 80037b0:	2c30      	cmp	r4, #48	; 0x30
 80037b2:	d12f      	bne.n	8003814 <_strtol_l.isra.0+0xb0>
 80037b4:	2220      	movs	r2, #32
 80037b6:	782b      	ldrb	r3, [r5, #0]
 80037b8:	4393      	bics	r3, r2
 80037ba:	2b58      	cmp	r3, #88	; 0x58
 80037bc:	d151      	bne.n	8003862 <_strtol_l.isra.0+0xfe>
 80037be:	2710      	movs	r7, #16
 80037c0:	786c      	ldrb	r4, [r5, #1]
 80037c2:	3502      	adds	r5, #2
 80037c4:	9b01      	ldr	r3, [sp, #4]
 80037c6:	4a29      	ldr	r2, [pc, #164]	; (800386c <_strtol_l.isra.0+0x108>)
 80037c8:	0039      	movs	r1, r7
 80037ca:	189e      	adds	r6, r3, r2
 80037cc:	0030      	movs	r0, r6
 80037ce:	f7fc fd33 	bl	8000238 <__aeabi_uidivmod>
 80037d2:	0030      	movs	r0, r6
 80037d4:	9104      	str	r1, [sp, #16]
 80037d6:	0039      	movs	r1, r7
 80037d8:	f7fc fca8 	bl	800012c <__udivsi3>
 80037dc:	2101      	movs	r1, #1
 80037de:	2300      	movs	r3, #0
 80037e0:	4249      	negs	r1, r1
 80037e2:	0002      	movs	r2, r0
 80037e4:	468c      	mov	ip, r1
 80037e6:	0018      	movs	r0, r3
 80037e8:	0021      	movs	r1, r4
 80037ea:	3930      	subs	r1, #48	; 0x30
 80037ec:	2909      	cmp	r1, #9
 80037ee:	d813      	bhi.n	8003818 <_strtol_l.isra.0+0xb4>
 80037f0:	000c      	movs	r4, r1
 80037f2:	42a7      	cmp	r7, r4
 80037f4:	dd1c      	ble.n	8003830 <_strtol_l.isra.0+0xcc>
 80037f6:	1c59      	adds	r1, r3, #1
 80037f8:	d009      	beq.n	800380e <_strtol_l.isra.0+0xaa>
 80037fa:	4663      	mov	r3, ip
 80037fc:	4282      	cmp	r2, r0
 80037fe:	d306      	bcc.n	800380e <_strtol_l.isra.0+0xaa>
 8003800:	d102      	bne.n	8003808 <_strtol_l.isra.0+0xa4>
 8003802:	9904      	ldr	r1, [sp, #16]
 8003804:	42a1      	cmp	r1, r4
 8003806:	db02      	blt.n	800380e <_strtol_l.isra.0+0xaa>
 8003808:	2301      	movs	r3, #1
 800380a:	4378      	muls	r0, r7
 800380c:	1820      	adds	r0, r4, r0
 800380e:	782c      	ldrb	r4, [r5, #0]
 8003810:	3501      	adds	r5, #1
 8003812:	e7e9      	b.n	80037e8 <_strtol_l.isra.0+0x84>
 8003814:	270a      	movs	r7, #10
 8003816:	e7d5      	b.n	80037c4 <_strtol_l.isra.0+0x60>
 8003818:	0021      	movs	r1, r4
 800381a:	3941      	subs	r1, #65	; 0x41
 800381c:	2919      	cmp	r1, #25
 800381e:	d801      	bhi.n	8003824 <_strtol_l.isra.0+0xc0>
 8003820:	3c37      	subs	r4, #55	; 0x37
 8003822:	e7e6      	b.n	80037f2 <_strtol_l.isra.0+0x8e>
 8003824:	0021      	movs	r1, r4
 8003826:	3961      	subs	r1, #97	; 0x61
 8003828:	2919      	cmp	r1, #25
 800382a:	d801      	bhi.n	8003830 <_strtol_l.isra.0+0xcc>
 800382c:	3c57      	subs	r4, #87	; 0x57
 800382e:	e7e0      	b.n	80037f2 <_strtol_l.isra.0+0x8e>
 8003830:	1c5a      	adds	r2, r3, #1
 8003832:	d108      	bne.n	8003846 <_strtol_l.isra.0+0xe2>
 8003834:	9a05      	ldr	r2, [sp, #20]
 8003836:	3323      	adds	r3, #35	; 0x23
 8003838:	6013      	str	r3, [r2, #0]
 800383a:	9b02      	ldr	r3, [sp, #8]
 800383c:	0030      	movs	r0, r6
 800383e:	2b00      	cmp	r3, #0
 8003840:	d10b      	bne.n	800385a <_strtol_l.isra.0+0xf6>
 8003842:	b007      	add	sp, #28
 8003844:	bdf0      	pop	{r4, r5, r6, r7, pc}
 8003846:	9a01      	ldr	r2, [sp, #4]
 8003848:	2a00      	cmp	r2, #0
 800384a:	d000      	beq.n	800384e <_strtol_l.isra.0+0xea>
 800384c:	4240      	negs	r0, r0
 800384e:	9a02      	ldr	r2, [sp, #8]
 8003850:	2a00      	cmp	r2, #0
 8003852:	d0f6      	beq.n	8003842 <_strtol_l.isra.0+0xde>
 8003854:	9a03      	ldr	r2, [sp, #12]
 8003856:	2b00      	cmp	r3, #0
 8003858:	d000      	beq.n	800385c <_strtol_l.isra.0+0xf8>
 800385a:	1e6a      	subs	r2, r5, #1
 800385c:	9b02      	ldr	r3, [sp, #8]
 800385e:	601a      	str	r2, [r3, #0]
 8003860:	e7ef      	b.n	8003842 <_strtol_l.isra.0+0xde>
 8003862:	2430      	movs	r4, #48	; 0x30
 8003864:	2f00      	cmp	r7, #0
 8003866:	d1ad      	bne.n	80037c4 <_strtol_l.isra.0+0x60>
 8003868:	3708      	adds	r7, #8
 800386a:	e7ab      	b.n	80037c4 <_strtol_l.isra.0+0x60>
 800386c:	7fffffff 	.word	0x7fffffff

08003870 <strtol>:
 8003870:	b537      	push	{r0, r1, r2, r4, r5, lr}
 8003872:	0013      	movs	r3, r2
 8003874:	4a06      	ldr	r2, [pc, #24]	; (8003890 <strtol+0x20>)
 8003876:	0005      	movs	r5, r0
 8003878:	6810      	ldr	r0, [r2, #0]
 800387a:	6a04      	ldr	r4, [r0, #32]
 800387c:	2c00      	cmp	r4, #0
 800387e:	d100      	bne.n	8003882 <strtol+0x12>
 8003880:	4c04      	ldr	r4, [pc, #16]	; (8003894 <strtol+0x24>)
 8003882:	000a      	movs	r2, r1
 8003884:	9400      	str	r4, [sp, #0]
 8003886:	0029      	movs	r1, r5
 8003888:	f7ff ff6c 	bl	8003764 <_strtol_l.isra.0>
 800388c:	bd3e      	pop	{r1, r2, r3, r4, r5, pc}
 800388e:	46c0      	nop			; (mov r8, r8)
 8003890:	2000002c 	.word	0x2000002c
 8003894:	20000090 	.word	0x20000090

08003898 <__locale_ctype_ptr_l>:
 8003898:	30ec      	adds	r0, #236	; 0xec
 800389a:	6800      	ldr	r0, [r0, #0]
 800389c:	4770      	bx	lr

0800389e <__ascii_mbtowc>:
 800389e:	b082      	sub	sp, #8
 80038a0:	2900      	cmp	r1, #0
 80038a2:	d100      	bne.n	80038a6 <__ascii_mbtowc+0x8>
 80038a4:	a901      	add	r1, sp, #4
 80038a6:	1e10      	subs	r0, r2, #0
 80038a8:	d006      	beq.n	80038b8 <__ascii_mbtowc+0x1a>
 80038aa:	2b00      	cmp	r3, #0
 80038ac:	d006      	beq.n	80038bc <__ascii_mbtowc+0x1e>
 80038ae:	7813      	ldrb	r3, [r2, #0]
 80038b0:	600b      	str	r3, [r1, #0]
 80038b2:	7810      	ldrb	r0, [r2, #0]
 80038b4:	1e43      	subs	r3, r0, #1
 80038b6:	4198      	sbcs	r0, r3
 80038b8:	b002      	add	sp, #8
 80038ba:	4770      	bx	lr
 80038bc:	2002      	movs	r0, #2
 80038be:	4240      	negs	r0, r0
 80038c0:	e7fa      	b.n	80038b8 <__ascii_mbtowc+0x1a>

080038c2 <__malloc_lock>:
 80038c2:	4770      	bx	lr

080038c4 <__malloc_unlock>:
 80038c4:	4770      	bx	lr
	...

080038c8 <__ssputs_r>:
 80038c8:	b5f0      	push	{r4, r5, r6, r7, lr}
 80038ca:	688e      	ldr	r6, [r1, #8]
 80038cc:	b085      	sub	sp, #20
 80038ce:	0007      	movs	r7, r0
 80038d0:	000c      	movs	r4, r1
 80038d2:	9203      	str	r2, [sp, #12]
 80038d4:	9301      	str	r3, [sp, #4]
 80038d6:	429e      	cmp	r6, r3
 80038d8:	d839      	bhi.n	800394e <__ssputs_r+0x86>
 80038da:	2390      	movs	r3, #144	; 0x90
 80038dc:	898a      	ldrh	r2, [r1, #12]
 80038de:	00db      	lsls	r3, r3, #3
 80038e0:	421a      	tst	r2, r3
 80038e2:	d034      	beq.n	800394e <__ssputs_r+0x86>
 80038e4:	2503      	movs	r5, #3
 80038e6:	6909      	ldr	r1, [r1, #16]
 80038e8:	6823      	ldr	r3, [r4, #0]
 80038ea:	1a5b      	subs	r3, r3, r1
 80038ec:	9302      	str	r3, [sp, #8]
 80038ee:	6963      	ldr	r3, [r4, #20]
 80038f0:	9802      	ldr	r0, [sp, #8]
 80038f2:	435d      	muls	r5, r3
 80038f4:	0feb      	lsrs	r3, r5, #31
 80038f6:	195d      	adds	r5, r3, r5
 80038f8:	9b01      	ldr	r3, [sp, #4]
 80038fa:	106d      	asrs	r5, r5, #1
 80038fc:	3301      	adds	r3, #1
 80038fe:	181b      	adds	r3, r3, r0
 8003900:	42ab      	cmp	r3, r5
 8003902:	d900      	bls.n	8003906 <__ssputs_r+0x3e>
 8003904:	001d      	movs	r5, r3
 8003906:	0553      	lsls	r3, r2, #21
 8003908:	d532      	bpl.n	8003970 <__ssputs_r+0xa8>
 800390a:	0029      	movs	r1, r5
 800390c:	0038      	movs	r0, r7
 800390e:	f7ff fe97 	bl	8003640 <_malloc_r>
 8003912:	1e06      	subs	r6, r0, #0
 8003914:	d109      	bne.n	800392a <__ssputs_r+0x62>
 8003916:	230c      	movs	r3, #12
 8003918:	603b      	str	r3, [r7, #0]
 800391a:	2340      	movs	r3, #64	; 0x40
 800391c:	2001      	movs	r0, #1
 800391e:	89a2      	ldrh	r2, [r4, #12]
 8003920:	4240      	negs	r0, r0
 8003922:	4313      	orrs	r3, r2
 8003924:	81a3      	strh	r3, [r4, #12]
 8003926:	b005      	add	sp, #20
 8003928:	bdf0      	pop	{r4, r5, r6, r7, pc}
 800392a:	9a02      	ldr	r2, [sp, #8]
 800392c:	6921      	ldr	r1, [r4, #16]
 800392e:	f7ff fe2b 	bl	8003588 <memcpy>
 8003932:	89a3      	ldrh	r3, [r4, #12]
 8003934:	4a14      	ldr	r2, [pc, #80]	; (8003988 <__ssputs_r+0xc0>)
 8003936:	401a      	ands	r2, r3
 8003938:	2380      	movs	r3, #128	; 0x80
 800393a:	4313      	orrs	r3, r2
 800393c:	81a3      	strh	r3, [r4, #12]
 800393e:	9b02      	ldr	r3, [sp, #8]
 8003940:	6126      	str	r6, [r4, #16]
 8003942:	18f6      	adds	r6, r6, r3
 8003944:	6026      	str	r6, [r4, #0]
 8003946:	6165      	str	r5, [r4, #20]
 8003948:	9e01      	ldr	r6, [sp, #4]
 800394a:	1aed      	subs	r5, r5, r3
 800394c:	60a5      	str	r5, [r4, #8]
 800394e:	9b01      	ldr	r3, [sp, #4]
 8003950:	42b3      	cmp	r3, r6
 8003952:	d200      	bcs.n	8003956 <__ssputs_r+0x8e>
 8003954:	001e      	movs	r6, r3
 8003956:	0032      	movs	r2, r6
 8003958:	9903      	ldr	r1, [sp, #12]
 800395a:	6820      	ldr	r0, [r4, #0]
 800395c:	f000 fab9 	bl	8003ed2 <memmove>
 8003960:	68a3      	ldr	r3, [r4, #8]
 8003962:	2000      	movs	r0, #0
 8003964:	1b9b      	subs	r3, r3, r6
 8003966:	60a3      	str	r3, [r4, #8]
 8003968:	6823      	ldr	r3, [r4, #0]
 800396a:	199e      	adds	r6, r3, r6
 800396c:	6026      	str	r6, [r4, #0]
 800396e:	e7da      	b.n	8003926 <__ssputs_r+0x5e>
 8003970:	002a      	movs	r2, r5
 8003972:	0038      	movs	r0, r7
 8003974:	f000 fabf 	bl	8003ef6 <_realloc_r>
 8003978:	1e06      	subs	r6, r0, #0
 800397a:	d1e0      	bne.n	800393e <__ssputs_r+0x76>
 800397c:	6921      	ldr	r1, [r4, #16]
 800397e:	0038      	movs	r0, r7
 8003980:	f7ff fe14 	bl	80035ac <_free_r>
 8003984:	e7c7      	b.n	8003916 <__ssputs_r+0x4e>
 8003986:	46c0      	nop			; (mov r8, r8)
 8003988:	fffffb7f 	.word	0xfffffb7f

0800398c <_svfiprintf_r>:
 800398c:	b5f0      	push	{r4, r5, r6, r7, lr}
 800398e:	b09f      	sub	sp, #124	; 0x7c
 8003990:	9002      	str	r0, [sp, #8]
 8003992:	9305      	str	r3, [sp, #20]
 8003994:	898b      	ldrh	r3, [r1, #12]
 8003996:	000f      	movs	r7, r1
 8003998:	0016      	movs	r6, r2
 800399a:	061b      	lsls	r3, r3, #24
 800399c:	d511      	bpl.n	80039c2 <_svfiprintf_r+0x36>
 800399e:	690b      	ldr	r3, [r1, #16]
 80039a0:	2b00      	cmp	r3, #0
 80039a2:	d10e      	bne.n	80039c2 <_svfiprintf_r+0x36>
 80039a4:	2140      	movs	r1, #64	; 0x40
 80039a6:	f7ff fe4b 	bl	8003640 <_malloc_r>
 80039aa:	6038      	str	r0, [r7, #0]
 80039ac:	6138      	str	r0, [r7, #16]
 80039ae:	2800      	cmp	r0, #0
 80039b0:	d105      	bne.n	80039be <_svfiprintf_r+0x32>
 80039b2:	230c      	movs	r3, #12
 80039b4:	9a02      	ldr	r2, [sp, #8]
 80039b6:	3801      	subs	r0, #1
 80039b8:	6013      	str	r3, [r2, #0]
 80039ba:	b01f      	add	sp, #124	; 0x7c
 80039bc:	bdf0      	pop	{r4, r5, r6, r7, pc}
 80039be:	2340      	movs	r3, #64	; 0x40
 80039c0:	617b      	str	r3, [r7, #20]
 80039c2:	2300      	movs	r3, #0
 80039c4:	ad06      	add	r5, sp, #24
 80039c6:	616b      	str	r3, [r5, #20]
 80039c8:	3320      	adds	r3, #32
 80039ca:	766b      	strb	r3, [r5, #25]
 80039cc:	3310      	adds	r3, #16
 80039ce:	76ab      	strb	r3, [r5, #26]
 80039d0:	0034      	movs	r4, r6
 80039d2:	7823      	ldrb	r3, [r4, #0]
 80039d4:	2b00      	cmp	r3, #0
 80039d6:	d147      	bne.n	8003a68 <_svfiprintf_r+0xdc>
 80039d8:	1ba3      	subs	r3, r4, r6
 80039da:	9304      	str	r3, [sp, #16]
 80039dc:	d00d      	beq.n	80039fa <_svfiprintf_r+0x6e>
 80039de:	1ba3      	subs	r3, r4, r6
 80039e0:	0032      	movs	r2, r6
 80039e2:	0039      	movs	r1, r7
 80039e4:	9802      	ldr	r0, [sp, #8]
 80039e6:	f7ff ff6f 	bl	80038c8 <__ssputs_r>
 80039ea:	1c43      	adds	r3, r0, #1
 80039ec:	d100      	bne.n	80039f0 <_svfiprintf_r+0x64>
 80039ee:	e0b5      	b.n	8003b5c <_svfiprintf_r+0x1d0>
 80039f0:	696a      	ldr	r2, [r5, #20]
 80039f2:	9b04      	ldr	r3, [sp, #16]
 80039f4:	4694      	mov	ip, r2
 80039f6:	4463      	add	r3, ip
 80039f8:	616b      	str	r3, [r5, #20]
 80039fa:	7823      	ldrb	r3, [r4, #0]
 80039fc:	2b00      	cmp	r3, #0
 80039fe:	d100      	bne.n	8003a02 <_svfiprintf_r+0x76>
 8003a00:	e0ac      	b.n	8003b5c <_svfiprintf_r+0x1d0>
 8003a02:	2201      	movs	r2, #1
 8003a04:	2300      	movs	r3, #0
 8003a06:	4252      	negs	r2, r2
 8003a08:	606a      	str	r2, [r5, #4]
 8003a0a:	a902      	add	r1, sp, #8
 8003a0c:	3254      	adds	r2, #84	; 0x54
 8003a0e:	1852      	adds	r2, r2, r1
 8003a10:	3401      	adds	r4, #1
 8003a12:	602b      	str	r3, [r5, #0]
 8003a14:	60eb      	str	r3, [r5, #12]
 8003a16:	60ab      	str	r3, [r5, #8]
 8003a18:	7013      	strb	r3, [r2, #0]
 8003a1a:	65ab      	str	r3, [r5, #88]	; 0x58
 8003a1c:	4e58      	ldr	r6, [pc, #352]	; (8003b80 <_svfiprintf_r+0x1f4>)
 8003a1e:	2205      	movs	r2, #5
 8003a20:	7821      	ldrb	r1, [r4, #0]
 8003a22:	0030      	movs	r0, r6
 8003a24:	f000 fa4a 	bl	8003ebc <memchr>
 8003a28:	1c62      	adds	r2, r4, #1
 8003a2a:	2800      	cmp	r0, #0
 8003a2c:	d120      	bne.n	8003a70 <_svfiprintf_r+0xe4>
 8003a2e:	6829      	ldr	r1, [r5, #0]
 8003a30:	06cb      	lsls	r3, r1, #27
 8003a32:	d504      	bpl.n	8003a3e <_svfiprintf_r+0xb2>
 8003a34:	2353      	movs	r3, #83	; 0x53
 8003a36:	ae02      	add	r6, sp, #8
 8003a38:	3020      	adds	r0, #32
 8003a3a:	199b      	adds	r3, r3, r6
 8003a3c:	7018      	strb	r0, [r3, #0]
 8003a3e:	070b      	lsls	r3, r1, #28
 8003a40:	d504      	bpl.n	8003a4c <_svfiprintf_r+0xc0>
 8003a42:	2353      	movs	r3, #83	; 0x53
 8003a44:	202b      	movs	r0, #43	; 0x2b
 8003a46:	ae02      	add	r6, sp, #8
 8003a48:	199b      	adds	r3, r3, r6
 8003a4a:	7018      	strb	r0, [r3, #0]
 8003a4c:	7823      	ldrb	r3, [r4, #0]
 8003a4e:	2b2a      	cmp	r3, #42	; 0x2a
 8003a50:	d016      	beq.n	8003a80 <_svfiprintf_r+0xf4>
 8003a52:	2000      	movs	r0, #0
 8003a54:	210a      	movs	r1, #10
 8003a56:	9b09      	ldr	r3, [sp, #36]	; 0x24
 8003a58:	7822      	ldrb	r2, [r4, #0]
 8003a5a:	3a30      	subs	r2, #48	; 0x30
 8003a5c:	2a09      	cmp	r2, #9
 8003a5e:	d955      	bls.n	8003b0c <_svfiprintf_r+0x180>
 8003a60:	2800      	cmp	r0, #0
 8003a62:	d015      	beq.n	8003a90 <_svfiprintf_r+0x104>
 8003a64:	9309      	str	r3, [sp, #36]	; 0x24
 8003a66:	e013      	b.n	8003a90 <_svfiprintf_r+0x104>
 8003a68:	2b25      	cmp	r3, #37	; 0x25
 8003a6a:	d0b5      	beq.n	80039d8 <_svfiprintf_r+0x4c>
 8003a6c:	3401      	adds	r4, #1
 8003a6e:	e7b0      	b.n	80039d2 <_svfiprintf_r+0x46>
 8003a70:	2301      	movs	r3, #1
 8003a72:	1b80      	subs	r0, r0, r6
 8003a74:	4083      	lsls	r3, r0
 8003a76:	6829      	ldr	r1, [r5, #0]
 8003a78:	0014      	movs	r4, r2
 8003a7a:	430b      	orrs	r3, r1
 8003a7c:	602b      	str	r3, [r5, #0]
 8003a7e:	e7cd      	b.n	8003a1c <_svfiprintf_r+0x90>
 8003a80:	9b05      	ldr	r3, [sp, #20]
 8003a82:	1d18      	adds	r0, r3, #4
 8003a84:	681b      	ldr	r3, [r3, #0]
 8003a86:	9005      	str	r0, [sp, #20]
 8003a88:	2b00      	cmp	r3, #0
 8003a8a:	db39      	blt.n	8003b00 <_svfiprintf_r+0x174>
 8003a8c:	9309      	str	r3, [sp, #36]	; 0x24
 8003a8e:	0014      	movs	r4, r2
 8003a90:	7823      	ldrb	r3, [r4, #0]
 8003a92:	2b2e      	cmp	r3, #46	; 0x2e
 8003a94:	d10b      	bne.n	8003aae <_svfiprintf_r+0x122>
 8003a96:	7863      	ldrb	r3, [r4, #1]
 8003a98:	1c62      	adds	r2, r4, #1
 8003a9a:	2b2a      	cmp	r3, #42	; 0x2a
 8003a9c:	d13e      	bne.n	8003b1c <_svfiprintf_r+0x190>
 8003a9e:	9b05      	ldr	r3, [sp, #20]
 8003aa0:	3402      	adds	r4, #2
 8003aa2:	1d1a      	adds	r2, r3, #4
 8003aa4:	681b      	ldr	r3, [r3, #0]
 8003aa6:	9205      	str	r2, [sp, #20]
 8003aa8:	2b00      	cmp	r3, #0
 8003aaa:	db34      	blt.n	8003b16 <_svfiprintf_r+0x18a>
 8003aac:	9307      	str	r3, [sp, #28]
 8003aae:	4e35      	ldr	r6, [pc, #212]	; (8003b84 <_svfiprintf_r+0x1f8>)
 8003ab0:	7821      	ldrb	r1, [r4, #0]
 8003ab2:	2203      	movs	r2, #3
 8003ab4:	0030      	movs	r0, r6
 8003ab6:	f000 fa01 	bl	8003ebc <memchr>
 8003aba:	2800      	cmp	r0, #0
 8003abc:	d006      	beq.n	8003acc <_svfiprintf_r+0x140>
 8003abe:	2340      	movs	r3, #64	; 0x40
 8003ac0:	1b80      	subs	r0, r0, r6
 8003ac2:	4083      	lsls	r3, r0
 8003ac4:	682a      	ldr	r2, [r5, #0]
 8003ac6:	3401      	adds	r4, #1
 8003ac8:	4313      	orrs	r3, r2
 8003aca:	602b      	str	r3, [r5, #0]
 8003acc:	7821      	ldrb	r1, [r4, #0]
 8003ace:	2206      	movs	r2, #6
 8003ad0:	482d      	ldr	r0, [pc, #180]	; (8003b88 <_svfiprintf_r+0x1fc>)
 8003ad2:	1c66      	adds	r6, r4, #1
 8003ad4:	7629      	strb	r1, [r5, #24]
 8003ad6:	f000 f9f1 	bl	8003ebc <memchr>
 8003ada:	2800      	cmp	r0, #0
 8003adc:	d046      	beq.n	8003b6c <_svfiprintf_r+0x1e0>
 8003ade:	4b2b      	ldr	r3, [pc, #172]	; (8003b8c <_svfiprintf_r+0x200>)
 8003ae0:	2b00      	cmp	r3, #0
 8003ae2:	d12f      	bne.n	8003b44 <_svfiprintf_r+0x1b8>
 8003ae4:	6829      	ldr	r1, [r5, #0]
 8003ae6:	9b05      	ldr	r3, [sp, #20]
 8003ae8:	2207      	movs	r2, #7
 8003aea:	05c9      	lsls	r1, r1, #23
 8003aec:	d528      	bpl.n	8003b40 <_svfiprintf_r+0x1b4>
 8003aee:	189b      	adds	r3, r3, r2
 8003af0:	4393      	bics	r3, r2
 8003af2:	3308      	adds	r3, #8
 8003af4:	9305      	str	r3, [sp, #20]
 8003af6:	696b      	ldr	r3, [r5, #20]
 8003af8:	9a03      	ldr	r2, [sp, #12]
 8003afa:	189b      	adds	r3, r3, r2
 8003afc:	616b      	str	r3, [r5, #20]
 8003afe:	e767      	b.n	80039d0 <_svfiprintf_r+0x44>
 8003b00:	425b      	negs	r3, r3
 8003b02:	60eb      	str	r3, [r5, #12]
 8003b04:	2302      	movs	r3, #2
 8003b06:	430b      	orrs	r3, r1
 8003b08:	602b      	str	r3, [r5, #0]
 8003b0a:	e7c0      	b.n	8003a8e <_svfiprintf_r+0x102>
 8003b0c:	434b      	muls	r3, r1
 8003b0e:	3401      	adds	r4, #1
 8003b10:	189b      	adds	r3, r3, r2
 8003b12:	2001      	movs	r0, #1
 8003b14:	e7a0      	b.n	8003a58 <_svfiprintf_r+0xcc>
 8003b16:	2301      	movs	r3, #1
 8003b18:	425b      	negs	r3, r3
 8003b1a:	e7c7      	b.n	8003aac <_svfiprintf_r+0x120>
 8003b1c:	2300      	movs	r3, #0
 8003b1e:	0014      	movs	r4, r2
 8003b20:	200a      	movs	r0, #10
 8003b22:	001a      	movs	r2, r3
 8003b24:	606b      	str	r3, [r5, #4]
 8003b26:	7821      	ldrb	r1, [r4, #0]
 8003b28:	3930      	subs	r1, #48	; 0x30
 8003b2a:	2909      	cmp	r1, #9
 8003b2c:	d903      	bls.n	8003b36 <_svfiprintf_r+0x1aa>
 8003b2e:	2b00      	cmp	r3, #0
 8003b30:	d0bd      	beq.n	8003aae <_svfiprintf_r+0x122>
 8003b32:	9207      	str	r2, [sp, #28]
 8003b34:	e7bb      	b.n	8003aae <_svfiprintf_r+0x122>
 8003b36:	4342      	muls	r2, r0
 8003b38:	3401      	adds	r4, #1
 8003b3a:	1852      	adds	r2, r2, r1
 8003b3c:	2301      	movs	r3, #1
 8003b3e:	e7f2      	b.n	8003b26 <_svfiprintf_r+0x19a>
 8003b40:	3307      	adds	r3, #7
 8003b42:	e7d5      	b.n	8003af0 <_svfiprintf_r+0x164>
 8003b44:	ab05      	add	r3, sp, #20
 8003b46:	9300      	str	r3, [sp, #0]
 8003b48:	003a      	movs	r2, r7
 8003b4a:	4b11      	ldr	r3, [pc, #68]	; (8003b90 <_svfiprintf_r+0x204>)
 8003b4c:	0029      	movs	r1, r5
 8003b4e:	9802      	ldr	r0, [sp, #8]
 8003b50:	e000      	b.n	8003b54 <_svfiprintf_r+0x1c8>
 8003b52:	bf00      	nop
 8003b54:	9003      	str	r0, [sp, #12]
 8003b56:	9b03      	ldr	r3, [sp, #12]
 8003b58:	3301      	adds	r3, #1
 8003b5a:	d1cc      	bne.n	8003af6 <_svfiprintf_r+0x16a>
 8003b5c:	89bb      	ldrh	r3, [r7, #12]
 8003b5e:	980b      	ldr	r0, [sp, #44]	; 0x2c
 8003b60:	065b      	lsls	r3, r3, #25
 8003b62:	d400      	bmi.n	8003b66 <_svfiprintf_r+0x1da>
 8003b64:	e729      	b.n	80039ba <_svfiprintf_r+0x2e>
 8003b66:	2001      	movs	r0, #1
 8003b68:	4240      	negs	r0, r0
 8003b6a:	e726      	b.n	80039ba <_svfiprintf_r+0x2e>
 8003b6c:	ab05      	add	r3, sp, #20
 8003b6e:	9300      	str	r3, [sp, #0]
 8003b70:	003a      	movs	r2, r7
 8003b72:	4b07      	ldr	r3, [pc, #28]	; (8003b90 <_svfiprintf_r+0x204>)
 8003b74:	0029      	movs	r1, r5
 8003b76:	9802      	ldr	r0, [sp, #8]
 8003b78:	f000 f87a 	bl	8003c70 <_printf_i>
 8003b7c:	e7ea      	b.n	8003b54 <_svfiprintf_r+0x1c8>
 8003b7e:	46c0      	nop			; (mov r8, r8)
 8003b80:	08004106 	.word	0x08004106
 8003b84:	0800410c 	.word	0x0800410c
 8003b88:	08004110 	.word	0x08004110
 8003b8c:	00000000 	.word	0x00000000
 8003b90:	080038c9 	.word	0x080038c9

08003b94 <_printf_common>:
 8003b94:	b5f7      	push	{r0, r1, r2, r4, r5, r6, r7, lr}
 8003b96:	0015      	movs	r5, r2
 8003b98:	9301      	str	r3, [sp, #4]
 8003b9a:	688a      	ldr	r2, [r1, #8]
 8003b9c:	690b      	ldr	r3, [r1, #16]
 8003b9e:	9000      	str	r0, [sp, #0]
 8003ba0:	000c      	movs	r4, r1
 8003ba2:	4293      	cmp	r3, r2
 8003ba4:	da00      	bge.n	8003ba8 <_printf_common+0x14>
 8003ba6:	0013      	movs	r3, r2
 8003ba8:	0022      	movs	r2, r4
 8003baa:	602b      	str	r3, [r5, #0]
 8003bac:	3243      	adds	r2, #67	; 0x43
 8003bae:	7812      	ldrb	r2, [r2, #0]
 8003bb0:	2a00      	cmp	r2, #0
 8003bb2:	d001      	beq.n	8003bb8 <_printf_common+0x24>
 8003bb4:	3301      	adds	r3, #1
 8003bb6:	602b      	str	r3, [r5, #0]
 8003bb8:	6823      	ldr	r3, [r4, #0]
 8003bba:	069b      	lsls	r3, r3, #26
 8003bbc:	d502      	bpl.n	8003bc4 <_printf_common+0x30>
 8003bbe:	682b      	ldr	r3, [r5, #0]
 8003bc0:	3302      	adds	r3, #2
 8003bc2:	602b      	str	r3, [r5, #0]
 8003bc4:	2706      	movs	r7, #6
 8003bc6:	6823      	ldr	r3, [r4, #0]
 8003bc8:	401f      	ands	r7, r3
 8003bca:	d027      	beq.n	8003c1c <_printf_common+0x88>
 8003bcc:	0023      	movs	r3, r4
 8003bce:	3343      	adds	r3, #67	; 0x43
 8003bd0:	781b      	ldrb	r3, [r3, #0]
 8003bd2:	1e5a      	subs	r2, r3, #1
 8003bd4:	4193      	sbcs	r3, r2
 8003bd6:	6822      	ldr	r2, [r4, #0]
 8003bd8:	0692      	lsls	r2, r2, #26
 8003bda:	d430      	bmi.n	8003c3e <_printf_common+0xaa>
 8003bdc:	0022      	movs	r2, r4
 8003bde:	9901      	ldr	r1, [sp, #4]
 8003be0:	3243      	adds	r2, #67	; 0x43
 8003be2:	9800      	ldr	r0, [sp, #0]
 8003be4:	9e08      	ldr	r6, [sp, #32]
 8003be6:	47b0      	blx	r6
 8003be8:	1c43      	adds	r3, r0, #1
 8003bea:	d025      	beq.n	8003c38 <_printf_common+0xa4>
 8003bec:	2306      	movs	r3, #6
 8003bee:	6820      	ldr	r0, [r4, #0]
 8003bf0:	682a      	ldr	r2, [r5, #0]
 8003bf2:	68e1      	ldr	r1, [r4, #12]
 8003bf4:	4003      	ands	r3, r0
 8003bf6:	2500      	movs	r5, #0
 8003bf8:	2b04      	cmp	r3, #4
 8003bfa:	d103      	bne.n	8003c04 <_printf_common+0x70>
 8003bfc:	1a8d      	subs	r5, r1, r2
 8003bfe:	43eb      	mvns	r3, r5
 8003c00:	17db      	asrs	r3, r3, #31
 8003c02:	401d      	ands	r5, r3
 8003c04:	68a3      	ldr	r3, [r4, #8]
 8003c06:	6922      	ldr	r2, [r4, #16]
 8003c08:	4293      	cmp	r3, r2
 8003c0a:	dd01      	ble.n	8003c10 <_printf_common+0x7c>
 8003c0c:	1a9b      	subs	r3, r3, r2
 8003c0e:	18ed      	adds	r5, r5, r3
 8003c10:	2700      	movs	r7, #0
 8003c12:	42bd      	cmp	r5, r7
 8003c14:	d120      	bne.n	8003c58 <_printf_common+0xc4>
 8003c16:	2000      	movs	r0, #0
 8003c18:	e010      	b.n	8003c3c <_printf_common+0xa8>
 8003c1a:	3701      	adds	r7, #1
 8003c1c:	68e3      	ldr	r3, [r4, #12]
 8003c1e:	682a      	ldr	r2, [r5, #0]
 8003c20:	1a9b      	subs	r3, r3, r2
 8003c22:	429f      	cmp	r7, r3
 8003c24:	dad2      	bge.n	8003bcc <_printf_common+0x38>
 8003c26:	0022      	movs	r2, r4
 8003c28:	2301      	movs	r3, #1
 8003c2a:	3219      	adds	r2, #25
 8003c2c:	9901      	ldr	r1, [sp, #4]
 8003c2e:	9800      	ldr	r0, [sp, #0]
 8003c30:	9e08      	ldr	r6, [sp, #32]
 8003c32:	47b0      	blx	r6
 8003c34:	1c43      	adds	r3, r0, #1
 8003c36:	d1f0      	bne.n	8003c1a <_printf_common+0x86>
 8003c38:	2001      	movs	r0, #1
 8003c3a:	4240      	negs	r0, r0
 8003c3c:	bdfe      	pop	{r1, r2, r3, r4, r5, r6, r7, pc}
 8003c3e:	2030      	movs	r0, #48	; 0x30
 8003c40:	18e1      	adds	r1, r4, r3
 8003c42:	3143      	adds	r1, #67	; 0x43
 8003c44:	7008      	strb	r0, [r1, #0]
 8003c46:	0021      	movs	r1, r4
 8003c48:	1c5a      	adds	r2, r3, #1
 8003c4a:	3145      	adds	r1, #69	; 0x45
 8003c4c:	7809      	ldrb	r1, [r1, #0]
 8003c4e:	18a2      	adds	r2, r4, r2
 8003c50:	3243      	adds	r2, #67	; 0x43
 8003c52:	3302      	adds	r3, #2
 8003c54:	7011      	strb	r1, [r2, #0]
 8003c56:	e7c1      	b.n	8003bdc <_printf_common+0x48>
 8003c58:	0022      	movs	r2, r4
 8003c5a:	2301      	movs	r3, #1
 8003c5c:	321a      	adds	r2, #26
 8003c5e:	9901      	ldr	r1, [sp, #4]
 8003c60:	9800      	ldr	r0, [sp, #0]
 8003c62:	9e08      	ldr	r6, [sp, #32]
 8003c64:	47b0      	blx	r6
 8003c66:	1c43      	adds	r3, r0, #1
 8003c68:	d0e6      	beq.n	8003c38 <_printf_common+0xa4>
 8003c6a:	3701      	adds	r7, #1
 8003c6c:	e7d1      	b.n	8003c12 <_printf_common+0x7e>
	...

08003c70 <_printf_i>:
 8003c70:	b5f0      	push	{r4, r5, r6, r7, lr}
 8003c72:	b08b      	sub	sp, #44	; 0x2c
 8003c74:	9206      	str	r2, [sp, #24]
 8003c76:	000a      	movs	r2, r1
 8003c78:	3243      	adds	r2, #67	; 0x43
 8003c7a:	9307      	str	r3, [sp, #28]
 8003c7c:	9005      	str	r0, [sp, #20]
 8003c7e:	9204      	str	r2, [sp, #16]
 8003c80:	7e0a      	ldrb	r2, [r1, #24]
 8003c82:	000c      	movs	r4, r1
 8003c84:	9b10      	ldr	r3, [sp, #64]	; 0x40
 8003c86:	2a6e      	cmp	r2, #110	; 0x6e
 8003c88:	d100      	bne.n	8003c8c <_printf_i+0x1c>
 8003c8a:	e08f      	b.n	8003dac <_printf_i+0x13c>
 8003c8c:	d817      	bhi.n	8003cbe <_printf_i+0x4e>
 8003c8e:	2a63      	cmp	r2, #99	; 0x63
 8003c90:	d02c      	beq.n	8003cec <_printf_i+0x7c>
 8003c92:	d808      	bhi.n	8003ca6 <_printf_i+0x36>
 8003c94:	2a00      	cmp	r2, #0
 8003c96:	d100      	bne.n	8003c9a <_printf_i+0x2a>
 8003c98:	e099      	b.n	8003dce <_printf_i+0x15e>
 8003c9a:	2a58      	cmp	r2, #88	; 0x58
 8003c9c:	d054      	beq.n	8003d48 <_printf_i+0xd8>
 8003c9e:	0026      	movs	r6, r4
 8003ca0:	3642      	adds	r6, #66	; 0x42
 8003ca2:	7032      	strb	r2, [r6, #0]
 8003ca4:	e029      	b.n	8003cfa <_printf_i+0x8a>
 8003ca6:	2a64      	cmp	r2, #100	; 0x64
 8003ca8:	d001      	beq.n	8003cae <_printf_i+0x3e>
 8003caa:	2a69      	cmp	r2, #105	; 0x69
 8003cac:	d1f7      	bne.n	8003c9e <_printf_i+0x2e>
 8003cae:	6821      	ldr	r1, [r4, #0]
 8003cb0:	681a      	ldr	r2, [r3, #0]
 8003cb2:	0608      	lsls	r0, r1, #24
 8003cb4:	d523      	bpl.n	8003cfe <_printf_i+0x8e>
 8003cb6:	1d11      	adds	r1, r2, #4
 8003cb8:	6019      	str	r1, [r3, #0]
 8003cba:	6815      	ldr	r5, [r2, #0]
 8003cbc:	e025      	b.n	8003d0a <_printf_i+0x9a>
 8003cbe:	2a73      	cmp	r2, #115	; 0x73
 8003cc0:	d100      	bne.n	8003cc4 <_printf_i+0x54>
 8003cc2:	e088      	b.n	8003dd6 <_printf_i+0x166>
 8003cc4:	d808      	bhi.n	8003cd8 <_printf_i+0x68>
 8003cc6:	2a6f      	cmp	r2, #111	; 0x6f
 8003cc8:	d029      	beq.n	8003d1e <_printf_i+0xae>
 8003cca:	2a70      	cmp	r2, #112	; 0x70
 8003ccc:	d1e7      	bne.n	8003c9e <_printf_i+0x2e>
 8003cce:	2220      	movs	r2, #32
 8003cd0:	6809      	ldr	r1, [r1, #0]
 8003cd2:	430a      	orrs	r2, r1
 8003cd4:	6022      	str	r2, [r4, #0]
 8003cd6:	e003      	b.n	8003ce0 <_printf_i+0x70>
 8003cd8:	2a75      	cmp	r2, #117	; 0x75
 8003cda:	d020      	beq.n	8003d1e <_printf_i+0xae>
 8003cdc:	2a78      	cmp	r2, #120	; 0x78
 8003cde:	d1de      	bne.n	8003c9e <_printf_i+0x2e>
 8003ce0:	0022      	movs	r2, r4
 8003ce2:	2178      	movs	r1, #120	; 0x78
 8003ce4:	3245      	adds	r2, #69	; 0x45
 8003ce6:	7011      	strb	r1, [r2, #0]
 8003ce8:	4a6c      	ldr	r2, [pc, #432]	; (8003e9c <_printf_i+0x22c>)
 8003cea:	e030      	b.n	8003d4e <_printf_i+0xde>
 8003cec:	000e      	movs	r6, r1
 8003cee:	681a      	ldr	r2, [r3, #0]
 8003cf0:	3642      	adds	r6, #66	; 0x42
 8003cf2:	1d11      	adds	r1, r2, #4
 8003cf4:	6019      	str	r1, [r3, #0]
 8003cf6:	6813      	ldr	r3, [r2, #0]
 8003cf8:	7033      	strb	r3, [r6, #0]
 8003cfa:	2301      	movs	r3, #1
 8003cfc:	e079      	b.n	8003df2 <_printf_i+0x182>
 8003cfe:	0649      	lsls	r1, r1, #25
 8003d00:	d5d9      	bpl.n	8003cb6 <_printf_i+0x46>
 8003d02:	1d11      	adds	r1, r2, #4
 8003d04:	6019      	str	r1, [r3, #0]
 8003d06:	2300      	movs	r3, #0
 8003d08:	5ed5      	ldrsh	r5, [r2, r3]
 8003d0a:	2d00      	cmp	r5, #0
 8003d0c:	da03      	bge.n	8003d16 <_printf_i+0xa6>
 8003d0e:	232d      	movs	r3, #45	; 0x2d
 8003d10:	9a04      	ldr	r2, [sp, #16]
 8003d12:	426d      	negs	r5, r5
 8003d14:	7013      	strb	r3, [r2, #0]
 8003d16:	4b62      	ldr	r3, [pc, #392]	; (8003ea0 <_printf_i+0x230>)
 8003d18:	270a      	movs	r7, #10
 8003d1a:	9303      	str	r3, [sp, #12]
 8003d1c:	e02f      	b.n	8003d7e <_printf_i+0x10e>
 8003d1e:	6820      	ldr	r0, [r4, #0]
 8003d20:	6819      	ldr	r1, [r3, #0]
 8003d22:	0605      	lsls	r5, r0, #24
 8003d24:	d503      	bpl.n	8003d2e <_printf_i+0xbe>
 8003d26:	1d08      	adds	r0, r1, #4
 8003d28:	6018      	str	r0, [r3, #0]
 8003d2a:	680d      	ldr	r5, [r1, #0]
 8003d2c:	e005      	b.n	8003d3a <_printf_i+0xca>
 8003d2e:	0640      	lsls	r0, r0, #25
 8003d30:	d5f9      	bpl.n	8003d26 <_printf_i+0xb6>
 8003d32:	680d      	ldr	r5, [r1, #0]
 8003d34:	1d08      	adds	r0, r1, #4
 8003d36:	6018      	str	r0, [r3, #0]
 8003d38:	b2ad      	uxth	r5, r5
 8003d3a:	4b59      	ldr	r3, [pc, #356]	; (8003ea0 <_printf_i+0x230>)
 8003d3c:	2708      	movs	r7, #8
 8003d3e:	9303      	str	r3, [sp, #12]
 8003d40:	2a6f      	cmp	r2, #111	; 0x6f
 8003d42:	d018      	beq.n	8003d76 <_printf_i+0x106>
 8003d44:	270a      	movs	r7, #10
 8003d46:	e016      	b.n	8003d76 <_printf_i+0x106>
 8003d48:	3145      	adds	r1, #69	; 0x45
 8003d4a:	700a      	strb	r2, [r1, #0]
 8003d4c:	4a54      	ldr	r2, [pc, #336]	; (8003ea0 <_printf_i+0x230>)
 8003d4e:	9203      	str	r2, [sp, #12]
 8003d50:	681a      	ldr	r2, [r3, #0]
 8003d52:	6821      	ldr	r1, [r4, #0]
 8003d54:	1d10      	adds	r0, r2, #4
 8003d56:	6018      	str	r0, [r3, #0]
 8003d58:	6815      	ldr	r5, [r2, #0]
 8003d5a:	0608      	lsls	r0, r1, #24
 8003d5c:	d522      	bpl.n	8003da4 <_printf_i+0x134>
 8003d5e:	07cb      	lsls	r3, r1, #31
 8003d60:	d502      	bpl.n	8003d68 <_printf_i+0xf8>
 8003d62:	2320      	movs	r3, #32
 8003d64:	4319      	orrs	r1, r3
 8003d66:	6021      	str	r1, [r4, #0]
 8003d68:	2710      	movs	r7, #16
 8003d6a:	2d00      	cmp	r5, #0
 8003d6c:	d103      	bne.n	8003d76 <_printf_i+0x106>
 8003d6e:	2320      	movs	r3, #32
 8003d70:	6822      	ldr	r2, [r4, #0]
 8003d72:	439a      	bics	r2, r3
 8003d74:	6022      	str	r2, [r4, #0]
 8003d76:	0023      	movs	r3, r4
 8003d78:	2200      	movs	r2, #0
 8003d7a:	3343      	adds	r3, #67	; 0x43
 8003d7c:	701a      	strb	r2, [r3, #0]
 8003d7e:	6863      	ldr	r3, [r4, #4]
 8003d80:	60a3      	str	r3, [r4, #8]
 8003d82:	2b00      	cmp	r3, #0
 8003d84:	db5c      	blt.n	8003e40 <_printf_i+0x1d0>
 8003d86:	2204      	movs	r2, #4
 8003d88:	6821      	ldr	r1, [r4, #0]
 8003d8a:	4391      	bics	r1, r2
 8003d8c:	6021      	str	r1, [r4, #0]
 8003d8e:	2d00      	cmp	r5, #0
 8003d90:	d158      	bne.n	8003e44 <_printf_i+0x1d4>
 8003d92:	9e04      	ldr	r6, [sp, #16]
 8003d94:	2b00      	cmp	r3, #0
 8003d96:	d064      	beq.n	8003e62 <_printf_i+0x1f2>
 8003d98:	0026      	movs	r6, r4
 8003d9a:	9b03      	ldr	r3, [sp, #12]
 8003d9c:	3642      	adds	r6, #66	; 0x42
 8003d9e:	781b      	ldrb	r3, [r3, #0]
 8003da0:	7033      	strb	r3, [r6, #0]
 8003da2:	e05e      	b.n	8003e62 <_printf_i+0x1f2>
 8003da4:	0648      	lsls	r0, r1, #25
 8003da6:	d5da      	bpl.n	8003d5e <_printf_i+0xee>
 8003da8:	b2ad      	uxth	r5, r5
 8003daa:	e7d8      	b.n	8003d5e <_printf_i+0xee>
 8003dac:	6809      	ldr	r1, [r1, #0]
 8003dae:	681a      	ldr	r2, [r3, #0]
 8003db0:	0608      	lsls	r0, r1, #24
 8003db2:	d505      	bpl.n	8003dc0 <_printf_i+0x150>
 8003db4:	1d11      	adds	r1, r2, #4
 8003db6:	6019      	str	r1, [r3, #0]
 8003db8:	6813      	ldr	r3, [r2, #0]
 8003dba:	6962      	ldr	r2, [r4, #20]
 8003dbc:	601a      	str	r2, [r3, #0]
 8003dbe:	e006      	b.n	8003dce <_printf_i+0x15e>
 8003dc0:	0649      	lsls	r1, r1, #25
 8003dc2:	d5f7      	bpl.n	8003db4 <_printf_i+0x144>
 8003dc4:	1d11      	adds	r1, r2, #4
 8003dc6:	6019      	str	r1, [r3, #0]
 8003dc8:	6813      	ldr	r3, [r2, #0]
 8003dca:	8aa2      	ldrh	r2, [r4, #20]
 8003dcc:	801a      	strh	r2, [r3, #0]
 8003dce:	2300      	movs	r3, #0
 8003dd0:	9e04      	ldr	r6, [sp, #16]
 8003dd2:	6123      	str	r3, [r4, #16]
 8003dd4:	e054      	b.n	8003e80 <_printf_i+0x210>
 8003dd6:	681a      	ldr	r2, [r3, #0]
 8003dd8:	1d11      	adds	r1, r2, #4
 8003dda:	6019      	str	r1, [r3, #0]
 8003ddc:	6816      	ldr	r6, [r2, #0]
 8003dde:	2100      	movs	r1, #0
 8003de0:	6862      	ldr	r2, [r4, #4]
 8003de2:	0030      	movs	r0, r6
 8003de4:	f000 f86a 	bl	8003ebc <memchr>
 8003de8:	2800      	cmp	r0, #0
 8003dea:	d001      	beq.n	8003df0 <_printf_i+0x180>
 8003dec:	1b80      	subs	r0, r0, r6
 8003dee:	6060      	str	r0, [r4, #4]
 8003df0:	6863      	ldr	r3, [r4, #4]
 8003df2:	6123      	str	r3, [r4, #16]
 8003df4:	2300      	movs	r3, #0
 8003df6:	9a04      	ldr	r2, [sp, #16]
 8003df8:	7013      	strb	r3, [r2, #0]
 8003dfa:	e041      	b.n	8003e80 <_printf_i+0x210>
 8003dfc:	6923      	ldr	r3, [r4, #16]
 8003dfe:	0032      	movs	r2, r6
 8003e00:	9906      	ldr	r1, [sp, #24]
 8003e02:	9805      	ldr	r0, [sp, #20]
 8003e04:	9d07      	ldr	r5, [sp, #28]
 8003e06:	47a8      	blx	r5
 8003e08:	1c43      	adds	r3, r0, #1
 8003e0a:	d043      	beq.n	8003e94 <_printf_i+0x224>
 8003e0c:	6823      	ldr	r3, [r4, #0]
 8003e0e:	2500      	movs	r5, #0
 8003e10:	079b      	lsls	r3, r3, #30
 8003e12:	d40f      	bmi.n	8003e34 <_printf_i+0x1c4>
 8003e14:	9b09      	ldr	r3, [sp, #36]	; 0x24
 8003e16:	68e0      	ldr	r0, [r4, #12]
 8003e18:	4298      	cmp	r0, r3
 8003e1a:	da3d      	bge.n	8003e98 <_printf_i+0x228>
 8003e1c:	0018      	movs	r0, r3
 8003e1e:	e03b      	b.n	8003e98 <_printf_i+0x228>
 8003e20:	0022      	movs	r2, r4
 8003e22:	2301      	movs	r3, #1
 8003e24:	3219      	adds	r2, #25
 8003e26:	9906      	ldr	r1, [sp, #24]
 8003e28:	9805      	ldr	r0, [sp, #20]
 8003e2a:	9e07      	ldr	r6, [sp, #28]
 8003e2c:	47b0      	blx	r6
 8003e2e:	1c43      	adds	r3, r0, #1
 8003e30:	d030      	beq.n	8003e94 <_printf_i+0x224>
 8003e32:	3501      	adds	r5, #1
 8003e34:	68e3      	ldr	r3, [r4, #12]
 8003e36:	9a09      	ldr	r2, [sp, #36]	; 0x24
 8003e38:	1a9b      	subs	r3, r3, r2
 8003e3a:	429d      	cmp	r5, r3
 8003e3c:	dbf0      	blt.n	8003e20 <_printf_i+0x1b0>
 8003e3e:	e7e9      	b.n	8003e14 <_printf_i+0x1a4>
 8003e40:	2d00      	cmp	r5, #0
 8003e42:	d0a9      	beq.n	8003d98 <_printf_i+0x128>
 8003e44:	9e04      	ldr	r6, [sp, #16]
 8003e46:	0028      	movs	r0, r5
 8003e48:	0039      	movs	r1, r7
 8003e4a:	f7fc f9f5 	bl	8000238 <__aeabi_uidivmod>
 8003e4e:	9b03      	ldr	r3, [sp, #12]
 8003e50:	3e01      	subs	r6, #1
 8003e52:	5c5b      	ldrb	r3, [r3, r1]
 8003e54:	0028      	movs	r0, r5
 8003e56:	7033      	strb	r3, [r6, #0]
 8003e58:	0039      	movs	r1, r7
 8003e5a:	f7fc f967 	bl	800012c <__udivsi3>
 8003e5e:	1e05      	subs	r5, r0, #0
 8003e60:	d1f1      	bne.n	8003e46 <_printf_i+0x1d6>
 8003e62:	2f08      	cmp	r7, #8
 8003e64:	d109      	bne.n	8003e7a <_printf_i+0x20a>
 8003e66:	6823      	ldr	r3, [r4, #0]
 8003e68:	07db      	lsls	r3, r3, #31
 8003e6a:	d506      	bpl.n	8003e7a <_printf_i+0x20a>
 8003e6c:	6863      	ldr	r3, [r4, #4]
 8003e6e:	6922      	ldr	r2, [r4, #16]
 8003e70:	4293      	cmp	r3, r2
 8003e72:	dc02      	bgt.n	8003e7a <_printf_i+0x20a>
 8003e74:	2330      	movs	r3, #48	; 0x30
 8003e76:	3e01      	subs	r6, #1
 8003e78:	7033      	strb	r3, [r6, #0]
 8003e7a:	9b04      	ldr	r3, [sp, #16]
 8003e7c:	1b9b      	subs	r3, r3, r6
 8003e7e:	6123      	str	r3, [r4, #16]
 8003e80:	9b07      	ldr	r3, [sp, #28]
 8003e82:	aa09      	add	r2, sp, #36	; 0x24
 8003e84:	9300      	str	r3, [sp, #0]
 8003e86:	0021      	movs	r1, r4
 8003e88:	9b06      	ldr	r3, [sp, #24]
 8003e8a:	9805      	ldr	r0, [sp, #20]
 8003e8c:	f7ff fe82 	bl	8003b94 <_printf_common>
 8003e90:	1c43      	adds	r3, r0, #1
 8003e92:	d1b3      	bne.n	8003dfc <_printf_i+0x18c>
 8003e94:	2001      	movs	r0, #1
 8003e96:	4240      	negs	r0, r0
 8003e98:	b00b      	add	sp, #44	; 0x2c
 8003e9a:	bdf0      	pop	{r4, r5, r6, r7, pc}
 8003e9c:	08004128 	.word	0x08004128
 8003ea0:	08004117 	.word	0x08004117

08003ea4 <__ascii_wctomb>:
 8003ea4:	1e0b      	subs	r3, r1, #0
 8003ea6:	d004      	beq.n	8003eb2 <__ascii_wctomb+0xe>
 8003ea8:	2aff      	cmp	r2, #255	; 0xff
 8003eaa:	d904      	bls.n	8003eb6 <__ascii_wctomb+0x12>
 8003eac:	238a      	movs	r3, #138	; 0x8a
 8003eae:	6003      	str	r3, [r0, #0]
 8003eb0:	3b8b      	subs	r3, #139	; 0x8b
 8003eb2:	0018      	movs	r0, r3
 8003eb4:	4770      	bx	lr
 8003eb6:	700a      	strb	r2, [r1, #0]
 8003eb8:	2301      	movs	r3, #1
 8003eba:	e7fa      	b.n	8003eb2 <__ascii_wctomb+0xe>

08003ebc <memchr>:
 8003ebc:	b2c9      	uxtb	r1, r1
 8003ebe:	1882      	adds	r2, r0, r2
 8003ec0:	4290      	cmp	r0, r2
 8003ec2:	d101      	bne.n	8003ec8 <memchr+0xc>
 8003ec4:	2000      	movs	r0, #0
 8003ec6:	4770      	bx	lr
 8003ec8:	7803      	ldrb	r3, [r0, #0]
 8003eca:	428b      	cmp	r3, r1
 8003ecc:	d0fb      	beq.n	8003ec6 <memchr+0xa>
 8003ece:	3001      	adds	r0, #1
 8003ed0:	e7f6      	b.n	8003ec0 <memchr+0x4>

08003ed2 <memmove>:
 8003ed2:	b510      	push	{r4, lr}
 8003ed4:	4288      	cmp	r0, r1
 8003ed6:	d902      	bls.n	8003ede <memmove+0xc>
 8003ed8:	188b      	adds	r3, r1, r2
 8003eda:	4298      	cmp	r0, r3
 8003edc:	d308      	bcc.n	8003ef0 <memmove+0x1e>
 8003ede:	2300      	movs	r3, #0
 8003ee0:	429a      	cmp	r2, r3
 8003ee2:	d007      	beq.n	8003ef4 <memmove+0x22>
 8003ee4:	5ccc      	ldrb	r4, [r1, r3]
 8003ee6:	54c4      	strb	r4, [r0, r3]
 8003ee8:	3301      	adds	r3, #1
 8003eea:	e7f9      	b.n	8003ee0 <memmove+0xe>
 8003eec:	5c8b      	ldrb	r3, [r1, r2]
 8003eee:	5483      	strb	r3, [r0, r2]
 8003ef0:	3a01      	subs	r2, #1
 8003ef2:	d2fb      	bcs.n	8003eec <memmove+0x1a>
 8003ef4:	bd10      	pop	{r4, pc}

08003ef6 <_realloc_r>:
 8003ef6:	b5f8      	push	{r3, r4, r5, r6, r7, lr}
 8003ef8:	0007      	movs	r7, r0
 8003efa:	000d      	movs	r5, r1
 8003efc:	0016      	movs	r6, r2
 8003efe:	2900      	cmp	r1, #0
 8003f00:	d105      	bne.n	8003f0e <_realloc_r+0x18>
 8003f02:	0011      	movs	r1, r2
 8003f04:	f7ff fb9c 	bl	8003640 <_malloc_r>
 8003f08:	0004      	movs	r4, r0
 8003f0a:	0020      	movs	r0, r4
 8003f0c:	bdf8      	pop	{r3, r4, r5, r6, r7, pc}
 8003f0e:	2a00      	cmp	r2, #0
 8003f10:	d103      	bne.n	8003f1a <_realloc_r+0x24>
 8003f12:	f7ff fb4b 	bl	80035ac <_free_r>
 8003f16:	0034      	movs	r4, r6
 8003f18:	e7f7      	b.n	8003f0a <_realloc_r+0x14>
 8003f1a:	f000 f812 	bl	8003f42 <_malloc_usable_size_r>
 8003f1e:	002c      	movs	r4, r5
 8003f20:	4286      	cmp	r6, r0
 8003f22:	d9f2      	bls.n	8003f0a <_realloc_r+0x14>
 8003f24:	0031      	movs	r1, r6
 8003f26:	0038      	movs	r0, r7
 8003f28:	f7ff fb8a 	bl	8003640 <_malloc_r>
 8003f2c:	1e04      	subs	r4, r0, #0
 8003f2e:	d0ec      	beq.n	8003f0a <_realloc_r+0x14>
 8003f30:	0029      	movs	r1, r5
 8003f32:	0032      	movs	r2, r6
 8003f34:	f7ff fb28 	bl	8003588 <memcpy>
 8003f38:	0029      	movs	r1, r5
 8003f3a:	0038      	movs	r0, r7
 8003f3c:	f7ff fb36 	bl	80035ac <_free_r>
 8003f40:	e7e3      	b.n	8003f0a <_realloc_r+0x14>

08003f42 <_malloc_usable_size_r>:
 8003f42:	1f0b      	subs	r3, r1, #4
 8003f44:	681b      	ldr	r3, [r3, #0]
 8003f46:	1f18      	subs	r0, r3, #4
 8003f48:	2b00      	cmp	r3, #0
 8003f4a:	da01      	bge.n	8003f50 <_malloc_usable_size_r+0xe>
 8003f4c:	580b      	ldr	r3, [r1, r0]
 8003f4e:	18c0      	adds	r0, r0, r3
 8003f50:	4770      	bx	lr
	...

08003f54 <_sbrk>:
 8003f54:	4b05      	ldr	r3, [pc, #20]	; (8003f6c <_sbrk+0x18>)
 8003f56:	0002      	movs	r2, r0
 8003f58:	6819      	ldr	r1, [r3, #0]
 8003f5a:	2900      	cmp	r1, #0
 8003f5c:	d101      	bne.n	8003f62 <_sbrk+0xe>
 8003f5e:	4904      	ldr	r1, [pc, #16]	; (8003f70 <_sbrk+0x1c>)
 8003f60:	6019      	str	r1, [r3, #0]
 8003f62:	6818      	ldr	r0, [r3, #0]
 8003f64:	1882      	adds	r2, r0, r2
 8003f66:	601a      	str	r2, [r3, #0]
 8003f68:	4770      	bx	lr
 8003f6a:	46c0      	nop			; (mov r8, r8)
 8003f6c:	200002c4 	.word	0x200002c4
 8003f70:	200004d4 	.word	0x200004d4

08003f74 <_init>:
 8003f74:	b5f8      	push	{r3, r4, r5, r6, r7, lr}
 8003f76:	46c0      	nop			; (mov r8, r8)
 8003f78:	bcf8      	pop	{r3, r4, r5, r6, r7}
 8003f7a:	bc08      	pop	{r3}
 8003f7c:	469e      	mov	lr, r3
 8003f7e:	4770      	bx	lr

08003f80 <_fini>:
 8003f80:	b5f8      	push	{r3, r4, r5, r6, r7, lr}
 8003f82:	46c0      	nop			; (mov r8, r8)
 8003f84:	bcf8      	pop	{r3, r4, r5, r6, r7}
 8003f86:	bc08      	pop	{r3}
 8003f88:	469e      	mov	lr, r3
 8003f8a:	4770      	bx	lr
